

Microchip MPLAB XC8 Assembler V2.40 build 20220703182018 
                                                                                               Thu Oct 06 12:21:40 2022

Microchip MPLAB XC8 C Compiler v2.40 (Free license) build 20220703182018 Og1 
     1                           	processor	18F25K80
     2                           	fnconf	rparam,??,?,0
     3                           	pagewidth 120
     4                           	opt	flic
     5                           	psect	idataBANK0,global,class=CODE,delta=1,noexec
     6                           	psect	nvCOMRAM,global,class=COMRAM,space=1,delta=1,lowdata,noexec
     7                           	psect	smallconst,global,reloc=2,class=SMALLCONST,delta=1,noexec
     8                           	psect	cinit,global,reloc=2,class=CODE,delta=1
     9                           	psect	bssCOMRAM,global,class=COMRAM,space=1,delta=1,lowdata,noexec
    10                           	psect	bssBANK0,global,class=BANK0,space=1,delta=1,lowdata,noexec
    11                           	psect	dataBANK0,global,class=BANK0,space=1,delta=1,lowdata,noexec
    12                           	psect	bssBANK1,global,class=BANK1,space=1,delta=1,lowdata,noexec
    13                           	psect	cstackBANK0,global,class=BANK0,space=1,delta=1,lowdata,noexec
    14                           	psect	cstackCOMRAM,global,class=COMRAM,space=1,delta=1,lowdata,noexec
    15                           	psect	text0,global,reloc=2,class=CODE,delta=1
    16                           	psect	text1,global,reloc=2,class=CODE,delta=1
    17                           	psect	text2,global,reloc=2,class=CODE,delta=1
    18                           	psect	text3,global,reloc=2,class=CODE,delta=1,group=3
    19                           	psect	text4,global,reloc=2,class=CODE,delta=1,group=1
    20                           	psect	text5,global,reloc=2,class=CODE,delta=1,group=1
    21                           	psect	text6,global,reloc=2,class=CODE,delta=1,group=1
    22                           	psect	text7,global,reloc=2,class=CODE,delta=1,group=1
    23                           	psect	text8,global,reloc=2,class=CODE,delta=1,group=3
    24                           	psect	text9,global,reloc=2,class=CODE,delta=1,group=3
    25                           	psect	text10,global,reloc=2,class=CODE,delta=1
    26                           	psect	text11,global,reloc=2,class=CODE,delta=1
    27                           	psect	text12,global,reloc=2,class=CODE,delta=1,group=3
    28                           	psect	text13,global,reloc=2,class=CODE,delta=1,group=2
    29                           	psect	text14,global,reloc=2,class=CODE,delta=1,group=2
    30                           	psect	text15,global,reloc=2,class=CODE,delta=1,group=3
    31                           	psect	text16,global,reloc=2,class=CODE,delta=1,group=3
    32                           	psect	text17,global,reloc=2,class=CODE,delta=1,group=3
    33                           	psect	text18,global,reloc=2,class=CODE,delta=1,group=2
    34                           	psect	text19,global,reloc=2,class=CODE,delta=1
    35                           	psect	text20,global,reloc=2,class=CODE,delta=1
    36                           	psect	text21,global,reloc=2,class=CODE,delta=1
    37                           	psect	text22,global,reloc=2,class=CODE,delta=1
    38                           	psect	text23,global,reloc=2,class=CODE,delta=1
    39                           	psect	text24,global,reloc=2,class=CODE,delta=1
    40                           	psect	text25,global,reloc=2,class=CODE,delta=1
    41                           	psect	text26,global,reloc=2,class=CODE,delta=1
    42                           	psect	text27,global,reloc=2,class=CODE,delta=1
    43                           	psect	text28,global,reloc=2,class=CODE,delta=1
    44                           	psect	text29,global,reloc=2,class=CODE,delta=1
    45                           	psect	text30,global,reloc=2,class=CODE,delta=1
    46                           	psect	text31,global,reloc=2,class=CODE,delta=1
    47                           	psect	text32,global,reloc=2,class=CODE,delta=1
    48                           	psect	text33,global,reloc=2,class=CODE,delta=1
    49                           	psect	text34,global,reloc=2,class=CODE,delta=1
    50                           	psect	text35,global,reloc=2,class=CODE,delta=1
    51                           	psect	text36,global,reloc=2,class=CODE,delta=1
    52                           	psect	text37,global,reloc=2,class=CODE,delta=1
    53                           	psect	text38,global,reloc=2,class=CODE,delta=1
    54                           	psect	text39,global,reloc=2,class=CODE,delta=1
    55                           	psect	intcode,global,reloc=2,class=CODE,delta=1
    56                           	psect	text41,global,reloc=2,class=CODE,delta=1
    57                           	psect	text42,global,reloc=2,class=CODE,delta=1
    58                           	psect	text43,global,reloc=2,class=CODE,delta=1
    59                           	psect	text44,global,reloc=2,class=CODE,delta=1
    60                           	psect	text45,global,reloc=2,class=CODE,delta=1
    61                           	psect	text46,global,reloc=2,class=CODE,delta=1
    62                           	psect	text47,global,reloc=2,class=CODE,delta=1
    63                           	psect	text48,global,reloc=2,class=CODE,delta=1
    64                           	psect	text49,global,reloc=2,class=CODE,delta=1
    65                           	psect	text50,global,reloc=2,class=CODE,delta=1
    66                           	psect	text51,global,reloc=2,class=CODE,delta=1
    67                           	psect	text52,global,reloc=2,class=CODE,delta=1
    68                           	psect	text53,global,reloc=2,class=CODE,delta=1
    69                           	psect	text54,global,reloc=2,class=CODE,delta=1
    70                           	psect	text55,global,reloc=2,class=CODE,delta=1
    71                           	psect	text56,global,reloc=2,class=CODE,delta=1
    72                           	psect	text57,global,reloc=2,class=CODE,delta=1
    73                           	psect	text58,global,reloc=2,class=CODE,delta=1
    74                           	psect	text59,global,reloc=2,class=CODE,delta=1
    75                           	psect	text60,global,reloc=2,class=CODE,delta=1
    76                           	psect	text61,global,reloc=2,class=CODE,delta=1
    77                           	psect	text62,global,reloc=2,class=CODE,delta=1
    78                           	psect	text63,global,reloc=2,class=CODE,delta=1
    79                           	psect	text64,global,reloc=2,class=CODE,delta=1
    80                           	psect	intsave_regs,global,class=BIGRAM,space=1,delta=1,noexec
    81                           	psect	text65,global,reloc=2,class=CODE,delta=1
    82                           	psect	rparam,global,class=COMRAM,space=1,delta=1,noexec
    83                           	psect	temp,global,ovrld,common,class=COMRAM,space=1,delta=1
    84                           	psect	idloc,global,abs,ovrld,class=IDLOC,space=5,delta=1,noexec
    85                           	psect	config,global,abs,ovrld,class=CONFIG,space=4,delta=1,noexec
    86   000000                     
    87                           ; Version 2.35
    88                           ; Generated 05/05/2021 GMT
    89                           ; 
    90                           ; Copyright © 2021, Microchip Technology Inc. and its subsidiaries ("Microchip")
    91                           ; All rights reserved.
    92                           ; 
    93                           ; This software is developed by Microchip Technology Inc. and its subsidiaries ("Microch
      +                          ip").
    94                           ; 
    95                           ; Redistribution and use in source and binary forms, with or without modification, are
    96                           ; permitted provided that the following conditions are met:
    97                           ; 
    98                           ;     1. Redistributions of source code must retain the above copyright notice, this lis
      +                          t of
    99                           ;        conditions and the following disclaimer.
   100                           ; 
   101                           ;     2. Redistributions in binary form must reproduce the above copyright notice, this 
      +                          list
   102                           ;        of conditions and the following disclaimer in the documentation and/or other
   103                           ;        materials provided with the distribution. Publication is not required when
   104                           ;        this file is used in an embedded application.
   105                           ; 
   106                           ;     3. Microchip's name may not be used to endorse or promote products derived from th
      +                          is
   107                           ;        software without specific prior written permission.
   108                           ; 
   109                           ; THIS SOFTWARE IS PROVIDED BY MICROCHIP "AS IS" AND ANY EXPRESS OR IMPLIED WARRANTIES,
   110                           ; INCLUDING, BUT NOT LIMITED TO, THE IMPLIED WARRANTIES OF MERCHANTABILITY AND FITNESS F
      +                          OR
   111                           ; PURPOSE ARE DISCLAIMED.  IN NO EVENT SHALL MICROCHIP BE LIABLE FOR ANY DIRECT, INDIREC
      +                          T,
   112                           ; INCIDENTAL, SPECIAL, EXEMPLARY, OR CONSEQUENTIAL DAMAGES (INCLUDING BUT NOT LIMITED TO
   113                           ; PROCUREMENT OF SUBSTITUTE GOODS OR SERVICES; LOSS OF USE, DATA OR PROFITS; OR BUSINESS
   114                           ; INTERRUPTION) HOWSOEVER CAUSED AND ON ANY THEORY OF LIABILITY, WHETHER IN CONTRACT, ST
      +                          RICT
   115                           ; LIABILITY, OR TORT (INCLUDING NEGLIGENCE OR OTHERWISE) ARISING IN ANY WAY OUT OF THE U
      +                          SE OF
   116                           ; THIS SOFTWARE, EVEN IF ADVISED OF THE POSSIBILITY OF SUCH DAMAGE.
   117                           ; 
   118                           ; 
   119                           ; Code-generator required, PIC18F25K80 Definitions
   120                           ; 
   121                           ; SFR Addresses
   122   000000                     
   123 ;; Function _EUSART1_DefaultFramingErrorHandler is unused but had its address taken
   124   000000                     
   125 ;; Function _EUSART1_DefaultOverrunErrorHandler is unused but had its address taken
   126   000000                     
   127 ;; Function _EUSART1_DefaultErrorHandler is unused but had its address taken
   128   000000                     
   129                           	psect	idataBANK0
   130   002E6C                     __pidataBANK0:
   131                           	callstack 0
   132                           
   133                           ;initializer for _delay2S
   134   002E6C  01                 	db	1
   135                           
   136                           ;initializer for _porte_UnLock
   137   002E6D  01                 	db	1
   138   000000                     _TMR2	set	4044
   139   000000                     _ADRESL	set	4035
   140   000000                     _ADRESH	set	4036
   141   000000                     _COMSTATbits	set	3953
   142   000000                     _RXB1SIDH	set	3889
   143   000000                     _RXB1SIDL	set	3890
   144   000000                     _RXB0D7	set	3949
   145   000000                     _RXB0D6	set	3948
   146   000000                     _RXB0D5	set	3947
   147   000000                     _RXB0D4	set	3946
   148   000000                     _RXB0D3	set	3945
   149   000000                     _RXB0D2	set	3944
   150   000000                     _RXB0D1	set	3943
   151   000000                     _RXB0D0	set	3942
   152   000000                     _RXB0DLC	set	3941
   153   000000                     _RXB0SIDH	set	3937
   154   000000                     _RXB0EIDL	set	3940
   155   000000                     _RXB0EIDH	set	3939
   156   000000                     _RXB0SIDL	set	3938
   157   000000                     _TXB2SIDL	set	3842
   158   000000                     _TXB2SIDH	set	3841
   159   000000                     _TXB2EIDH	set	3843
   160   000000                     _TXB2CONbits	set	3840
   161   000000                     _TXB1SIDL	set	3858
   162   000000                     _TXB1SIDH	set	3857
   163   000000                     _TXB1EIDH	set	3859
   164   000000                     _TXB1CONbits	set	3856
   165   000000                     _TXB0SIDL	set	3874
   166   000000                     _TXB0SIDH	set	3873
   167   000000                     _TXB0EIDH	set	3875
   168   000000                     _TXB0CONbits	set	3872
   169   000000                     _RXF5SIDL	set	3829
   170   000000                     _RXF5SIDH	set	3828
   171   000000                     _RXF5EIDL	set	3831
   172   000000                     _RXF5EIDH	set	3830
   173   000000                     _RXF4SIDL	set	3825
   174   000000                     _RXF4SIDH	set	3824
   175   000000                     _RXF4EIDL	set	3827
   176   000000                     _RXF4EIDH	set	3826
   177   000000                     _RXF3SIDL	set	3821
   178   000000                     _RXF3SIDH	set	3820
   179   000000                     _RXF3EIDL	set	3823
   180   000000                     _RXF3EIDH	set	3822
   181   000000                     _RXF2SIDL	set	3817
   182   000000                     _RXF2SIDH	set	3816
   183   000000                     _RXF2EIDL	set	3819
   184   000000                     _RXF2EIDH	set	3818
   185   000000                     _RXF1SIDL	set	3813
   186   000000                     _RXF1SIDH	set	3812
   187   000000                     _RXF1EIDL	set	3815
   188   000000                     _RXF1EIDH	set	3814
   189   000000                     _RXF0SIDL	set	3809
   190   000000                     _RXF0EIDL	set	3811
   191   000000                     _RXM1SIDL	set	3837
   192   000000                     _RXM1SIDH	set	3836
   193   000000                     _RXM1EIDL	set	3839
   194   000000                     _RXM1EIDH	set	3838
   195   000000                     _RXM0SIDL	set	3833
   196   000000                     _RXM0EIDL	set	3835
   197   000000                     _CIOCON	set	3952
   198   000000                     _ECANCON	set	3954
   199   000000                     _TXREG1	set	4013
   200   000000                     _RCREG1	set	4014
   201   000000                     _SPBRG1	set	4015
   202   000000                     _TXSTA1	set	4012
   203                           
   204                           	psect	nvCOMRAM
   205   00002B                     __pnvCOMRAM:
   206                           	callstack 0
   207   00002B                     _TMR2_InterruptHandler:
   208                           	callstack 0
   209   00002B                     	ds	2
   210   00002D                     _TMR0_InterruptHandler:
   211                           	callstack 0
   212   00002D                     	ds	2
   213   00002F                     _TMR1_InterruptHandler:
   214                           	callstack 0
   215   00002F                     	ds	2
   216   000031                     _timer1ReloadVal:
   217                           	callstack 0
   218   000031                     	ds	2
   219   000033                     _EUSART1_ErrorHandler:
   220                           	callstack 0
   221   000033                     	ds	2
   222   000035                     _EUSART1_OverrunErrorHandler:
   223                           	callstack 0
   224   000035                     	ds	2
   225   000037                     _EUSART1_FramingErrorHandler:
   226                           	callstack 0
   227   000037                     	ds	2
   228   000039                     _timer0ReloadVal:
   229                           	callstack 0
   230   000039                     	ds	1
   231   000000                     _T2CONbits	set	4042
   232   000000                     _LATAbits	set	3977
   233   000000                     _RXB0CON	set	3936
   234   000000                     _T0CONbits	set	4053
   235   000000                     _T1GCONbits	set	4010
   236   000000                     _T1CONbits	set	4045
   237   000000                     _ADCON0bits	set	4034
   238   000000                     _RCSTA1bits	set	4011
   239   000000                     _TXSTA1bits	set	4012
   240   000000                     _BRGCON1	set	3651
   241   000000                     _RXF0SIDH	set	3808
   242   000000                     _RXF0EIDH	set	3810
   243   000000                     _RXM0SIDH	set	3832
   244   000000                     _RXM0EIDH	set	3834
   245   000000                     _WPUB	set	3931
   246   000000                     _ANCON1	set	3932
   247   000000                     _ANCON0	set	3933
   248   000000                     _PIE5bits	set	3958
   249   000000                     _REFOCON	set	3994
   250   000000                     _OSCTUNE	set	3995
   251   000000                     _OSCCON2	set	4050
   252   000000                     _OSCCON	set	4051
   253   000000                     _T0CON	set	4053
   254   000000                     _TMR0L	set	4054
   255   000000                     _TMR0H	set	4055
   256   000000                     _INTCON2bits	set	4081
   257   000000                     _INTCONbits	set	4082
   258   000000                     _PIE1bits	set	3997
   259   000000                     _RCONbits	set	4048
   260   000000                     _SPBRGH1	set	3965
   261   000000                     _PIR5bits	set	3959
   262   000000                     _BAUDCON1	set	4007
   263   000000                     _PIR1bits	set	3998
   264   000000                     _T1GCON	set	4010
   265   000000                     _RCSTA1	set	4011
   266   000000                     _ADCON2	set	4032
   267   000000                     _ADCON1	set	4033
   268   000000                     _ADCON0	set	4034
   269   000000                     _LATA	set	3977
   270   000000                     _TRISA	set	3986
   271   000000                     _LATC	set	3979
   272   000000                     _LATB	set	3978
   273   000000                     _TRISC	set	3988
   274   000000                     _TRISB	set	3987
   275   000000                     _RXB0CONbits	set	3936
   276   000000                     _CANSTAT	set	3950
   277   000000                     _CANCON	set	3951
   278   000000                     _BRGCON3	set	3653
   279   000000                     _BRGCON2	set	3652
   280   000000                     _RXB1CONbits	set	3888
   281   000000                     _TXB0D7	set	3885
   282   000000                     _TXB0D6	set	3884
   283   000000                     _TXB0D5	set	3883
   284   000000                     _TXB0D4	set	3882
   285   000000                     _TXB0D3	set	3881
   286   000000                     _TXB0D2	set	3880
   287   000000                     _TXB0D1	set	3879
   288   000000                     _TXB0D0	set	3878
   289   000000                     _TXB0DLC	set	3877
   290   000000                     _TXB0EIDL	set	3876
   291   000000                     _TXB1D7	set	3869
   292   000000                     _TXB1D6	set	3868
   293   000000                     _TXB1D5	set	3867
   294   000000                     _TXB1D4	set	3866
   295   000000                     _TXB1D3	set	3865
   296   000000                     _TXB1D2	set	3864
   297   000000                     _TXB1D1	set	3863
   298   000000                     _TXB1D0	set	3862
   299   000000                     _TXB1DLC	set	3861
   300   000000                     _TXB1EIDL	set	3860
   301   000000                     _TXB2D7	set	3853
   302   000000                     _TXB2D6	set	3852
   303   000000                     _TXB2D5	set	3851
   304   000000                     _TXB2D4	set	3850
   305   000000                     _TXB2D3	set	3849
   306   000000                     _TXB2D2	set	3848
   307   000000                     _TXB2D1	set	3847
   308   000000                     _TXB2D0	set	3846
   309   000000                     _TXB2DLC	set	3845
   310   000000                     _TXB2EIDL	set	3844
   311   000000                     _RXB1D7	set	3901
   312   000000                     _RXB1D6	set	3900
   313   000000                     _RXB1D5	set	3899
   314   000000                     _RXB1D4	set	3898
   315   000000                     _RXB1D3	set	3897
   316   000000                     _RXB1D2	set	3896
   317   000000                     _RXB1D1	set	3895
   318   000000                     _RXB1D0	set	3894
   319   000000                     _RXB1DLC	set	3893
   320   000000                     _RXB1EIDL	set	3892
   321   000000                     _RXB1EIDH	set	3891
   322   000000                     _T2CON	set	4042
   323   000000                     _PR2	set	4043
   324   000000                     _T1CON	set	4045
   325   000000                     _TMR1L	set	4046
   326   000000                     _TMR1H	set	4047
   327                           
   328                           	psect	smallconst
   329   001000                     __psmallconst:
   330                           	callstack 0
   331   001000  00                 	db	0
   332   001001                     STR_6:
   333   001001  45                 	db	69	;'E'
   334   001002  74                 	db	116	;'t'
   335   001003  61                 	db	97	;'a'
   336   001004  74                 	db	116	;'t'
   337   001005  20                 	db	32
   338   001006  6C                 	db	108	;'l'
   339   001007  75                 	db	117	;'u'
   340   001008  6D                 	db	109	;'m'
   341   001009  69                 	db	105	;'i'
   342   00100A  65                 	db	101	;'e'
   343   00100B  72                 	db	114	;'r'
   344   00100C  65                 	db	101	;'e'
   345   00100D  20                 	db	32
   346   00100E  61                 	db	97	;'a'
   347   00100F  72                 	db	114	;'r'
   348   001010  72                 	db	114	;'r'
   349   001011  69                 	db	105	;'i'
   350   001012  65                 	db	101	;'e'
   351   001013  72                 	db	114	;'r'
   352   001014  65                 	db	101	;'e'
   353   001015  3A                 	db	58	;':'
   354   001016  20                 	db	32
   355   001017  41                 	db	65	;'A'
   356   001018  43                 	db	67	;'C'
   357   001019  54                 	db	84	;'T'
   358   00101A  49                 	db	73	;'I'
   359   00101B  56                 	db	86	;'V'
   360   00101C  45                 	db	69	;'E'
   361   00101D  20                 	db	32
   362   00101E  0A                 	db	10
   363   00101F  0A                 	db	10
   364   001020  0D                 	db	13
   365   001021  00                 	db	0
   366   001022                     STR_5:
   367   001022  45                 	db	69	;'E'
   368   001023  74                 	db	116	;'t'
   369   001024  61                 	db	97	;'a'
   370   001025  74                 	db	116	;'t'
   371   001026  20                 	db	32
   372   001027  6C                 	db	108	;'l'
   373   001028  75                 	db	117	;'u'
   374   001029  6D                 	db	109	;'m'
   375   00102A  69                 	db	105	;'i'
   376   00102B  65                 	db	101	;'e'
   377   00102C  72                 	db	114	;'r'
   378   00102D  65                 	db	101	;'e'
   379   00102E  20                 	db	32
   380   00102F  61                 	db	97	;'a'
   381   001030  72                 	db	114	;'r'
   382   001031  72                 	db	114	;'r'
   383   001032  69                 	db	105	;'i'
   384   001033  65                 	db	101	;'e'
   385   001034  72                 	db	114	;'r'
   386   001035  65                 	db	101	;'e'
   387   001036  3A                 	db	58	;':'
   388   001037  20                 	db	32
   389   001038  45                 	db	69	;'E'
   390   001039  52                 	db	82	;'R'
   391   00103A  52                 	db	82	;'R'
   392   00103B  45                 	db	69	;'E'
   393   00103C  55                 	db	85	;'U'
   394   00103D  52                 	db	82	;'R'
   395   00103E  20                 	db	32
   396   00103F  0A                 	db	10
   397   001040  0D                 	db	13
   398   001041  00                 	db	0
   399   001042                     STR_3:
   400   001042  45                 	db	69	;'E'
   401   001043  74                 	db	116	;'t'
   402   001044  61                 	db	97	;'a'
   403   001045  74                 	db	116	;'t'
   404   001046  20                 	db	32
   405   001047  6C                 	db	108	;'l'
   406   001048  75                 	db	117	;'u'
   407   001049  6D                 	db	109	;'m'
   408   00104A  69                 	db	105	;'i'
   409   00104B  65                 	db	101	;'e'
   410   00104C  72                 	db	114	;'r'
   411   00104D  65                 	db	101	;'e'
   412   00104E  20                 	db	32
   413   00104F  61                 	db	97	;'a'
   414   001050  76                 	db	118	;'v'
   415   001051  61                 	db	97	;'a'
   416   001052  6E                 	db	110	;'n'
   417   001053  74                 	db	116	;'t'
   418   001054  20                 	db	32
   419   001055  3A                 	db	58	;':'
   420   001056  20                 	db	32
   421   001057  45                 	db	69	;'E'
   422   001058  52                 	db	82	;'R'
   423   001059  52                 	db	82	;'R'
   424   00105A  45                 	db	69	;'E'
   425   00105B  55                 	db	85	;'U'
   426   00105C  52                 	db	82	;'R'
   427   00105D  20                 	db	32
   428   00105E  0A                 	db	10
   429   00105F  0D                 	db	13
   430   001060  00                 	db	0
   431   001061                     STR_4:
   432   001061  45                 	db	69	;'E'
   433   001062  74                 	db	116	;'t'
   434   001063  61                 	db	97	;'a'
   435   001064  74                 	db	116	;'t'
   436   001065  20                 	db	32
   437   001066  6C                 	db	108	;'l'
   438   001067  75                 	db	117	;'u'
   439   001068  6D                 	db	109	;'m'
   440   001069  69                 	db	105	;'i'
   441   00106A  65                 	db	101	;'e'
   442   00106B  72                 	db	114	;'r'
   443   00106C  65                 	db	101	;'e'
   444   00106D  20                 	db	32
   445   00106E  61                 	db	97	;'a'
   446   00106F  76                 	db	118	;'v'
   447   001070  61                 	db	97	;'a'
   448   001071  6E                 	db	110	;'n'
   449   001072  74                 	db	116	;'t'
   450   001073  3A                 	db	58	;':'
   451   001074  20                 	db	32
   452   001075  41                 	db	65	;'A'
   453   001076  43                 	db	67	;'C'
   454   001077  54                 	db	84	;'T'
   455   001078  49                 	db	73	;'I'
   456   001079  56                 	db	86	;'V'
   457   00107A  45                 	db	69	;'E'
   458   00107B  20                 	db	32
   459   00107C  0A                 	db	10
   460   00107D  0D                 	db	13
   461   00107E  00                 	db	0
   462   00107F                     STR_1:
   463   00107F  0A                 	db	10
   464   001080  0D                 	db	13
   465   001081  44                 	db	68	;'D'
   466   001082  45                 	db	69	;'E'
   467   001083  4D                 	db	77	;'M'
   468   001084  41                 	db	65	;'A'
   469   001085  4E                 	db	78	;'N'
   470   001086  44                 	db	68	;'D'
   471   001087  45                 	db	69	;'E'
   472   001088  20                 	db	32
   473   001089  44                 	db	68	;'D'
   474   00108A  45                 	db	69	;'E'
   475   00108B  20                 	db	32
   476   00108C  56                 	db	86	;'V'
   477   00108D  45                 	db	69	;'E'
   478   00108E  52                 	db	82	;'R'
   479   00108F  49                 	db	73	;'I'
   480   001090  46                 	db	70	;'F'
   481   001091  49                 	db	73	;'I'
   482   001092  43                 	db	67	;'C'
   483   001093  41                 	db	65	;'A'
   484   001094  54                 	db	84	;'T'
   485   001095  49                 	db	73	;'I'
   486   001096  4F                 	db	79	;'O'
   487   001097  4E                 	db	78	;'N'
   488   001098  0A                 	db	10
   489   001099  0A                 	db	10
   490   00109A  0D                 	db	13
   491   00109B  00                 	db	0
   492   00109C                     STR_2:
   493   00109C  45                 	db	69	;'E'
   494   00109D  72                 	db	114	;'r'
   495   00109E  72                 	db	114	;'r'
   496   00109F  65                 	db	101	;'e'
   497   0010A0  75                 	db	117	;'u'
   498   0010A1  72                 	db	114	;'r'
   499   0010A2  73                 	db	115	;'s'
   500   0010A3  3A                 	db	58	;':'
   501   0010A4  20                 	db	32
   502   0010A5  25                 	db	37
   503   0010A6  34                 	db	52	;'4'
   504   0010A7  64                 	db	100	;'d'
   505   0010A8  20                 	db	32
   506   0010A9  25                 	db	37
   507   0010AA  34                 	db	52	;'4'
   508   0010AB  64                 	db	100	;'d'
   509   0010AC  0D                 	db	13
   510   0010AD  0A                 	db	10
   511   0010AE  0A                 	db	10
   512   0010AF  00                 	db	0
   513   0010B0  00                 	db	0	; dummy byte at the end
   514   000000                     
   515                           ; #config settings
   516                           
   517                           	psect	cinit
   518   002946                     __pcinit:
   519                           	callstack 0
   520   002946                     start_initialization:
   521                           	callstack 0
   522   002946                     __initialization:
   523                           	callstack 0
   524                           
   525                           ; Initialize objects allocated to BANK0 (2 bytes)
   526                           ; load TBLPTR registers with __pidataBANK0
   527   002946  0E6C               	movlw	low __pidataBANK0
   528   002948  6EF6               	movwf	tblptrl,c
   529   00294A  0E2E               	movlw	high __pidataBANK0
   530   00294C  6EF7               	movwf	tblptrh,c
   531   00294E  0E00               	movlw	low (__pidataBANK0 shr (0+16))
   532   002950  6EF8               	movwf	tblptru,c
   533   002952  0009               	tblrd		*+	;fetch initializer
   534   002954  CFF5 F0F1          	movff	tablat,__pdataBANK0
   535   002958  0009               	tblrd		*+	;fetch initializer
   536   00295A  CFF5 F0F2          	movff	tablat,__pdataBANK0+1
   537                           
   538                           ; Clear objects allocated to BANK1 (32 bytes)
   539   00295E  EE01  F000         	lfsr	0,__pbssBANK1
   540   002962  0E20               	movlw	32
   541   002964                     clear_0:
   542   002964  6AEE               	clrf	postinc0,c
   543   002966  06E8               	decf	wreg,f,c
   544   002968  E1FD               	bnz	clear_0
   545                           
   546                           ; Clear objects allocated to BANK0 (42 bytes)
   547   00296A  EE00  F0C7         	lfsr	0,__pbssBANK0
   548   00296E  0E2A               	movlw	42
   549   002970                     clear_1:
   550   002970  6AEE               	clrf	postinc0,c
   551   002972  06E8               	decf	wreg,f,c
   552   002974  E1FD               	bnz	clear_1
   553                           
   554                           ; Clear objects allocated to COMRAM (14 bytes)
   555   002976  EE00  F03A         	lfsr	0,__pbssCOMRAM
   556   00297A  0E0E               	movlw	14
   557   00297C                     clear_2:
   558   00297C  6AEE               	clrf	postinc0,c
   559   00297E  06E8               	decf	wreg,f,c
   560   002980  E1FD               	bnz	clear_2
   561   002982                     end_of_initialization:
   562                           	callstack 0
   563   002982                     __end_of__initialization:
   564                           	callstack 0
   565   002982  9048               	bcf	int$flags,0,c	;clear compiler interrupt flag (level 1)
   566   002984  9248               	bcf	int$flags,1,c	;clear compiler interrupt flag (level 2)
   567   002986  0E00               	movlw	low (__Lmediumconst shr (0+16))
   568   002988  6EF8               	movwf	tblptru,c
   569   00298A  0100               	movlb	0
   570   00298C  EF5E  F00B         	goto	_main	;jump to C main() function
   571                           
   572                           	psect	bssCOMRAM
   573   00003A                     __pbssCOMRAM:
   574                           	callstack 0
   575   00003A                     TMR2_ISR@CountCallBack:
   576                           	callstack 0
   577   00003A                     	ds	2
   578   00003C                     _lum_precedant:
   579                           	callstack 0
   580   00003C                     	ds	2
   581   00003E                     TMR0_ISR@CountCallBack:
   582                           	callstack 0
   583   00003E                     	ds	2
   584   000040                     _ADC_InterruptHandler:
   585                           	callstack 0
   586   000040                     	ds	2
   587   000042                     _WakeUpInterruptHandler:
   588                           	callstack 0
   589   000042                     	ds	2
   590   000044                     _RXB0InterruptHandler:
   591                           	callstack 0
   592   000044                     	ds	2
   593   000046                     _activation:
   594                           	callstack 0
   595   000046                     	ds	1
   596   000047                     _eusart1RxLastError:
   597                           	callstack 0
   598   000047                     	ds	1
   599                           
   600                           	psect	bssBANK0
   601   0000C7                     __pbssBANK0:
   602                           	callstack 0
   603   0000C7                     _Lux_INT_Rx:
   604                           	callstack 0
   605   0000C7                     	ds	14
   606   0000D5                     _width:
   607                           	callstack 0
   608   0000D5                     	ds	2
   609   0000D7                     _prec:
   610                           	callstack 0
   611   0000D7                     	ds	2
   612   0000D9                     _compteur:
   613                           	callstack 0
   614   0000D9                     	ds	2
   615   0000DB                     _erreur_1:
   616                           	callstack 0
   617   0000DB                     	ds	2
   618   0000DD                     _erreur_0:
   619                           	callstack 0
   620   0000DD                     	ds	2
   621   0000DF                     _compteurTTCAN:
   622                           	callstack 0
   623   0000DF                     	ds	2
   624   0000E1                     _flags:
   625                           	callstack 0
   626   0000E1                     	ds	1
   627   0000E2                     _clef:
   628                           	callstack 0
   629   0000E2                     	ds	1
   630   0000E3                     _Lux_INT_Tx:
   631                           	callstack 0
   632   0000E3                     	ds	14
   633                           
   634                           	psect	dataBANK0
   635   0000F1                     __pdataBANK0:
   636                           	callstack 0
   637   0000F1                     _delay2S:
   638                           	callstack 0
   639   0000F1                     	ds	1
   640   0000F2                     _porte_UnLock:
   641                           	callstack 0
   642   0000F2                     	ds	1
   643                           
   644                           	psect	bssBANK1
   645   000100                     __pbssBANK1:
   646                           	callstack 0
   647   000100                     _dbuf:
   648                           	callstack 0
   649   000100                     	ds	32
   650                           
   651                           	psect	cstackBANK0
   652   000060                     __pcstackBANK0:
   653                           	callstack 0
   654   000060                     ??_gestion_lumiere:
   655   000060                     ?_isdigit:
   656                           	callstack 0
   657   000060                     ?_isspace:
   658                           	callstack 0
   659   000060                     ?_ADC_GetConversion:
   660                           	callstack 0
   661   000060                     ?___wmul:
   662                           	callstack 0
   663   000060                     ?___aodiv:
   664                           	callstack 0
   665   000060                     ?___aomod:
   666                           	callstack 0
   667   000060                     EUSART1_Write@txData:
   668                           	callstack 0
   669   000060                     EUSART1_SetFramingErrorHandler@interruptHandler:
   670                           	callstack 0
   671   000060                     EUSART1_SetOverrunErrorHandler@interruptHandler:
   672                           	callstack 0
   673   000060                     EUSART1_SetErrorHandler@interruptHandler:
   674                           	callstack 0
   675   000060                     ECAN_SetRXB0InterruptHandler@handler:
   676                           	callstack 0
   677   000060                     ECAN_SetWakeUpInterruptHandler@handler:
   678                           	callstack 0
   679   000060                     TMR1_SetInterruptHandler@InterruptHandler:
   680                           	callstack 0
   681   000060                     TMR0_SetInterruptHandler@InterruptHandler:
   682                           	callstack 0
   683   000060                     TMR2_SetInterruptHandler@InterruptHandler:
   684                           	callstack 0
   685   000060                     ___wmul@multiplier:
   686                           	callstack 0
   687   000060                     isdigit@c:
   688                           	callstack 0
   689   000060                     isspace@c:
   690                           	callstack 0
   691   000060                     convertCANid2Reg@tempPassedInID:
   692                           	callstack 0
   693   000060                     ___aodiv@dividend:
   694                           	callstack 0
   695   000060                     ___aomod@dividend:
   696                           	callstack 0
   697                           
   698                           ; 8 bytes @ 0x0
   699   000060                     	ds	1
   700   000061                     putch@txData:
   701                           	callstack 0
   702                           
   703                           ; 1 bytes @ 0x1
   704   000061                     	ds	1
   705   000062                     ??_TMR1_Initialize:
   706   000062                     ??_ECAN_Initialize:
   707   000062                     ??_isdigit:
   708   000062                     ??_isspace:
   709   000062                     ??_ADC_GetConversion:
   710   000062                     ___wmul@multiplicand:
   711                           	callstack 0
   712   000062                     fputc@c:
   713                           	callstack 0
   714                           
   715                           ; 2 bytes @ 0x2
   716   000062                     	ds	2
   717   000064                     convertCANid2Reg@canIdType:
   718                           	callstack 0
   719   000064                     ADC_GetConversion@channel:
   720                           	callstack 0
   721   000064                     _isspace$2714:
   722                           	callstack 0
   723   000064                     ___wmul@product:
   724                           	callstack 0
   725   000064                     fputc@fp:
   726                           	callstack 0
   727                           
   728                           ; 2 bytes @ 0x4
   729   000064                     	ds	1
   730   000065                     convertCANid2Reg@passedInEIDH:
   731                           	callstack 0
   732                           
   733                           ; 2 bytes @ 0x5
   734   000065                     	ds	1
   735   000066                     ??_fputc:
   736   000066                     ?_atoi:
   737                           	callstack 0
   738   000066                     atoi@s:
   739                           	callstack 0
   740                           
   741                           ; 2 bytes @ 0x6
   742   000066                     	ds	1
   743   000067                     convertCANid2Reg@passedInEIDL:
   744                           	callstack 0
   745                           
   746                           ; 2 bytes @ 0x7
   747   000067                     	ds	1
   748   000068                     ??_atoi:
   749   000068                     ___aodiv@divisor:
   750                           	callstack 0
   751   000068                     ___aomod@divisor:
   752                           	callstack 0
   753                           
   754                           ; 8 bytes @ 0x8
   755   000068                     	ds	1
   756   000069                     convertCANid2Reg@passedInSIDH:
   757                           	callstack 0
   758                           
   759                           ; 2 bytes @ 0x9
   760   000069                     	ds	2
   761   00006B                     convertCANid2Reg@passedInSIDL:
   762                           	callstack 0
   763   00006B                     atoi@neg:
   764                           	callstack 0
   765   00006B                     fputs@s:
   766                           	callstack 0
   767                           
   768                           ; 2 bytes @ 0xB
   769   00006B                     	ds	2
   770   00006D                     ??_convertCANid2Reg:
   771   00006D                     atoi@n:
   772                           	callstack 0
   773   00006D                     fputs@fp:
   774                           	callstack 0
   775                           
   776                           ; 2 bytes @ 0xD
   777   00006D                     	ds	2
   778   00006F                     fputs@c:
   779                           	callstack 0
   780                           
   781                           ; 1 bytes @ 0xF
   782   00006F                     	ds	1
   783   000070                     ___aodiv@counter:
   784                           	callstack 0
   785   000070                     ___aomod@counter:
   786                           	callstack 0
   787   000070                     fputs@i:
   788                           	callstack 0
   789                           
   790                           ; 2 bytes @ 0x10
   791   000070                     	ds	1
   792   000071                     convertCANid2Reg@wipSIDL:
   793                           	callstack 0
   794   000071                     ___aodiv@sign:
   795                           	callstack 0
   796   000071                     ___aomod@sign:
   797                           	callstack 0
   798                           
   799                           ; 1 bytes @ 0x11
   800   000071                     	ds	1
   801   000072                     ?_abs:
   802                           	callstack 0
   803   000072                     CAN_transmit@tempCanMsg:
   804                           	callstack 0
   805   000072                     pad@fp:
   806                           	callstack 0
   807   000072                     abs@a:
   808                           	callstack 0
   809   000072                     ___aodiv@quotient:
   810                           	callstack 0
   811                           
   812                           ; 8 bytes @ 0x12
   813   000072                     	ds	2
   814   000074                     ??_abs:
   815   000074                     CAN_transmit@tempEIDH:
   816                           	callstack 0
   817   000074                     pad@buf:
   818                           	callstack 0
   819                           
   820                           ; 2 bytes @ 0x14
   821   000074                     	ds	1
   822   000075                     CAN_transmit@tempEIDL:
   823                           	callstack 0
   824                           
   825                           ; 1 bytes @ 0x15
   826   000075                     	ds	1
   827   000076                     CAN_transmit@tempSIDH:
   828                           	callstack 0
   829   000076                     pad@p:
   830                           	callstack 0
   831                           
   832                           ; 2 bytes @ 0x16
   833   000076                     	ds	1
   834   000077                     CAN_transmit@tempSIDL:
   835                           	callstack 0
   836                           
   837                           ; 1 bytes @ 0x17
   838   000077                     	ds	1
   839   000078                     ??_pad:
   840                           
   841                           ; 1 bytes @ 0x18
   842   000078                     	ds	1
   843   000079                     pad@i:
   844                           	callstack 0
   845                           
   846                           ; 2 bytes @ 0x19
   847   000079                     	ds	2
   848   00007B                     pad@w:
   849                           	callstack 0
   850                           
   851                           ; 2 bytes @ 0x1B
   852   00007B                     	ds	2
   853   00007D                     dtoa@fp:
   854                           	callstack 0
   855                           
   856                           ; 2 bytes @ 0x1D
   857   00007D                     	ds	2
   858   00007F                     dtoa@d:
   859                           	callstack 0
   860                           
   861                           ; 8 bytes @ 0x1F
   862   00007F                     	ds	8
   863   000087                     ??_dtoa:
   864                           
   865                           ; 1 bytes @ 0x27
   866   000087                     	ds	8
   867   00008F                     _dtoa$2665:
   868                           	callstack 0
   869                           
   870                           ; 2 bytes @ 0x2F
   871   00008F                     	ds	2
   872   000091                     dtoa@p:
   873                           	callstack 0
   874                           
   875                           ; 2 bytes @ 0x31
   876   000091                     	ds	2
   877   000093                     dtoa@w:
   878                           	callstack 0
   879                           
   880                           ; 2 bytes @ 0x33
   881   000093                     	ds	2
   882   000095                     dtoa@n:
   883                           	callstack 0
   884                           
   885                           ; 8 bytes @ 0x35
   886   000095                     	ds	8
   887   00009D                     dtoa@s:
   888                           	callstack 0
   889                           
   890                           ; 1 bytes @ 0x3D
   891   00009D                     	ds	1
   892   00009E                     dtoa@i:
   893                           	callstack 0
   894                           
   895                           ; 2 bytes @ 0x3E
   896   00009E                     	ds	2
   897   0000A0                     vfpfcnvrt@fp:
   898                           	callstack 0
   899                           
   900                           ; 2 bytes @ 0x40
   901   0000A0                     	ds	2
   902   0000A2                     vfpfcnvrt@fmt:
   903                           	callstack 0
   904                           
   905                           ; 2 bytes @ 0x42
   906   0000A2                     	ds	2
   907   0000A4                     vfpfcnvrt@ap:
   908                           	callstack 0
   909                           
   910                           ; 2 bytes @ 0x44
   911   0000A4                     	ds	2
   912   0000A6                     ??_vfpfcnvrt:
   913                           
   914                           ; 1 bytes @ 0x46
   915   0000A6                     	ds	3
   916   0000A9                     vfpfcnvrt@convarg:
   917                           	callstack 0
   918                           
   919                           ; 8 bytes @ 0x49
   920   0000A9                     	ds	8
   921   0000B1                     vfpfcnvrt@cp:
   922                           	callstack 0
   923                           
   924                           ; 2 bytes @ 0x51
   925   0000B1                     	ds	2
   926   0000B3                     ?_vfprintf:
   927                           	callstack 0
   928   0000B3                     vfprintf@fp:
   929                           	callstack 0
   930                           
   931                           ; 2 bytes @ 0x53
   932   0000B3                     	ds	2
   933   0000B5                     vfprintf@fmt:
   934                           	callstack 0
   935                           
   936                           ; 2 bytes @ 0x55
   937   0000B5                     	ds	2
   938   0000B7                     vfprintf@ap:
   939                           	callstack 0
   940                           
   941                           ; 2 bytes @ 0x57
   942   0000B7                     	ds	2
   943   0000B9                     vfprintf@cfmt:
   944                           	callstack 0
   945                           
   946                           ; 2 bytes @ 0x59
   947   0000B9                     	ds	2
   948   0000BB                     ?_printf:
   949                           	callstack 0
   950   0000BB                     printf@fmt:
   951                           	callstack 0
   952                           
   953                           ; 2 bytes @ 0x5B
   954   0000BB                     	ds	6
   955   0000C1                     printf@ap:
   956                           	callstack 0
   957                           
   958                           ; 2 bytes @ 0x61
   959   0000C1                     	ds	2
   960   0000C3                     ??_main:
   961                           
   962                           ; 1 bytes @ 0x63
   963   0000C3                     	ds	4
   964                           
   965                           	psect	cstackCOMRAM
   966   000001                     __pcstackCOMRAM:
   967                           	callstack 0
   968   000001                     ?_convertReg2ExtendedCANid:
   969                           	callstack 0
   970   000001                     ?_convertReg2StandardCANid:
   971                           	callstack 0
   972   000001                     convertReg2ExtendedCANid@tempRXBn_EIDL:
   973                           	callstack 0
   974   000001                     convertReg2StandardCANid@tempRXBn_SIDL:
   975                           	callstack 0
   976   000001                     TMR0_WriteTimer@timerVal:
   977                           	callstack 0
   978   000001                     TMR1_WriteTimer@timerVal:
   979                           	callstack 0
   980                           
   981                           ; 2 bytes @ 0x0
   982   000001                     	ds	1
   983   000002                     convertReg2ExtendedCANid@tempRXBn_SIDH:
   984                           	callstack 0
   985                           
   986                           ; 1 bytes @ 0x1
   987   000002                     	ds	1
   988   000003                     convertReg2ExtendedCANid@tempRXBn_SIDL:
   989                           	callstack 0
   990                           
   991                           ; 1 bytes @ 0x2
   992   000003                     	ds	2
   993   000005                     ??_convertReg2ExtendedCANid:
   994   000005                     ??_convertReg2StandardCANid:
   995                           
   996                           ; 1 bytes @ 0x4
   997   000005                     	ds	2
   998   000007                     convertReg2StandardCANid@tempRXBn_SIDH:
   999                           	callstack 0
  1000                           
  1001                           ; 1 bytes @ 0x6
  1002   000007                     	ds	1
  1003   000008                     convertReg2StandardCANid@returnValue:
  1004                           	callstack 0
  1005                           
  1006                           ; 4 bytes @ 0x7
  1007   000008                     	ds	1
  1008   000009                     convertReg2ExtendedCANid@tempRXBn_EIDH:
  1009                           	callstack 0
  1010                           
  1011                           ; 1 bytes @ 0x8
  1012   000009                     	ds	1
  1013   00000A                     convertReg2ExtendedCANid@returnValue:
  1014                           	callstack 0
  1015                           
  1016                           ; 4 bytes @ 0x9
  1017   00000A                     	ds	2
  1018   00000C                     convertReg2StandardCANid@ConvertedID:
  1019                           	callstack 0
  1020                           
  1021                           ; 4 bytes @ 0xB
  1022   00000C                     	ds	2
  1023   00000E                     convertReg2ExtendedCANid@CAN_standardLo_ID_lo2bits:
  1024                           	callstack 0
  1025                           
  1026                           ; 1 bytes @ 0xD
  1027   00000E                     	ds	1
  1028   00000F                     convertReg2ExtendedCANid@CAN_standardLo_ID_hi3bits:
  1029                           	callstack 0
  1030                           
  1031                           ; 1 bytes @ 0xE
  1032   00000F                     	ds	1
  1033   000010                     convertReg2ExtendedCANid@ConvertedID:
  1034                           	callstack 0
  1035                           
  1036                           ; 4 bytes @ 0xF
  1037   000010                     	ds	4
  1038   000014                     CAN_receive@tempCanMsg:
  1039                           	callstack 0
  1040                           
  1041                           ; 2 bytes @ 0x13
  1042   000014                     	ds	2
  1043   000016                     ??_receptionTTCAN:
  1044   000016                     
  1045                           ; 1 bytes @ 0x15
  1046   000016                     	ds	1
  1047   000017                     receptionTTCAN@Message_recu:
  1048                           	callstack 0
  1049                           
  1050                           ; 14 bytes @ 0x16
  1051   000017                     	ds	14
  1052   000025                     ??_INTERRUPT_InterruptManager:
  1053                           
  1054                           ; 1 bytes @ 0x24
  1055   000025                     	ds	6
  1056                           
  1057 ;;
  1058 ;;Main: autosize = 0, tempsize = 4, incstack = 0, save=0
  1059 ;;
  1060 ;; *************** function _main *****************
  1061 ;; Defined at:
  1062 ;;		line 72 in file "main.c"
  1063 ;; Parameters:    Size  Location     Type
  1064 ;;		None
  1065 ;; Auto vars:     Size  Location     Type
  1066 ;;		None
  1067 ;; Return value:  Size  Location     Type
  1068 ;;                  1    wreg      void 
  1069 ;; Registers used:
  1070 ;;		wreg, fsr1l, fsr1h, fsr2l, fsr2h, status,2, status,0, tblptrl, tblptrh, tblptru, prodl, prodh, cstack
  1071 ;; Tracked objects:
  1072 ;;		On entry : 0/0
  1073 ;;		On exit  : 0/0
  1074 ;;		Unchanged: 0/0
  1075 ;; Data sizes:     COMRAM   BANK0   BANK1   BANK2   BANK3   BANK4   BANK5   BANK6   BANK7   BANK8   BANK9  BANK10  BANK1
      +1  BANK12  BANK13  BANK14
  1076 ;;      Params:         0       0       0       0       0       0       0       0       0       0       0       0       
      +0       0       0       0
  1077 ;;      Locals:         0       0       0       0       0       0       0       0       0       0       0       0       
      +0       0       0       0
  1078 ;;      Temps:          0       4       0       0       0       0       0       0       0       0       0       0       
      +0       0       0       0
  1079 ;;      Totals:         0       4       0       0       0       0       0       0       0       0       0       0       
      +0       0       0       0
  1080 ;;Total ram usage:        4 bytes
  1081 ;; Hardware stack levels required when called: 15
  1082 ;; This function calls:
  1083 ;;		_CAN_transmit
  1084 ;;		_ECAN_SetRXB0InterruptHandler
  1085 ;;		_SYSTEM_Initialize
  1086 ;;		_TMR0_SetInterruptHandler
  1087 ;;		_TMR1_SetInterruptHandler
  1088 ;;		_TMR2_SetInterruptHandler
  1089 ;;		_erreur_adc
  1090 ;;		_gestion_lumiere
  1091 ;;		_printf
  1092 ;; This function is called by:
  1093 ;;		Startup code after reset
  1094 ;; This function uses a non-reentrant model
  1095 ;;
  1096                           
  1097                           	psect	text0
  1098   0016BC                     __ptext0:
  1099                           	callstack 0
  1100   0016BC                     _main:
  1101                           	callstack 16
  1102   0016BC                     
  1103                           ;main.c: 74:     SYSTEM_Initialize();
  1104   0016BC  EC69  F016         	call	_SYSTEM_Initialize	;wreg free
  1105   0016C0                     
  1106                           ;main.c: 80:     RXB0CON = 0x60;
  1107   0016C0  0E60               	movlw	96
  1108   0016C2  6E60               	movwf	96,c	;volatile
  1109   0016C4                     
  1110                           ;main.c: 88:     TMR2_SetInterruptHandler(gestion_compteur);
  1111   0016C4  0E4C               	movlw	low _gestion_compteur
  1112   0016C6  0100               	movlb	0	; () banked
  1113   0016C8  6F60               	movwf	TMR2_SetInterruptHandler@InterruptHandler& (0+255),b
  1114   0016CA  0E2E               	movlw	high _gestion_compteur
  1115   0016CC  6F61               	movwf	(TMR2_SetInterruptHandler@InterruptHandler+1)& (0+255),b
  1116   0016CE  ECFE  F016         	call	_TMR2_SetInterruptHandler	;wreg free
  1117   0016D2                     
  1118                           ;main.c: 89:     TMR1_SetInterruptHandler(compteurTT);
  1119   0016D2  0E54               	movlw	low _compteurTT
  1120   0016D4  0100               	movlb	0	; () banked
  1121   0016D6  6F60               	movwf	TMR1_SetInterruptHandler@InterruptHandler& (0+255),b
  1122   0016D8  0E2E               	movlw	high _compteurTT
  1123   0016DA  6F61               	movwf	(TMR1_SetInterruptHandler@InterruptHandler+1)& (0+255),b
  1124   0016DC  EC03  F017         	call	_TMR1_SetInterruptHandler	;wreg free
  1125   0016E0                     
  1126                           ;main.c: 90:     TMR0_SetInterruptHandler(actif);
  1127   0016E0  0EBA               	movlw	low _actif
  1128   0016E2  0100               	movlb	0	; () banked
  1129   0016E4  6F60               	movwf	TMR0_SetInterruptHandler@InterruptHandler& (0+255),b
  1130   0016E6  0E2D               	movlw	high _actif
  1131   0016E8  6F61               	movwf	(TMR0_SetInterruptHandler@InterruptHandler+1)& (0+255),b
  1132   0016EA  EC08  F017         	call	_TMR0_SetInterruptHandler	;wreg free
  1133   0016EE                     
  1134                           ;main.c: 91:     ECAN_SetRXB0InterruptHandler(receptionTTCAN);
  1135   0016EE  0E26               	movlw	low _receptionTTCAN
  1136   0016F0  0100               	movlb	0	; () banked
  1137   0016F2  6F60               	movwf	ECAN_SetRXB0InterruptHandler@handler& (0+255),b
  1138   0016F4  0E28               	movlw	high _receptionTTCAN
  1139   0016F6  6F61               	movwf	(ECAN_SetRXB0InterruptHandler@handler+1)& (0+255),b
  1140   0016F8  EC21  F017         	call	_ECAN_SetRXB0InterruptHandler	;wreg free
  1141   0016FC                     
  1142                           ;main.c: 93:     (INTCONbits.GIE = 1);
  1143   0016FC  8EF2               	bsf	242,7,c	;volatile
  1144   0016FE                     
  1145                           ;main.c: 99:     (INTCONbits.PEIE = 1);
  1146   0016FE  8CF2               	bsf	242,6,c	;volatile
  1147   001700                     
  1148                           ;main.c: 103:     Lux_INT_Tx.frame.id = 0x61;
  1149   001700  0E61               	movlw	97
  1150   001702  0100               	movlb	0	; () banked
  1151   001704  6FE4               	movwf	(_Lux_INT_Tx+1)& (0+255),b
  1152   001706  0E00               	movlw	0
  1153   001708  6FE5               	movwf	(_Lux_INT_Tx+2)& (0+255),b
  1154   00170A  0E00               	movlw	0
  1155   00170C  6FE6               	movwf	(_Lux_INT_Tx+3)& (0+255),b
  1156   00170E  0E00               	movlw	0
  1157   001710  6FE7               	movwf	(_Lux_INT_Tx+4)& (0+255),b
  1158   001712  EFCC  F00B         	goto	l4751
  1159   001716                     l4733:
  1160                           
  1161                           ; BSR set to: 0
  1162                           ;main.c: 111:                 if (compteur >= 10) {
  1163   001716  BFDA               	btfsc	(_compteur+1)& (0+255),7,b
  1164   001718  EF97  F00B         	goto	u2731
  1165   00171C  51DA               	movf	(_compteur+1)& (0+255),w,b
  1166   00171E  E109               	bnz	u2730
  1167   001720  0E0A               	movlw	10
  1168   001722  5DD9               	subwf	_compteur& (0+255),w,b
  1169   001724  A0D8               	btfss	status,0,c
  1170   001726  EF97  F00B         	goto	u2731
  1171   00172A  EF99  F00B         	goto	u2730
  1172   00172E                     u2731:
  1173   00172E  EFA7  F00B         	goto	l4741
  1174   001732                     u2730:
  1175   001732                     
  1176                           ; BSR set to: 0
  1177                           ;main.c: 112:                     erreur_adc();
  1178   001732  ECBF  F012         	call	_erreur_adc	;wreg free
  1179   001736                     
  1180                           ;main.c: 113:                     (CAN_transmit(&Lux_INT_Tx));
  1181   001736  0EE3               	movlw	low _Lux_INT_Tx
  1182   001738  0100               	movlb	0	; () banked
  1183   00173A  6F72               	movwf	CAN_transmit@tempCanMsg& (0+255),b
  1184   00173C  0E00               	movlw	high _Lux_INT_Tx
  1185   00173E  6F73               	movwf	(CAN_transmit@tempCanMsg+1)& (0+255),b
  1186   001740  EC59  F008         	call	_CAN_transmit	;wreg free
  1187   001744                     
  1188                           ;main.c: 114:                     compteur = 0;
  1189   001744  0E00               	movlw	0
  1190   001746  0100               	movlb	0	; () banked
  1191   001748  6FDA               	movwf	(_compteur+1)& (0+255),b
  1192   00174A  0E00               	movlw	0
  1193   00174C  6FD9               	movwf	_compteur& (0+255),b
  1194   00174E                     l4741:
  1195                           
  1196                           ; BSR set to: 0
  1197                           ;main.c: 117:                 if (Lux_INT_Rx.frame.id == 0x61) {
  1198   00174E  0E61               	movlw	97
  1199   001750  19C8               	xorwf	(_Lux_INT_Rx+1)& (0+255),w,b
  1200   001752  11C9               	iorwf	(_Lux_INT_Rx+2)& (0+255),w,b
  1201   001754  11CA               	iorwf	(_Lux_INT_Rx+3)& (0+255),w,b
  1202   001756  11CB               	iorwf	(_Lux_INT_Rx+4)& (0+255),w,b
  1203   001758  A4D8               	btfss	status,2,c
  1204   00175A  EFB1  F00B         	goto	u2741
  1205   00175E  EFB3  F00B         	goto	u2740
  1206   001762                     u2741:
  1207   001762  EFDF  F00B         	goto	l4753
  1208   001766                     u2740:
  1209   001766                     
  1210                           ; BSR set to: 0
  1211                           ;main.c: 118:                     if (Lux_INT_Rx.frame.dlc == 0)
  1212   001766  51CC               	movf	(_Lux_INT_Rx+5)& (0+255),w,b
  1213   001768  A4D8               	btfss	status,2,c
  1214   00176A  EFB9  F00B         	goto	u2751
  1215   00176E  EFBB  F00B         	goto	u2750
  1216   001772                     u2751:
  1217   001772  EFC1  F00B         	goto	l745
  1218   001776                     u2750:
  1219   001776                     
  1220                           ; BSR set to: 0
  1221                           ;main.c: 119:                         printf("\n\rDEMANDE DE VERIFICATION\n\n\r");
  1222   001776  0E7F               	movlw	low STR_1
  1223   001778  6FBB               	movwf	printf@fmt& (0+255),b
  1224   00177A  0E10               	movlw	high STR_1
  1225   00177C  6FBC               	movwf	(printf@fmt+1)& (0+255),b
  1226   00177E  EC2D  F016         	call	_printf	;wreg free
  1227   001782                     l745:
  1228                           
  1229                           ;main.c: 120:                     erreur_adc();
  1230   001782  ECBF  F012         	call	_erreur_adc	;wreg free
  1231   001786                     
  1232                           ;main.c: 121:                     CAN_transmit(&Lux_INT_Tx);
  1233   001786  0EE3               	movlw	low _Lux_INT_Tx
  1234   001788  0100               	movlb	0	; () banked
  1235   00178A  6F72               	movwf	CAN_transmit@tempCanMsg& (0+255),b
  1236   00178C  0E00               	movlw	high _Lux_INT_Tx
  1237   00178E  6F73               	movwf	(CAN_transmit@tempCanMsg+1)& (0+255),b
  1238   001790  EC59  F008         	call	_CAN_transmit	;wreg free
  1239   001794  EFDF  F00B         	goto	l4753
  1240   001798                     l741:
  1241   001798                     l4751:
  1242   001798  C0DF  F0C3         	movff	_compteurTTCAN,??_main
  1243   00179C  C0E0  F0C4         	movff	_compteurTTCAN+1,??_main+1
  1244                           
  1245                           ; Switch on 2 bytes has been partitioned into a top level switch of size 1, and 1 sub-sw
      +                          itches
  1246                           ; Switch size 1, requested type "simple"
  1247                           ; Number of cases is 1, Range of values is 0 to 0
  1248                           ; switch strategies available:
  1249                           ; Name         Instructions Cycles
  1250                           ; simple_byte            4     3 (average)
  1251                           ;	Chosen strategy is simple_byte
  1252   0017A0  0100               	movlb	0	; () banked
  1253   0017A2  51C4               	movf	(??_main+1)& (0+255),w,b
  1254   0017A4  0A00               	xorlw	0	; case 0
  1255   0017A6  B4D8               	btfsc	status,2,c
  1256   0017A8  EFD8  F00B         	goto	l5099
  1257   0017AC  EFDF  F00B         	goto	l4753
  1258   0017B0                     l5099:
  1259                           
  1260                           ; BSR set to: 0
  1261                           ; Switch size 1, requested type "simple"
  1262                           ; Number of cases is 1, Range of values is 16 to 16
  1263                           ; switch strategies available:
  1264                           ; Name         Instructions Cycles
  1265                           ; simple_byte            4     3 (average)
  1266                           ;	Chosen strategy is simple_byte
  1267   0017B0  51C3               	movf	??_main& (0+255),w,b
  1268   0017B2  0A10               	xorlw	16	; case 16
  1269   0017B4  B4D8               	btfsc	status,2,c
  1270   0017B6  EF8B  F00B         	goto	l4733
  1271   0017BA  EFDF  F00B         	goto	l4753
  1272   0017BE                     l4753:
  1273                           
  1274                           ;main.c: 128:         if (!clef) {
  1275   0017BE  0100               	movlb	0	; () banked
  1276   0017C0  51E2               	movf	_clef& (0+255),w,b
  1277   0017C2  A4D8               	btfss	status,2,c
  1278   0017C4  EFE6  F00B         	goto	u2761
  1279   0017C8  EFE8  F00B         	goto	u2760
  1280   0017CC                     u2761:
  1281   0017CC  EF3E  F00C         	goto	l4775
  1282   0017D0                     u2760:
  1283   0017D0  EF16  F00C         	goto	l4773
  1284   0017D4                     l4757:
  1285                           
  1286                           ; BSR set to: 0
  1287                           ;main.c: 134:                     if (Lux_INT_Rx.frame.data0 == 0x00) {
  1288   0017D4  51CD               	movf	(_Lux_INT_Rx+6)& (0+255),w,b
  1289   0017D6  A4D8               	btfss	status,2,c
  1290   0017D8  EFF0  F00B         	goto	u2771
  1291   0017DC  EFF2  F00B         	goto	u2770
  1292   0017E0                     u2771:
  1293   0017E0  EFF6  F00B         	goto	l4761
  1294   0017E4                     u2770:
  1295   0017E4                     
  1296                           ; BSR set to: 0
  1297                           ;main.c: 135:                         porte_UnLock = 1;
  1298   0017E4  0E01               	movlw	1
  1299   0017E6  6FF2               	movwf	_porte_UnLock& (0+255),b
  1300                           
  1301                           ;main.c: 136:                     } else {
  1302   0017E8  EFCC  F00B         	goto	l4751
  1303   0017EC                     l4761:
  1304                           
  1305                           ; BSR set to: 0
  1306                           ;main.c: 137:                         porte_UnLock = 0;
  1307   0017EC  0E00               	movlw	0
  1308   0017EE  6FF2               	movwf	_porte_UnLock& (0+255),b
  1309   0017F0  EFCC  F00B         	goto	l4751
  1310   0017F4                     l4763:
  1311                           
  1312                           ; BSR set to: 0
  1313                           ;main.c: 143:                     if ((Lux_INT_Rx.frame.data0 == 0x00) && porte_UnLock) 
      +                          {
  1314   0017F4  51CD               	movf	(_Lux_INT_Rx+6)& (0+255),w,b
  1315   0017F6  A4D8               	btfss	status,2,c
  1316   0017F8  EF00  F00C         	goto	u2781
  1317   0017FC  EF02  F00C         	goto	u2780
  1318   001800                     u2781:
  1319   001800  EF12  F00C         	goto	l4769
  1320   001804                     u2780:
  1321   001804                     
  1322                           ; BSR set to: 0
  1323   001804  51F2               	movf	_porte_UnLock& (0+255),w,b
  1324   001806  B4D8               	btfsc	status,2,c
  1325   001808  EF08  F00C         	goto	u2791
  1326   00180C  EF0A  F00C         	goto	u2790
  1327   001810                     u2791:
  1328   001810  EF12  F00C         	goto	l4769
  1329   001814                     u2790:
  1330   001814                     
  1331                           ; BSR set to: 0
  1332   001814  8489               	bsf	137,2,c	;volatile
  1333   001816                     
  1334                           ; BSR set to: 0
  1335   001816  9689               	bcf	137,3,c	;volatile
  1336   001818                     
  1337                           ; BSR set to: 0
  1338                           ;main.c: 146:                         delay2S = 1;
  1339   001818  0E01               	movlw	1
  1340   00181A  6FF1               	movwf	_delay2S& (0+255),b
  1341                           
  1342                           ;main.c: 147:                         clef = 0;
  1343   00181C  0E00               	movlw	0
  1344   00181E  6FE2               	movwf	_clef& (0+255),b
  1345                           
  1346                           ;main.c: 148:                     } else {
  1347   001820  EFCC  F00B         	goto	l4751
  1348   001824                     l4769:
  1349                           
  1350                           ; BSR set to: 0
  1351                           ;main.c: 149:                         clef = 1;
  1352   001824  0E01               	movlw	1
  1353   001826  6FE2               	movwf	_clef& (0+255),b
  1354   001828  EFCC  F00B         	goto	l4751
  1355   00182C                     l4773:
  1356                           
  1357                           ; BSR set to: 0
  1358   00182C  C0C8  F0C3         	movff	_Lux_INT_Rx+1,??_main
  1359   001830  C0C9  F0C4         	movff	_Lux_INT_Rx+2,??_main+1
  1360   001834  C0CA  F0C5         	movff	_Lux_INT_Rx+3,??_main+2
  1361   001838  C0CB  F0C6         	movff	_Lux_INT_Rx+4,??_main+3
  1362                           
  1363                           ; Switch on 2 bytes has been partitioned into a top level switch of size 1, and 2 sub-sw
      +                          itches
  1364                           ; Switch size 1, requested type "simple"
  1365                           ; Number of cases is 1, Range of values is 0 to 0
  1366                           ; switch strategies available:
  1367                           ; Name         Instructions Cycles
  1368                           ; simple_byte            4     3 (average)
  1369                           ;	Chosen strategy is simple_byte
  1370   00183C  51C6               	movf	(??_main+3)& (0+255),w,b
  1371   00183E  0A00               	xorlw	0	; case 0
  1372   001840  B4D8               	btfsc	status,2,c
  1373   001842  EF37  F00C         	goto	l5103
  1374   001846  EFCC  F00B         	goto	l4751
  1375   00184A                     l5101:
  1376                           
  1377                           ; BSR set to: 0
  1378                           ; Switch on 2 bytes has been partitioned into a top level switch of size 1, and 1 sub-sw
      +                          itches
  1379                           ; Switch size 1, requested type "simple"
  1380                           ; Number of cases is 1, Range of values is 0 to 0
  1381                           ; switch strategies available:
  1382                           ; Name         Instructions Cycles
  1383                           ; simple_byte            4     3 (average)
  1384                           ;	Chosen strategy is simple_byte
  1385   00184A  51C4               	movf	(??_main+1)& (0+255),w,b
  1386   00184C  0A00               	xorlw	0	; case 0
  1387   00184E  B4D8               	btfsc	status,2,c
  1388   001850  EF2C  F00C         	goto	l5105
  1389   001854  EFCC  F00B         	goto	l4751
  1390   001858                     l5105:
  1391                           
  1392                           ; BSR set to: 0
  1393                           ; Switch size 1, requested type "simple"
  1394                           ; Number of cases is 2, Range of values is 18 to 19
  1395                           ; switch strategies available:
  1396                           ; Name         Instructions Cycles
  1397                           ; simple_byte            7     4 (average)
  1398                           ;	Chosen strategy is simple_byte
  1399   001858  51C3               	movf	??_main& (0+255),w,b
  1400   00185A  0A12               	xorlw	18	; case 18
  1401   00185C  B4D8               	btfsc	status,2,c
  1402   00185E  EFFA  F00B         	goto	l4763
  1403   001862  0A01               	xorlw	1	; case 19
  1404   001864  B4D8               	btfsc	status,2,c
  1405   001866  EFEA  F00B         	goto	l4757
  1406   00186A  EFCC  F00B         	goto	l4751
  1407   00186E                     l5103:
  1408                           
  1409                           ; BSR set to: 0
  1410                           ; Switch size 1, requested type "simple"
  1411                           ; Number of cases is 1, Range of values is 0 to 0
  1412                           ; switch strategies available:
  1413                           ; Name         Instructions Cycles
  1414                           ; simple_byte            4     3 (average)
  1415                           ;	Chosen strategy is simple_byte
  1416   00186E  51C5               	movf	(??_main+2)& (0+255),w,b
  1417   001870  0A00               	xorlw	0	; case 0
  1418   001872  B4D8               	btfsc	status,2,c
  1419   001874  EF25  F00C         	goto	l5101
  1420   001878  EFCC  F00B         	goto	l4751
  1421   00187C                     l4775:
  1422                           
  1423                           ; BSR set to: 0
  1424                           ;main.c: 155:             if (delay2S) {
  1425   00187C  51F1               	movf	_delay2S& (0+255),w,b
  1426   00187E  B4D8               	btfsc	status,2,c
  1427   001880  EF44  F00C         	goto	u2801
  1428   001884  EF46  F00C         	goto	u2800
  1429   001888                     u2801:
  1430   001888  EF6A  F00C         	goto	l4795
  1431   00188C                     u2800:
  1432   00188C                     
  1433                           ; BSR set to: 0
  1434                           ;main.c: 156:                 _delay((unsigned long)((2000)*(8000000/4000.0)));
  1435   00188C  0E15               	movlw	21
  1436   00188E  0100               	movlb	0	; () banked
  1437   001890  6FC4               	movwf	(??_main+1)& (0+255),b
  1438   001892  0E4B               	movlw	75
  1439   001894  6FC3               	movwf	??_main& (0+255),b
  1440   001896  0EBE               	movlw	190
  1441   001898                     u2827:
  1442   001898  2EE8               	decfsz	wreg,f,c
  1443   00189A  D7FE               	bra	u2827
  1444   00189C  2FC3               	decfsz	??_main& (0+255),f,b
  1445   00189E  D7FC               	bra	u2827
  1446   0018A0  2FC4               	decfsz	(??_main+1)& (0+255),f,b
  1447   0018A2  D7FA               	bra	u2827
  1448   0018A4  F000               	nop	
  1449   0018A6                     
  1450                           ;main.c: 157:                 delay2S = 0;
  1451   0018A6  0E00               	movlw	0
  1452   0018A8  0100               	movlb	0	; () banked
  1453   0018AA  6FF1               	movwf	_delay2S& (0+255),b
  1454   0018AC                     
  1455                           ; BSR set to: 0
  1456   0018AC  9489               	bcf	137,2,c	;volatile
  1457   0018AE                     
  1458                           ; BSR set to: 0
  1459   0018AE  9689               	bcf	137,3,c	;volatile
  1460   0018B0  EF6A  F00C         	goto	l4795
  1461   0018B4                     l4785:
  1462                           
  1463                           ; BSR set to: 0
  1464                           ;main.c: 165:                     if (Lux_INT_Rx.frame.data0 == 0x00) {
  1465   0018B4  51CD               	movf	(_Lux_INT_Rx+6)& (0+255),w,b
  1466   0018B6  A4D8               	btfss	status,2,c
  1467   0018B8  EF60  F00C         	goto	u2811
  1468   0018BC  EF62  F00C         	goto	u2810
  1469   0018C0                     u2811:
  1470   0018C0  EF12  F00C         	goto	l4769
  1471   0018C4                     u2810:
  1472   0018C4                     
  1473                           ; BSR set to: 0
  1474                           ;main.c: 166:                         clef = 0;
  1475   0018C4  0E00               	movlw	0
  1476   0018C6  6FE2               	movwf	_clef& (0+255),b
  1477                           
  1478                           ;main.c: 167:                     } else {
  1479   0018C8  EFCC  F00B         	goto	l4751
  1480   0018CC                     l4791:
  1481                           
  1482                           ; BSR set to: 0
  1483                           ;main.c: 173:                     gestion_lumiere();
  1484   0018CC  EC49  F014         	call	_gestion_lumiere	;wreg free
  1485                           
  1486                           ;main.c: 174:                     break;
  1487   0018D0  EFCC  F00B         	goto	l4751
  1488   0018D4                     l4795:
  1489                           
  1490                           ; BSR set to: 0
  1491   0018D4  C0C8  F0C3         	movff	_Lux_INT_Rx+1,??_main
  1492   0018D8  C0C9  F0C4         	movff	_Lux_INT_Rx+2,??_main+1
  1493   0018DC  C0CA  F0C5         	movff	_Lux_INT_Rx+3,??_main+2
  1494   0018E0  C0CB  F0C6         	movff	_Lux_INT_Rx+4,??_main+3
  1495                           
  1496                           ; Switch on 2 bytes has been partitioned into a top level switch of size 1, and 2 sub-sw
      +                          itches
  1497                           ; Switch size 1, requested type "simple"
  1498                           ; Number of cases is 1, Range of values is 0 to 0
  1499                           ; switch strategies available:
  1500                           ; Name         Instructions Cycles
  1501                           ; simple_byte            4     3 (average)
  1502                           ;	Chosen strategy is simple_byte
  1503   0018E4  51C6               	movf	(??_main+3)& (0+255),w,b
  1504   0018E6  0A00               	xorlw	0	; case 0
  1505   0018E8  B4D8               	btfsc	status,2,c
  1506   0018EA  EF8B  F00C         	goto	l5109
  1507   0018EE  EFCC  F00B         	goto	l741
  1508   0018F2                     l5107:
  1509                           
  1510                           ; BSR set to: 0
  1511                           ; Switch on 2 bytes has been partitioned into a top level switch of size 1, and 1 sub-sw
      +                          itches
  1512                           ; Switch size 1, requested type "simple"
  1513                           ; Number of cases is 1, Range of values is 0 to 0
  1514                           ; switch strategies available:
  1515                           ; Name         Instructions Cycles
  1516                           ; simple_byte            4     3 (average)
  1517                           ;	Chosen strategy is simple_byte
  1518   0018F2  51C4               	movf	(??_main+1)& (0+255),w,b
  1519   0018F4  0A00               	xorlw	0	; case 0
  1520   0018F6  B4D8               	btfsc	status,2,c
  1521   0018F8  EF80  F00C         	goto	l5111
  1522   0018FC  EFCC  F00B         	goto	l741
  1523   001900                     l5111:
  1524                           
  1525                           ; BSR set to: 0
  1526                           ; Switch size 1, requested type "simple"
  1527                           ; Number of cases is 2, Range of values is 18 to 83
  1528                           ; switch strategies available:
  1529                           ; Name         Instructions Cycles
  1530                           ; simple_byte            7     4 (average)
  1531                           ;	Chosen strategy is simple_byte
  1532   001900  51C3               	movf	??_main& (0+255),w,b
  1533   001902  0A12               	xorlw	18	; case 18
  1534   001904  B4D8               	btfsc	status,2,c
  1535   001906  EF5A  F00C         	goto	l4785
  1536   00190A  0A41               	xorlw	65	; case 83
  1537   00190C  B4D8               	btfsc	status,2,c
  1538   00190E  EF66  F00C         	goto	l4791
  1539   001912  EFCC  F00B         	goto	l741
  1540   001916                     l5109:
  1541                           
  1542                           ; BSR set to: 0
  1543                           ; Switch size 1, requested type "simple"
  1544                           ; Number of cases is 1, Range of values is 0 to 0
  1545                           ; switch strategies available:
  1546                           ; Name         Instructions Cycles
  1547                           ; simple_byte            4     3 (average)
  1548                           ;	Chosen strategy is simple_byte
  1549   001916  51C5               	movf	(??_main+2)& (0+255),w,b
  1550   001918  0A00               	xorlw	0	; case 0
  1551   00191A  B4D8               	btfsc	status,2,c
  1552   00191C  EF79  F00C         	goto	l5107
  1553   001920  EFCC  F00B         	goto	l741
  1554   001924  EF80  F000         	goto	start
  1555   001928                     __end_of_main:
  1556                           	callstack 0
  1557                           
  1558 ;; *************** function _gestion_lumiere *****************
  1559 ;; Defined at:
  1560 ;;		line 180 in file "main.c"
  1561 ;; Parameters:    Size  Location     Type
  1562 ;;		None
  1563 ;; Auto vars:     Size  Location     Type
  1564 ;;		None
  1565 ;; Return value:  Size  Location     Type
  1566 ;;                  1    wreg      void 
  1567 ;; Registers used:
  1568 ;;		wreg, status,2, status,0
  1569 ;; Tracked objects:
  1570 ;;		On entry : 0/0
  1571 ;;		On exit  : 0/0
  1572 ;;		Unchanged: 0/0
  1573 ;; Data sizes:     COMRAM   BANK0   BANK1   BANK2   BANK3   BANK4   BANK5   BANK6   BANK7   BANK8   BANK9  BANK10  BANK1
      +1  BANK12  BANK13  BANK14
  1574 ;;      Params:         0       0       0       0       0       0       0       0       0       0       0       0       
      +0       0       0       0
  1575 ;;      Locals:         0       0       0       0       0       0       0       0       0       0       0       0       
      +0       0       0       0
  1576 ;;      Temps:          0       2       0       0       0       0       0       0       0       0       0       0       
      +0       0       0       0
  1577 ;;      Totals:         0       2       0       0       0       0       0       0       0       0       0       0       
      +0       0       0       0
  1578 ;;Total ram usage:        2 bytes
  1579 ;; Hardware stack levels used: 1
  1580 ;; Hardware stack levels required when called: 5
  1581 ;; This function calls:
  1582 ;;		Nothing
  1583 ;; This function is called by:
  1584 ;;		_main
  1585 ;; This function uses a non-reentrant model
  1586 ;;
  1587                           
  1588                           	psect	text1
  1589   002892                     __ptext1:
  1590                           	callstack 0
  1591   002892                     _gestion_lumiere:
  1592                           	callstack 25
  1593   002892                     
  1594                           ;main.c: 181:     {;main.c: 182:         switch (Lux_INT_Rx.frame.data0) {
  1595   002892  EF5B  F014         	goto	l4707
  1596   002896                     l779:
  1597                           
  1598                           ; BSR set to: 0
  1599   002896  9489               	bcf	137,2,c	;volatile
  1600   002898                     
  1601                           ; BSR set to: 0
  1602   002898  9689               	bcf	137,3,c	;volatile
  1603   00289A  EF79  F014         	goto	l799
  1604   00289E                     l785:
  1605                           
  1606                           ; BSR set to: 0
  1607   00289E  8489               	bsf	137,2,c	;volatile
  1608   0028A0                     
  1609                           ; BSR set to: 0
  1610   0028A0  9689               	bcf	137,3,c	;volatile
  1611   0028A2  EF79  F014         	goto	l799
  1612   0028A6                     l790:
  1613                           
  1614                           ; BSR set to: 0
  1615   0028A6  9489               	bcf	137,2,c	;volatile
  1616   0028A8                     
  1617                           ; BSR set to: 0
  1618   0028A8  8689               	bsf	137,3,c	;volatile
  1619   0028AA  EF79  F014         	goto	l799
  1620   0028AE                     l795:
  1621                           
  1622                           ; BSR set to: 0
  1623   0028AE  8489               	bsf	137,2,c	;volatile
  1624   0028B0                     
  1625                           ; BSR set to: 0
  1626   0028B0  8689               	bsf	137,3,c	;volatile
  1627   0028B2  EF79  F014         	goto	l799
  1628   0028B6                     l4707:
  1629   0028B6  0100               	movlb	0	; () banked
  1630   0028B8  51CD               	movf	(_Lux_INT_Rx+6)& (0+255),w,b
  1631   0028BA  6F60               	movwf	??_gestion_lumiere& (0+255),b
  1632   0028BC  6B61               	clrf	(??_gestion_lumiere+1)& (0+255),b
  1633                           
  1634                           ; Switch on 2 bytes has been partitioned into a top level switch of size 1, and 1 sub-sw
      +                          itches
  1635                           ; Switch size 1, requested type "simple"
  1636                           ; Number of cases is 1, Range of values is 0 to 0
  1637                           ; switch strategies available:
  1638                           ; Name         Instructions Cycles
  1639                           ; simple_byte            4     3 (average)
  1640                           ;	Chosen strategy is simple_byte
  1641   0028BE  5161               	movf	(??_gestion_lumiere+1)& (0+255),w,b
  1642   0028C0  0A00               	xorlw	0	; case 0
  1643   0028C2  B4D8               	btfsc	status,2,c
  1644   0028C4  EF66  F014         	goto	l5113
  1645   0028C8  EF79  F014         	goto	l799
  1646   0028CC                     l5113:
  1647                           
  1648                           ; BSR set to: 0
  1649                           ; Switch size 1, requested type "simple"
  1650                           ; Number of cases is 4, Range of values is 0 to 3
  1651                           ; switch strategies available:
  1652                           ; Name         Instructions Cycles
  1653                           ; simple_byte           13     7 (average)
  1654                           ;	Chosen strategy is simple_byte
  1655   0028CC  5160               	movf	??_gestion_lumiere& (0+255),w,b
  1656   0028CE  0A00               	xorlw	0	; case 0
  1657   0028D0  B4D8               	btfsc	status,2,c
  1658   0028D2  EF4B  F014         	goto	l779
  1659   0028D6  0A01               	xorlw	1	; case 1
  1660   0028D8  B4D8               	btfsc	status,2,c
  1661   0028DA  EF4F  F014         	goto	l785
  1662   0028DE  0A03               	xorlw	3	; case 2
  1663   0028E0  B4D8               	btfsc	status,2,c
  1664   0028E2  EF53  F014         	goto	l790
  1665   0028E6  0A01               	xorlw	1	; case 3
  1666   0028E8  B4D8               	btfsc	status,2,c
  1667   0028EA  EF57  F014         	goto	l795
  1668   0028EE  EF79  F014         	goto	l799
  1669   0028F2                     l799:
  1670                           
  1671                           ; BSR set to: 0
  1672   0028F2  0012               	return		;funcret
  1673   0028F4                     __end_of_gestion_lumiere:
  1674                           	callstack 0
  1675                           
  1676 ;; *************** function _erreur_adc *****************
  1677 ;; Defined at:
  1678 ;;		line 204 in file "main.c"
  1679 ;; Parameters:    Size  Location     Type
  1680 ;;		None
  1681 ;; Auto vars:     Size  Location     Type
  1682 ;;		None
  1683 ;; Return value:  Size  Location     Type
  1684 ;;                  1    wreg      void 
  1685 ;; Registers used:
  1686 ;;		wreg, fsr1l, fsr1h, fsr2l, fsr2h, status,2, status,0, tblptrl, tblptrh, tblptru, prodl, prodh, cstack
  1687 ;; Tracked objects:
  1688 ;;		On entry : 0/0
  1689 ;;		On exit  : 0/0
  1690 ;;		Unchanged: 0/0
  1691 ;; Data sizes:     COMRAM   BANK0   BANK1   BANK2   BANK3   BANK4   BANK5   BANK6   BANK7   BANK8   BANK9  BANK10  BANK1
      +1  BANK12  BANK13  BANK14
  1692 ;;      Params:         0       0       0       0       0       0       0       0       0       0       0       0       
      +0       0       0       0
  1693 ;;      Locals:         0       0       0       0       0       0       0       0       0       0       0       0       
      +0       0       0       0
  1694 ;;      Temps:          0       0       0       0       0       0       0       0       0       0       0       0       
      +0       0       0       0
  1695 ;;      Totals:         0       0       0       0       0       0       0       0       0       0       0       0       
      +0       0       0       0
  1696 ;;Total ram usage:        0 bytes
  1697 ;; Hardware stack levels used: 1
  1698 ;; Hardware stack levels required when called: 14
  1699 ;; This function calls:
  1700 ;;		_ADC_GetConversion
  1701 ;;		_printf
  1702 ;; This function is called by:
  1703 ;;		_main
  1704 ;; This function uses a non-reentrant model
  1705 ;;
  1706                           
  1707                           	psect	text2
  1708   00257E                     __ptext2:
  1709                           	callstack 0
  1710   00257E                     _erreur_adc:
  1711                           	callstack 16
  1712   00257E  8489               	bsf	137,2,c	;volatile
  1713   002580                     
  1714                           ;main.c: 206:     erreur_0 = ADC_GetConversion(0);
  1715   002580  0E00               	movlw	0
  1716   002582  EC53  F015         	call	_ADC_GetConversion
  1717   002586  C060  F0DD         	movff	?_ADC_GetConversion,_erreur_0
  1718   00258A  C061  F0DE         	movff	?_ADC_GetConversion+1,_erreur_0+1
  1719   00258E  9489               	bcf	137,2,c	;volatile
  1720   002590  8689               	bsf	137,3,c	;volatile
  1721   002592                     
  1722                           ;main.c: 210:     erreur_1 = ADC_GetConversion(1);
  1723   002592  0E01               	movlw	1
  1724   002594  EC53  F015         	call	_ADC_GetConversion
  1725   002598  C060  F0DB         	movff	?_ADC_GetConversion,_erreur_1
  1726   00259C  C061  F0DC         	movff	?_ADC_GetConversion+1,_erreur_1+1
  1727   0025A0  9689               	bcf	137,3,c	;volatile
  1728   0025A2                     
  1729                           ;main.c: 213:     printf("Erreurs: %4d %4d\r\n\n", erreur_0, erreur_1);
  1730   0025A2  0E9C               	movlw	low STR_2
  1731   0025A4  0100               	movlb	0	; () banked
  1732   0025A6  6FBB               	movwf	printf@fmt& (0+255),b
  1733   0025A8  0E10               	movlw	high STR_2
  1734   0025AA  6FBC               	movwf	(printf@fmt+1)& (0+255),b
  1735   0025AC  C0DD  F0BD         	movff	_erreur_0,?_printf+2
  1736   0025B0  C0DE  F0BE         	movff	_erreur_0+1,?_printf+3
  1737   0025B4  C0DB  F0BF         	movff	_erreur_1,?_printf+4
  1738   0025B8  C0DC  F0C0         	movff	_erreur_1+1,?_printf+5
  1739   0025BC  EC2D  F016         	call	_printf	;wreg free
  1740   0025C0                     
  1741                           ;main.c: 215:     if (erreur_0 <= 1638 || erreur_0 >= 1966)
  1742   0025C0  0E67               	movlw	103
  1743   0025C2  0100               	movlb	0	; () banked
  1744   0025C4  5DDD               	subwf	_erreur_0& (0+255),w,b
  1745   0025C6  0E06               	movlw	6
  1746   0025C8  59DE               	subwfb	(_erreur_0+1)& (0+255),w,b
  1747   0025CA  A0D8               	btfss	status,0,c
  1748   0025CC  EFEA  F012         	goto	u2691
  1749   0025D0  EFEC  F012         	goto	u2690
  1750   0025D4                     u2691:
  1751   0025D4  EFF7  F012         	goto	l4683
  1752   0025D8                     u2690:
  1753   0025D8                     
  1754                           ; BSR set to: 0
  1755   0025D8  0EAE               	movlw	174
  1756   0025DA  5DDD               	subwf	_erreur_0& (0+255),w,b
  1757   0025DC  0E07               	movlw	7
  1758   0025DE  59DE               	subwfb	(_erreur_0+1)& (0+255),w,b
  1759   0025E0  A0D8               	btfss	status,0,c
  1760   0025E2  EFF5  F012         	goto	u2701
  1761   0025E6  EFF7  F012         	goto	u2700
  1762   0025EA                     u2701:
  1763   0025EA  EF01  F013         	goto	l4687
  1764   0025EE                     u2700:
  1765   0025EE                     l4683:
  1766                           
  1767                           ; BSR set to: 0
  1768                           ;main.c: 216:     {;main.c: 217:         Lux_INT_Tx.frame.data0 = 0x01;
  1769   0025EE  0E01               	movlw	1
  1770   0025F0  6FE9               	movwf	(_Lux_INT_Tx+6)& (0+255),b
  1771   0025F2                     
  1772                           ; BSR set to: 0
  1773                           ;main.c: 218:         printf("Etat lumiere avant : ERREUR \n\r");
  1774   0025F2  0E42               	movlw	low STR_3
  1775   0025F4  6FBB               	movwf	printf@fmt& (0+255),b
  1776   0025F6  0E10               	movlw	high STR_3
  1777   0025F8  6FBC               	movwf	(printf@fmt+1)& (0+255),b
  1778   0025FA  EC2D  F016         	call	_printf	;wreg free
  1779                           
  1780                           ;main.c: 219:     } else {
  1781   0025FE  EF09  F013         	goto	l4691
  1782   002602                     l4687:
  1783                           
  1784                           ; BSR set to: 0
  1785                           ;main.c: 220:         Lux_INT_Tx.frame.data0 = 0x00;
  1786   002602  0E00               	movlw	0
  1787   002604  6FE9               	movwf	(_Lux_INT_Tx+6)& (0+255),b
  1788   002606                     
  1789                           ; BSR set to: 0
  1790                           ;main.c: 221:         printf("Etat lumiere avant: ACTIVE \n\r");
  1791   002606  0E61               	movlw	low STR_4
  1792   002608  6FBB               	movwf	printf@fmt& (0+255),b
  1793   00260A  0E10               	movlw	high STR_4
  1794   00260C  6FBC               	movwf	(printf@fmt+1)& (0+255),b
  1795   00260E  EC2D  F016         	call	_printf	;wreg free
  1796   002612                     l4691:
  1797                           
  1798                           ;main.c: 224:     if (erreur_1 < 1638 || erreur_1 > 1966)
  1799   002612  0E66               	movlw	102
  1800   002614  0100               	movlb	0	; () banked
  1801   002616  5DDB               	subwf	_erreur_1& (0+255),w,b
  1802   002618  0E06               	movlw	6
  1803   00261A  59DC               	subwfb	(_erreur_1+1)& (0+255),w,b
  1804   00261C  A0D8               	btfss	status,0,c
  1805   00261E  EF13  F013         	goto	u2711
  1806   002622  EF15  F013         	goto	u2710
  1807   002626                     u2711:
  1808   002626  EF20  F013         	goto	l4695
  1809   00262A                     u2710:
  1810   00262A                     
  1811                           ; BSR set to: 0
  1812   00262A  0EAF               	movlw	175
  1813   00262C  5DDB               	subwf	_erreur_1& (0+255),w,b
  1814   00262E  0E07               	movlw	7
  1815   002630  59DC               	subwfb	(_erreur_1+1)& (0+255),w,b
  1816   002632  A0D8               	btfss	status,0,c
  1817   002634  EF1E  F013         	goto	u2721
  1818   002638  EF20  F013         	goto	u2720
  1819   00263C                     u2721:
  1820   00263C  EF2A  F013         	goto	l4699
  1821   002640                     u2720:
  1822   002640                     l4695:
  1823                           
  1824                           ; BSR set to: 0
  1825                           ;main.c: 225:     {;main.c: 226:         Lux_INT_Tx.frame.data1 = 0x01;
  1826   002640  0E01               	movlw	1
  1827   002642  6FEA               	movwf	(_Lux_INT_Tx+7)& (0+255),b
  1828   002644                     
  1829                           ; BSR set to: 0
  1830                           ;main.c: 227:         printf("Etat lumiere arriere: ERREUR \n\r");
  1831   002644  0E22               	movlw	low STR_5
  1832   002646  6FBB               	movwf	printf@fmt& (0+255),b
  1833   002648  0E10               	movlw	high STR_5
  1834   00264A  6FBC               	movwf	(printf@fmt+1)& (0+255),b
  1835   00264C  EC2D  F016         	call	_printf	;wreg free
  1836                           
  1837                           ;main.c: 228:     } else {
  1838   002650  EF32  F013         	goto	l818
  1839   002654                     l4699:
  1840                           
  1841                           ; BSR set to: 0
  1842                           ;main.c: 229:         Lux_INT_Tx.frame.data1 = 0x00;
  1843   002654  0E00               	movlw	0
  1844   002656  6FEA               	movwf	(_Lux_INT_Tx+7)& (0+255),b
  1845   002658                     
  1846                           ; BSR set to: 0
  1847                           ;main.c: 230:         printf("Etat lumiere arriere: ACTIVE \n\n\r");
  1848   002658  0E01               	movlw	low STR_6
  1849   00265A  6FBB               	movwf	printf@fmt& (0+255),b
  1850   00265C  0E10               	movlw	high STR_6
  1851   00265E  6FBC               	movwf	(printf@fmt+1)& (0+255),b
  1852   002660  EC2D  F016         	call	_printf	;wreg free
  1853   002664                     l818:
  1854   002664  0012               	return		;funcret
  1855   002666                     __end_of_erreur_adc:
  1856                           	callstack 0
  1857                           
  1858 ;; *************** function _printf *****************
  1859 ;; Defined at:
  1860 ;;		line 5 in file "C:\Program Files\Microchip\xc8\v2.40\pic\sources\c99\common\printf.c"
  1861 ;; Parameters:    Size  Location     Type
  1862 ;;  fmt             2   91[BANK0 ] PTR const unsigned char 
  1863 ;;		 -> STR_6(33), STR_5(32), STR_4(30), STR_3(31), 
  1864 ;;		 -> STR_2(20), STR_1(29), 
  1865 ;; Auto vars:     Size  Location     Type
  1866 ;;  ap              2   97[BANK0 ] PTR void [1]
  1867 ;;		 -> ?_printf(2), 
  1868 ;;  ret             2    0        int 
  1869 ;; Return value:  Size  Location     Type
  1870 ;;                  2   91[BANK0 ] int 
  1871 ;; Registers used:
  1872 ;;		wreg, fsr1l, fsr1h, fsr2l, fsr2h, status,2, status,0, tblptrl, tblptrh, tblptru, prodl, prodh, cstack
  1873 ;; Tracked objects:
  1874 ;;		On entry : 0/0
  1875 ;;		On exit  : 0/0
  1876 ;;		Unchanged: 0/0
  1877 ;; Data sizes:     COMRAM   BANK0   BANK1   BANK2   BANK3   BANK4   BANK5   BANK6   BANK7   BANK8   BANK9  BANK10  BANK1
      +1  BANK12  BANK13  BANK14
  1878 ;;      Params:         0       6       0       0       0       0       0       0       0       0       0       0       
      +0       0       0       0
  1879 ;;      Locals:         0       2       0       0       0       0       0       0       0       0       0       0       
      +0       0       0       0
  1880 ;;      Temps:          0       0       0       0       0       0       0       0       0       0       0       0       
      +0       0       0       0
  1881 ;;      Totals:         0       8       0       0       0       0       0       0       0       0       0       0       
      +0       0       0       0
  1882 ;;Total ram usage:        8 bytes
  1883 ;; Hardware stack levels used: 1
  1884 ;; Hardware stack levels required when called: 13
  1885 ;; This function calls:
  1886 ;;		_vfprintf
  1887 ;; This function is called by:
  1888 ;;		_main
  1889 ;;		_erreur_adc
  1890 ;; This function uses a non-reentrant model
  1891 ;;
  1892                           
  1893                           	psect	text3
  1894   002C5A                     __ptext3:
  1895                           	callstack 0
  1896   002C5A                     _printf:
  1897                           	callstack 17
  1898   002C5A  0EBD               	movlw	low (?_printf+2)
  1899   002C5C  0100               	movlb	0	; () banked
  1900   002C5E  6FC1               	movwf	printf@ap& (0+255),b
  1901   002C60  0E00               	movlw	high (?_printf+2)
  1902   002C62  6FC2               	movwf	(printf@ap+1)& (0+255),b
  1903   002C64                     
  1904                           ; BSR set to: 0
  1905   002C64  0E00               	movlw	0
  1906   002C66  6FB3               	movwf	vfprintf@fp& (0+255),b
  1907   002C68  0E00               	movlw	0
  1908   002C6A  6FB4               	movwf	(vfprintf@fp+1)& (0+255),b
  1909   002C6C  C0BB  F0B5         	movff	printf@fmt,vfprintf@fmt
  1910   002C70  C0BC  F0B6         	movff	printf@fmt+1,vfprintf@fmt+1
  1911   002C74  0EC1               	movlw	low printf@ap
  1912   002C76  6FB7               	movwf	vfprintf@ap& (0+255),b
  1913   002C78  0E00               	movlw	high printf@ap
  1914   002C7A  6FB8               	movwf	(vfprintf@ap+1)& (0+255),b
  1915   002C7C  EC7A  F014         	call	_vfprintf	;wreg free
  1916   002C80  0012               	return		;funcret
  1917   002C82                     __end_of_printf:
  1918                           	callstack 0
  1919                           
  1920 ;; *************** function _vfprintf *****************
  1921 ;; Defined at:
  1922 ;;		line 1520 in file "C:\Program Files\Microchip\xc8\v2.40\pic\sources\c99\common\doprnt.c"
  1923 ;; Parameters:    Size  Location     Type
  1924 ;;  fp              2   83[BANK0 ] PTR struct _IO_FILE
  1925 ;;		 -> NULL(0), 
  1926 ;;  fmt             2   85[BANK0 ] PTR const unsigned char 
  1927 ;;		 -> STR_6(33), STR_5(32), STR_4(30), STR_3(31), 
  1928 ;;		 -> STR_2(20), STR_1(29), 
  1929 ;;  ap              2   87[BANK0 ] PTR PTR void 
  1930 ;;		 -> printf@ap(2), 
  1931 ;; Auto vars:     Size  Location     Type
  1932 ;;  cfmt            2   89[BANK0 ] PTR unsigned char 
  1933 ;;		 -> STR_6(33), STR_5(32), STR_4(30), STR_3(31), 
  1934 ;;		 -> STR_2(20), STR_1(29), 
  1935 ;; Return value:  Size  Location     Type
  1936 ;;                  2   83[BANK0 ] int 
  1937 ;; Registers used:
  1938 ;;		wreg, fsr1l, fsr1h, fsr2l, fsr2h, status,2, status,0, tblptrl, tblptrh, tblptru, prodl, prodh, cstack
  1939 ;; Tracked objects:
  1940 ;;		On entry : 0/0
  1941 ;;		On exit  : 0/0
  1942 ;;		Unchanged: 0/0
  1943 ;; Data sizes:     COMRAM   BANK0   BANK1   BANK2   BANK3   BANK4   BANK5   BANK6   BANK7   BANK8   BANK9  BANK10  BANK1
      +1  BANK12  BANK13  BANK14
  1944 ;;      Params:         0       6       0       0       0       0       0       0       0       0       0       0       
      +0       0       0       0
  1945 ;;      Locals:         0       2       0       0       0       0       0       0       0       0       0       0       
      +0       0       0       0
  1946 ;;      Temps:          0       0       0       0       0       0       0       0       0       0       0       0       
      +0       0       0       0
  1947 ;;      Totals:         0       8       0       0       0       0       0       0       0       0       0       0       
      +0       0       0       0
  1948 ;;Total ram usage:        8 bytes
  1949 ;; Hardware stack levels used: 1
  1950 ;; Hardware stack levels required when called: 12
  1951 ;; This function calls:
  1952 ;;		_vfpfcnvrt
  1953 ;; This function is called by:
  1954 ;;		_printf
  1955 ;; This function uses a non-reentrant model
  1956 ;;
  1957                           
  1958                           	psect	text4
  1959   0028F4                     __ptext4:
  1960                           	callstack 0
  1961   0028F4                     _vfprintf:
  1962                           	callstack 17
  1963   0028F4                     
  1964                           ;C:\Program Files\Microchip\xc8\v2.40\pic\sources\c99\common\doprnt.c: 1520: int vfprint
      +                          f(FILE *fp, const char *fmt, va_list ap);C:\Program Files\Microchip\xc8\v2.40\pic\source
      +                          s\c99\common\doprnt.c: 1521: {;C:\Program Files\Microchip\xc8\v2.40\pic\sources\c99\comm
      +                          on\doprnt.c: 1523:     char *cfmt;;C:\Program Files\Microchip\xc8\v2.40\pic\sources\c99\
      +                          common\doprnt.c: 1525:     cfmt = (char *)fmt;
  1965   0028F4  C0B5  F0B9         	movff	vfprintf@fmt,vfprintf@cfmt
  1966   0028F8  C0B6  F0BA         	movff	vfprintf@fmt+1,vfprintf@cfmt+1
  1967                           
  1968                           ;C:\Program Files\Microchip\xc8\v2.40\pic\sources\c99\common\doprnt.c: 1529:     while (
      +                          *cfmt) {
  1969   0028FC  EF8F  F014         	goto	l4421
  1970   002900                     l4419:
  1971                           
  1972                           ;C:\Program Files\Microchip\xc8\v2.40\pic\sources\c99\common\doprnt.c: 1533:    vfpfcnvr
      +                          t(fp, &cfmt, ap);
  1973   002900  C0B3  F0A0         	movff	vfprintf@fp,vfpfcnvrt@fp
  1974   002904  C0B4  F0A1         	movff	vfprintf@fp+1,vfpfcnvrt@fp+1
  1975   002908  0EB9               	movlw	low vfprintf@cfmt
  1976   00290A  0100               	movlb	0	; () banked
  1977   00290C  6FA2               	movwf	vfpfcnvrt@fmt& (0+255),b
  1978   00290E  0E00               	movlw	high vfprintf@cfmt
  1979   002910  6FA3               	movwf	(vfpfcnvrt@fmt+1)& (0+255),b
  1980   002912  C0B7  F0A4         	movff	vfprintf@ap,vfpfcnvrt@ap
  1981   002916  C0B8  F0A5         	movff	vfprintf@ap+1,vfpfcnvrt@ap+1
  1982   00291A  ECB9  F00D         	call	_vfpfcnvrt	;wreg free
  1983   00291E                     l4421:
  1984                           
  1985                           ;C:\Program Files\Microchip\xc8\v2.40\pic\sources\c99\common\doprnt.c: 1529:     while (
      +                          *cfmt) {
  1986   00291E  C0B9  FFF6         	movff	vfprintf@cfmt,tblptrl
  1987   002922  C0BA  FFF7         	movff	vfprintf@cfmt+1,tblptrh
  1988   002926                     	if	0	;tblptru may be non-zero
  1989   002926                     	endif
  1990   002926                     	if	0	;tblptru may be non-zero
  1991   002926                     	endif
  1992   002926  0008               	tblrd		*
  1993   002928  50F5               	movf	tablat,w,c
  1994   00292A  0900               	iorlw	0
  1995   00292C  A4D8               	btfss	status,2,c
  1996   00292E  EF9B  F014         	goto	u2591
  1997   002932  EF9D  F014         	goto	u2590
  1998   002936                     u2591:
  1999   002936  EF80  F014         	goto	l4419
  2000   00293A                     u2590:
  2001   00293A                     
  2002                           ;C:\Program Files\Microchip\xc8\v2.40\pic\sources\c99\common\doprnt.c: 1538:  return 0;
  2003   00293A  0E00               	movlw	0
  2004   00293C  0100               	movlb	0	; () banked
  2005   00293E  6FB4               	movwf	(?_vfprintf+1)& (0+255),b
  2006   002940  0E00               	movlw	0
  2007   002942  6FB3               	movwf	?_vfprintf& (0+255),b
  2008   002944                     
  2009                           ; BSR set to: 0
  2010   002944  0012               	return		;funcret
  2011   002946                     __end_of_vfprintf:
  2012                           	callstack 0
  2013                           
  2014 ;; *************** function _vfpfcnvrt *****************
  2015 ;; Defined at:
  2016 ;;		line 1007 in file "C:\Program Files\Microchip\xc8\v2.40\pic\sources\c99\common\doprnt.c"
  2017 ;; Parameters:    Size  Location     Type
  2018 ;;  fp              2   64[BANK0 ] PTR struct _IO_FILE
  2019 ;;		 -> NULL(0), 
  2020 ;;  fmt             2   66[BANK0 ] PTR PTR unsigned char 
  2021 ;;		 -> vfprintf@cfmt(2), 
  2022 ;;  ap              2   68[BANK0 ] PTR PTR void 
  2023 ;;		 -> printf@ap(2), 
  2024 ;; Auto vars:     Size  Location     Type
  2025 ;;  convarg         8   73[BANK0 ] struct .
  2026 ;;  cp              2   81[BANK0 ] PTR unsigned char 
  2027 ;;		 -> STR_6(33), STR_5(32), STR_4(30), STR_3(31), 
  2028 ;;		 -> STR_2(20), STR_1(29), 
  2029 ;;  i               2    0        int 
  2030 ;;  done            2    0        int 
  2031 ;;  c               1    0        unsigned char 
  2032 ;; Return value:  Size  Location     Type
  2033 ;;                  1    wreg      void 
  2034 ;; Registers used:
  2035 ;;		wreg, fsr1l, fsr1h, fsr2l, fsr2h, status,2, status,0, tblptrl, tblptrh, tblptru, prodl, prodh, cstack
  2036 ;; Tracked objects:
  2037 ;;		On entry : 0/0
  2038 ;;		On exit  : 0/0
  2039 ;;		Unchanged: 0/0
  2040 ;; Data sizes:     COMRAM   BANK0   BANK1   BANK2   BANK3   BANK4   BANK5   BANK6   BANK7   BANK8   BANK9  BANK10  BANK1
      +1  BANK12  BANK13  BANK14
  2041 ;;      Params:         0       6       0       0       0       0       0       0       0       0       0       0       
      +0       0       0       0
  2042 ;;      Locals:         0      10       0       0       0       0       0       0       0       0       0       0       
      +0       0       0       0
  2043 ;;      Temps:          0       3       0       0       0       0       0       0       0       0       0       0       
      +0       0       0       0
  2044 ;;      Totals:         0      19       0       0       0       0       0       0       0       0       0       0       
      +0       0       0       0
  2045 ;;Total ram usage:       19 bytes
  2046 ;; Hardware stack levels used: 1
  2047 ;; Hardware stack levels required when called: 11
  2048 ;; This function calls:
  2049 ;;		_atoi
  2050 ;;		_dtoa
  2051 ;;		_fputc
  2052 ;;		_isdigit
  2053 ;; This function is called by:
  2054 ;;		_vfprintf
  2055 ;; This function uses a non-reentrant model
  2056 ;;
  2057                           
  2058                           	psect	text5
  2059   001B72                     __ptext5:
  2060                           	callstack 0
  2061   001B72                     _vfpfcnvrt:
  2062                           	callstack 17
  2063   001B72                     
  2064                           ;C:\Program Files\Microchip\xc8\v2.40\pic\sources\c99\common\doprnt.c: 1007: vfpfcnvrt(F
      +                          ILE *fp, char *fmt[], va_list ap);C:\Program Files\Microchip\xc8\v2.40\pic\sources\c99\c
      +                          ommon\doprnt.c: 1008: {;C:\Program Files\Microchip\xc8\v2.40\pic\sources\c99\common\dopr
      +                          nt.c: 1009:     char c, *cp;;C:\Program Files\Microchip\xc8\v2.40\pic\sources\c99\common
      +                          \doprnt.c: 1010:     int done, i;;C:\Program Files\Microchip\xc8\v2.40\pic\sources\c99\c
      +                          ommon\doprnt.c: 1016:  } convarg;;C:\Program Files\Microchip\xc8\v2.40\pic\sources\c99\c
      +                          ommon\doprnt.c: 1019:     if ((*fmt)[0] == '%') {
  2065   001B72  C0A2  FFD9         	movff	vfpfcnvrt@fmt,fsr2l
  2066   001B76  C0A3  FFDA         	movff	vfpfcnvrt@fmt+1,fsr2h
  2067   001B7A  CFDE FFF6          	movff	postinc2,tblptrl
  2068   001B7E  CFDD FFF7          	movff	postdec2,tblptrh
  2069   001B82                     	if	0	;tblptru may be non-zero
  2070   001B82                     	endif
  2071   001B82                     	if	0	;tblptru may be non-zero
  2072   001B82                     	endif
  2073   001B82  0008               	tblrd		*
  2074   001B84  50F5               	movf	tablat,w,c
  2075   001B86  0A25               	xorlw	37
  2076   001B88  A4D8               	btfss	status,2,c
  2077   001B8A  EFC9  F00D         	goto	u2531
  2078   001B8E  EFCB  F00D         	goto	u2530
  2079   001B92                     u2531:
  2080   001B92  EFBA  F00E         	goto	l4395
  2081   001B96                     u2530:
  2082   001B96                     
  2083                           ;C:\Program Files\Microchip\xc8\v2.40\pic\sources\c99\common\doprnt.c: 1020:         ++*
      +                          fmt;
  2084   001B96  C0A2  FFD9         	movff	vfpfcnvrt@fmt,fsr2l
  2085   001B9A  C0A3  FFDA         	movff	vfpfcnvrt@fmt+1,fsr2h
  2086   001B9E  2ADE               	incf	postinc2,f,c
  2087   001BA0  0E00               	movlw	0
  2088   001BA2  22DD               	addwfc	postdec2,f,c
  2089   001BA4                     
  2090                           ;C:\Program Files\Microchip\xc8\v2.40\pic\sources\c99\common\doprnt.c: 1022:         fla
      +                          gs = width = 0;
  2091   001BA4  0E00               	movlw	0
  2092   001BA6  0100               	movlb	0	; () banked
  2093   001BA8  6FD6               	movwf	(_width+1)& (0+255),b
  2094   001BAA  0E00               	movlw	0
  2095   001BAC  6FD5               	movwf	_width& (0+255),b
  2096   001BAE  C0D5  F0E1         	movff	_width,_flags
  2097   001BB2                     
  2098                           ; BSR set to: 0
  2099                           ;C:\Program Files\Microchip\xc8\v2.40\pic\sources\c99\common\doprnt.c: 1023:         pre
      +                          c = -1;
  2100   001BB2  69D7               	setf	_prec& (0+255),b
  2101   001BB4  69D8               	setf	(_prec+1)& (0+255),b
  2102   001BB6                     
  2103                           ; BSR set to: 0
  2104                           ;C:\Program Files\Microchip\xc8\v2.40\pic\sources\c99\common\doprnt.c: 1074:         if 
      +                          ((*fmt)[0] == '*') {
  2105   001BB6  C0A2  FFD9         	movff	vfpfcnvrt@fmt,fsr2l
  2106   001BBA  C0A3  FFDA         	movff	vfpfcnvrt@fmt+1,fsr2h
  2107   001BBE  CFDE FFF6          	movff	postinc2,tblptrl
  2108   001BC2  CFDD FFF7          	movff	postdec2,tblptrh
  2109   001BC6                     	if	0	;tblptru may be non-zero
  2110   001BC6                     	endif
  2111   001BC6                     	if	0	;tblptru may be non-zero
  2112   001BC6                     	endif
  2113   001BC6  0008               	tblrd		*
  2114   001BC8  50F5               	movf	tablat,w,c
  2115   001BCA  0A2A               	xorlw	42
  2116   001BCC  A4D8               	btfss	status,2,c
  2117   001BCE  EFEB  F00D         	goto	u2541
  2118   001BD2  EFED  F00D         	goto	u2540
  2119   001BD6                     u2541:
  2120   001BD6  EF16  F00E         	goto	l4371
  2121   001BDA                     u2540:
  2122   001BDA                     
  2123                           ; BSR set to: 0
  2124                           ;C:\Program Files\Microchip\xc8\v2.40\pic\sources\c99\common\doprnt.c: 1075:            
      +                           ++*fmt;
  2125   001BDA  C0A2  FFD9         	movff	vfpfcnvrt@fmt,fsr2l
  2126   001BDE  C0A3  FFDA         	movff	vfpfcnvrt@fmt+1,fsr2h
  2127   001BE2  2ADE               	incf	postinc2,f,c
  2128   001BE4  0E00               	movlw	0
  2129   001BE6  22DD               	addwfc	postdec2,f,c
  2130                           
  2131                           ;C:\Program Files\Microchip\xc8\v2.40\pic\sources\c99\common\doprnt.c: 1076:            
      +                           width = (*(int *)__va_arg(*(int **)ap, (int)0));
  2132   001BE8  C0A4  FFD9         	movff	vfpfcnvrt@ap,fsr2l
  2133   001BEC  C0A5  FFDA         	movff	vfpfcnvrt@ap+1,fsr2h
  2134   001BF0  CFDF F0A6          	movff	indf2,??_vfpfcnvrt
  2135   001BF4  0E02               	movlw	2
  2136   001BF6  26DE               	addwf	postinc2,f,c
  2137   001BF8  CFDF F0A7          	movff	indf2,??_vfpfcnvrt+1
  2138   001BFC  0E00               	movlw	0
  2139   001BFE  22DD               	addwfc	postdec2,f,c
  2140   001C00  C0A6  FFD9         	movff	??_vfpfcnvrt,fsr2l
  2141   001C04  C0A7  FFDA         	movff	??_vfpfcnvrt+1,fsr2h
  2142   001C08  CFDE F0D5          	movff	postinc2,_width
  2143   001C0C  CFDD F0D6          	movff	postdec2,_width+1
  2144   001C10                     
  2145                           ; BSR set to: 0
  2146                           ;C:\Program Files\Microchip\xc8\v2.40\pic\sources\c99\common\doprnt.c: 1077:            
      +                           if (width < 0) {
  2147   001C10  BFD6               	btfsc	(_width+1)& (0+255),7,b
  2148   001C12  EF0F  F00E         	goto	u2550
  2149   001C16  EF0D  F00E         	goto	u2551
  2150   001C1A                     u2551:
  2151   001C1A  EF4A  F00E         	goto	l4379
  2152   001C1E                     u2550:
  2153   001C1E                     
  2154                           ; BSR set to: 0
  2155                           ;C:\Program Files\Microchip\xc8\v2.40\pic\sources\c99\common\doprnt.c: 1078:            
      +                               flags |= (1 << 0);
  2156   001C1E  81E1               	bsf	_flags& (0+255),0,b
  2157                           
  2158                           ;C:\Program Files\Microchip\xc8\v2.40\pic\sources\c99\common\doprnt.c: 1079:            
      +                               width = -width;
  2159   001C20  6DD5               	negf	_width& (0+255),b
  2160   001C22  1FD6               	comf	(_width+1)& (0+255),f,b
  2161   001C24  B0D8               	btfsc	status,0,c
  2162   001C26  2BD6               	incf	(_width+1)& (0+255),f,b
  2163   001C28  EF4A  F00E         	goto	l4379
  2164   001C2C                     l4371:
  2165                           
  2166                           ; BSR set to: 0
  2167                           ;C:\Program Files\Microchip\xc8\v2.40\pic\sources\c99\common\doprnt.c: 1082:            
      +                           width = atoi(*fmt);
  2168   001C2C  C0A2  FFD9         	movff	vfpfcnvrt@fmt,fsr2l
  2169   001C30  C0A3  FFDA         	movff	vfpfcnvrt@fmt+1,fsr2h
  2170   001C34  CFDE F066          	movff	postinc2,atoi@s
  2171   001C38  CFDD F067          	movff	postdec2,atoi@s+1
  2172   001C3C  EC03  F011         	call	_atoi	;wreg free
  2173   001C40  C066  F0D5         	movff	?_atoi,_width
  2174   001C44  C067  F0D6         	movff	?_atoi+1,_width+1
  2175                           
  2176                           ;C:\Program Files\Microchip\xc8\v2.40\pic\sources\c99\common\doprnt.c: 1083:            
      +                           while ((0 && isdigit((*fmt)[0]), ((unsigned)((*fmt)[0])-'0') < 10)) {
  2177   001C48  EF2D  F00E         	goto	l4377
  2178   001C4C                     l4373:
  2179                           
  2180                           ; BSR set to: 0
  2181                           ;C:\Program Files\Microchip\xc8\v2.40\pic\sources\c99\common\doprnt.c: 1084:            
      +                               ++*fmt;
  2182   001C4C  C0A2  FFD9         	movff	vfpfcnvrt@fmt,fsr2l
  2183   001C50  C0A3  FFDA         	movff	vfpfcnvrt@fmt+1,fsr2h
  2184   001C54  2ADE               	incf	postinc2,f,c
  2185   001C56  0E00               	movlw	0
  2186   001C58  22DD               	addwfc	postdec2,f,c
  2187   001C5A                     l4377:
  2188   001C5A  C0A2  FFD9         	movff	vfpfcnvrt@fmt,fsr2l
  2189   001C5E  C0A3  FFDA         	movff	vfpfcnvrt@fmt+1,fsr2h
  2190   001C62  CFDE FFF6          	movff	postinc2,tblptrl
  2191   001C66  CFDD FFF7          	movff	postdec2,tblptrh
  2192   001C6A                     	if	0	;tblptru may be non-zero
  2193   001C6A                     	endif
  2194   001C6A                     	if	0	;tblptru may be non-zero
  2195   001C6A                     	endif
  2196   001C6A  0008               	tblrd		*
  2197   001C6C  CFF5 F0A6          	movff	tablat,??_vfpfcnvrt
  2198   001C70  0ED0               	movlw	208
  2199   001C72  0100               	movlb	0	; () banked
  2200   001C74  25A6               	addwf	??_vfpfcnvrt& (0+255),w,b
  2201   001C76  6FA7               	movwf	(??_vfpfcnvrt+1)& (0+255),b
  2202   001C78  6BA8               	clrf	(??_vfpfcnvrt+2)& (0+255),b
  2203   001C7A  0EFF               	movlw	255
  2204   001C7C  23A8               	addwfc	(??_vfpfcnvrt+2)& (0+255),f,b
  2205   001C7E  51A8               	movf	(??_vfpfcnvrt+2)& (0+255),w,b
  2206   001C80  E109               	bnz	u2560
  2207   001C82  0E0A               	movlw	10
  2208   001C84  5DA7               	subwf	(??_vfpfcnvrt+1)& (0+255),w,b
  2209   001C86  A0D8               	btfss	status,0,c
  2210   001C88  EF48  F00E         	goto	u2561
  2211   001C8C  EF4A  F00E         	goto	u2560
  2212   001C90                     u2561:
  2213   001C90  EF26  F00E         	goto	l4373
  2214   001C94                     u2560:
  2215   001C94                     l4379:
  2216                           
  2217                           ; BSR set to: 0
  2218                           ;C:\Program Files\Microchip\xc8\v2.40\pic\sources\c99\common\doprnt.c: 1117:   cp = *fmt
      +                          ;
  2219   001C94  C0A2  FFD9         	movff	vfpfcnvrt@fmt,fsr2l
  2220   001C98  C0A3  FFDA         	movff	vfpfcnvrt@fmt+1,fsr2h
  2221   001C9C  CFDE F0B1          	movff	postinc2,vfpfcnvrt@cp
  2222   001CA0  CFDD F0B2          	movff	postdec2,vfpfcnvrt@cp+1
  2223   001CA4                     
  2224                           ; BSR set to: 0
  2225                           ;C:\Program Files\Microchip\xc8\v2.40\pic\sources\c99\common\doprnt.c: 1187:   if (*cp =
      +                          = 'd' || *cp == 'i') {
  2226   001CA4  C0B1  FFF6         	movff	vfpfcnvrt@cp,tblptrl
  2227   001CA8  C0B2  FFF7         	movff	vfpfcnvrt@cp+1,tblptrh
  2228   001CAC                     	if	0	;tblptru may be non-zero
  2229   001CAC                     	endif
  2230   001CAC                     	if	0	;tblptru may be non-zero
  2231   001CAC                     	endif
  2232   001CAC  0008               	tblrd		*
  2233   001CAE  50F5               	movf	tablat,w,c
  2234   001CB0  0A64               	xorlw	100
  2235   001CB2  B4D8               	btfsc	status,2,c
  2236   001CB4  EF5E  F00E         	goto	u2571
  2237   001CB8  EF60  F00E         	goto	u2570
  2238   001CBC                     u2571:
  2239   001CBC  EF6E  F00E         	goto	l4385
  2240   001CC0                     u2570:
  2241   001CC0                     
  2242                           ; BSR set to: 0
  2243   001CC0  C0B1  FFF6         	movff	vfpfcnvrt@cp,tblptrl
  2244   001CC4  C0B2  FFF7         	movff	vfpfcnvrt@cp+1,tblptrh
  2245   001CC8                     	if	0	;tblptru may be non-zero
  2246   001CC8                     	endif
  2247   001CC8                     	if	0	;tblptru may be non-zero
  2248   001CC8                     	endif
  2249   001CC8  0008               	tblrd		*
  2250   001CCA  50F5               	movf	tablat,w,c
  2251   001CCC  0A69               	xorlw	105
  2252   001CCE  A4D8               	btfss	status,2,c
  2253   001CD0  EF6C  F00E         	goto	u2581
  2254   001CD4  EF6E  F00E         	goto	u2580
  2255   001CD8                     u2581:
  2256   001CD8  EFB1  F00E         	goto	l4391
  2257   001CDC                     u2580:
  2258   001CDC                     l4385:
  2259                           
  2260                           ; BSR set to: 0
  2261                           ;C:\Program Files\Microchip\xc8\v2.40\pic\sources\c99\common\doprnt.c: 1230:    convarg.
      +                          ll = (long long)(int)(*(int *)__va_arg(*(int **)ap, (int)0));
  2262   001CDC  C0A4  FFD9         	movff	vfpfcnvrt@ap,fsr2l
  2263   001CE0  C0A5  FFDA         	movff	vfpfcnvrt@ap+1,fsr2h
  2264   001CE4  CFDF F0A6          	movff	indf2,??_vfpfcnvrt
  2265   001CE8  0E02               	movlw	2
  2266   001CEA  26DE               	addwf	postinc2,f,c
  2267   001CEC  CFDF F0A7          	movff	indf2,??_vfpfcnvrt+1
  2268   001CF0  0E00               	movlw	0
  2269   001CF2  22DD               	addwfc	postdec2,f,c
  2270   001CF4  C0A6  FFD9         	movff	??_vfpfcnvrt,fsr2l
  2271   001CF8  C0A7  FFDA         	movff	??_vfpfcnvrt+1,fsr2h
  2272   001CFC  CFDE F0A9          	movff	postinc2,vfpfcnvrt@convarg
  2273   001D00  CFDD F0AA          	movff	postdec2,vfpfcnvrt@convarg+1
  2274   001D04  0E00               	movlw	0
  2275   001D06  BFAA               	btfsc	(vfpfcnvrt@convarg+1)& (0+255),7,b
  2276   001D08  0EFF               	movlw	-1
  2277   001D0A  6FAB               	movwf	(vfpfcnvrt@convarg+2)& (0+255),b
  2278   001D0C  6FAC               	movwf	(vfpfcnvrt@convarg+3)& (0+255),b
  2279   001D0E  6FAD               	movwf	(vfpfcnvrt@convarg+4)& (0+255),b
  2280   001D10  6FAE               	movwf	(vfpfcnvrt@convarg+5)& (0+255),b
  2281   001D12  6FAF               	movwf	(vfpfcnvrt@convarg+6)& (0+255),b
  2282   001D14  6FB0               	movwf	(vfpfcnvrt@convarg+7)& (0+255),b
  2283                           
  2284                           ;C:\Program Files\Microchip\xc8\v2.40\pic\sources\c99\common\doprnt.c: 1232:    *fmt = c
      +                          p+1;
  2285   001D16  0E01               	movlw	1
  2286   001D18  25B1               	addwf	vfpfcnvrt@cp& (0+255),w,b
  2287   001D1A  6FA6               	movwf	??_vfpfcnvrt& (0+255),b
  2288   001D1C  0E00               	movlw	0
  2289   001D1E  21B2               	addwfc	(vfpfcnvrt@cp+1)& (0+255),w,b
  2290   001D20  6FA7               	movwf	(??_vfpfcnvrt+1)& (0+255),b
  2291   001D22  C0A2  FFD9         	movff	vfpfcnvrt@fmt,fsr2l
  2292   001D26  C0A3  FFDA         	movff	vfpfcnvrt@fmt+1,fsr2h
  2293   001D2A  C0A6  FFDE         	movff	??_vfpfcnvrt,postinc2
  2294   001D2E  C0A7  FFDD         	movff	??_vfpfcnvrt+1,postdec2
  2295   001D32                     
  2296                           ; BSR set to: 0
  2297                           ;C:\Program Files\Microchip\xc8\v2.40\pic\sources\c99\common\doprnt.c: 1233:    return (
      +                          void) dtoa(fp, convarg.ll);;	Return value of _vfpfcnvrt is never used
  2298   001D32  C0A0  F07D         	movff	vfpfcnvrt@fp,dtoa@fp
  2299   001D36  C0A1  F07E         	movff	vfpfcnvrt@fp+1,dtoa@fp+1
  2300   001D3A  C0A9  F07F         	movff	vfpfcnvrt@convarg,dtoa@d
  2301   001D3E  C0AA  F080         	movff	vfpfcnvrt@convarg+1,dtoa@d+1
  2302   001D42  C0AB  F081         	movff	vfpfcnvrt@convarg+2,dtoa@d+2
  2303   001D46  C0AC  F082         	movff	vfpfcnvrt@convarg+3,dtoa@d+3
  2304   001D4A  C0AD  F083         	movff	vfpfcnvrt@convarg+4,dtoa@d+4
  2305   001D4E  C0AE  F084         	movff	vfpfcnvrt@convarg+5,dtoa@d+5
  2306   001D52  C0AF  F085         	movff	vfpfcnvrt@convarg+6,dtoa@d+6
  2307   001D56  C0B0  F086         	movff	vfpfcnvrt@convarg+7,dtoa@d+7
  2308   001D5A  EC1D  F00A         	call	_dtoa	;wreg free
  2309   001D5E  EFCF  F00E         	goto	l1639
  2310   001D62                     l4391:
  2311                           
  2312                           ;C:\Program Files\Microchip\xc8\v2.40\pic\sources\c99\common\doprnt.c: 1509:         ++*
      +                          fmt;
  2313   001D62  C0A2  FFD9         	movff	vfpfcnvrt@fmt,fsr2l
  2314   001D66  C0A3  FFDA         	movff	vfpfcnvrt@fmt+1,fsr2h
  2315   001D6A  2ADE               	incf	postinc2,f,c
  2316   001D6C  0E00               	movlw	0
  2317   001D6E  22DD               	addwfc	postdec2,f,c
  2318   001D70  EFCF  F00E         	goto	l1639
  2319   001D74                     l4395:
  2320                           
  2321                           ;C:\Program Files\Microchip\xc8\v2.40\pic\sources\c99\common\doprnt.c: 1514:     fputc((
      +                          int)(*fmt)[0], fp);
  2322   001D74  C0A2  FFD9         	movff	vfpfcnvrt@fmt,fsr2l
  2323   001D78  C0A3  FFDA         	movff	vfpfcnvrt@fmt+1,fsr2h
  2324   001D7C  CFDE FFF6          	movff	postinc2,tblptrl
  2325   001D80  CFDD FFF7          	movff	postdec2,tblptrh
  2326   001D84                     	if	0	;tblptru may be non-zero
  2327   001D84                     	endif
  2328   001D84                     	if	0	;tblptru may be non-zero
  2329   001D84                     	endif
  2330   001D84  0008               	tblrd		*
  2331   001D86  50F5               	movf	tablat,w,c
  2332   001D88  0100               	movlb	0	; () banked
  2333   001D8A  6F62               	movwf	fputc@c& (0+255),b
  2334   001D8C  6B63               	clrf	(fputc@c+1)& (0+255),b
  2335   001D8E  C0A0  F064         	movff	vfpfcnvrt@fp,fputc@fp
  2336   001D92  C0A1  F065         	movff	vfpfcnvrt@fp+1,fputc@fp+1
  2337   001D96  EC8B  F013         	call	_fputc	;wreg free
  2338   001D9A  EFB1  F00E         	goto	l4391
  2339   001D9E                     l1639:
  2340   001D9E  0012               	return		;funcret
  2341   001DA0                     __end_of_vfpfcnvrt:
  2342                           	callstack 0
  2343                           
  2344 ;; *************** function _dtoa *****************
  2345 ;; Defined at:
  2346 ;;		line 443 in file "C:\Program Files\Microchip\xc8\v2.40\pic\sources\c99\common\doprnt.c"
  2347 ;; Parameters:    Size  Location     Type
  2348 ;;  fp              2   29[BANK0 ] PTR struct _IO_FILE
  2349 ;;		 -> NULL(0), 
  2350 ;;  d               8   31[BANK0 ] long long 
  2351 ;; Auto vars:     Size  Location     Type
  2352 ;;  n               8   53[BANK0 ] long long 
  2353 ;;  i               2   62[BANK0 ] int 
  2354 ;;  w               2   51[BANK0 ] int 
  2355 ;;  p               2   49[BANK0 ] int 
  2356 ;;  s               1   61[BANK0 ] unsigned char 
  2357 ;; Return value:  Size  Location     Type
  2358 ;;                  1    wreg      void 
  2359 ;; Registers used:
  2360 ;;		wreg, fsr1l, fsr1h, fsr2l, fsr2h, status,2, status,0, cstack
  2361 ;; Tracked objects:
  2362 ;;		On entry : 0/0
  2363 ;;		On exit  : 0/0
  2364 ;;		Unchanged: 0/0
  2365 ;; Data sizes:     COMRAM   BANK0   BANK1   BANK2   BANK3   BANK4   BANK5   BANK6   BANK7   BANK8   BANK9  BANK10  BANK1
      +1  BANK12  BANK13  BANK14
  2366 ;;      Params:         0      10       0       0       0       0       0       0       0       0       0       0       
      +0       0       0       0
  2367 ;;      Locals:         0      17       0       0       0       0       0       0       0       0       0       0       
      +0       0       0       0
  2368 ;;      Temps:          0       8       0       0       0       0       0       0       0       0       0       0       
      +0       0       0       0
  2369 ;;      Totals:         0      35       0       0       0       0       0       0       0       0       0       0       
      +0       0       0       0
  2370 ;;Total ram usage:       35 bytes
  2371 ;; Hardware stack levels used: 1
  2372 ;; Hardware stack levels required when called: 10
  2373 ;; This function calls:
  2374 ;;		___aodiv
  2375 ;;		___aomod
  2376 ;;		_abs
  2377 ;;		_pad
  2378 ;; This function is called by:
  2379 ;;		_vfpfcnvrt
  2380 ;; This function uses a non-reentrant model
  2381 ;;
  2382                           
  2383                           	psect	text6
  2384   00143A                     __ptext6:
  2385                           	callstack 0
  2386   00143A                     _dtoa:
  2387                           	callstack 17
  2388   00143A                     
  2389                           ;C:\Program Files\Microchip\xc8\v2.40\pic\sources\c99\common\doprnt.c: 443: static void 
      +                          dtoa(FILE *fp, long long d);C:\Program Files\Microchip\xc8\v2.40\pic\sources\c99\common\
      +                          doprnt.c: 444: {;C:\Program Files\Microchip\xc8\v2.40\pic\sources\c99\common\doprnt.c: 4
      +                          45:  char s;;C:\Program Files\Microchip\xc8\v2.40\pic\sources\c99\common\doprnt.c: 446: 
      +                              int i, p, w;;C:\Program Files\Microchip\xc8\v2.40\pic\sources\c99\common\doprnt.c: 4
      +                          47:     long long n;;C:\Program Files\Microchip\xc8\v2.40\pic\sources\c99\common\doprnt.
      +                          c: 450:     n = d;
  2390   00143A  C07F  F095         	movff	dtoa@d,dtoa@n
  2391   00143E  C080  F096         	movff	dtoa@d+1,dtoa@n+1
  2392   001442  C081  F097         	movff	dtoa@d+2,dtoa@n+2
  2393   001446  C082  F098         	movff	dtoa@d+3,dtoa@n+3
  2394   00144A  C083  F099         	movff	dtoa@d+4,dtoa@n+4
  2395   00144E  C084  F09A         	movff	dtoa@d+5,dtoa@n+5
  2396   001452  C085  F09B         	movff	dtoa@d+6,dtoa@n+6
  2397   001456  C086  F09C         	movff	dtoa@d+7,dtoa@n+7
  2398   00145A                     
  2399                           ;C:\Program Files\Microchip\xc8\v2.40\pic\sources\c99\common\doprnt.c: 451:     s = n < 
      +                          0 ? 1 : 0;
  2400   00145A  0100               	movlb	0	; () banked
  2401   00145C  BF9C               	btfsc	(dtoa@n+7)& (0+255),7,b
  2402   00145E  EF33  F00A         	goto	u2391
  2403   001462  EF36  F00A         	goto	u2390
  2404   001466                     u2391:
  2405   001466  0E01               	movlw	1
  2406   001468  EF37  F00A         	goto	u2400
  2407   00146C                     u2390:
  2408   00146C  0E00               	movlw	0
  2409   00146E                     u2400:
  2410   00146E  6F9D               	movwf	dtoa@s& (0+255),b
  2411   001470                     
  2412                           ; BSR set to: 0
  2413                           ;C:\Program Files\Microchip\xc8\v2.40\pic\sources\c99\common\doprnt.c: 452:     if (s) {
  2414   001470  519D               	movf	dtoa@s& (0+255),w,b
  2415   001472  B4D8               	btfsc	status,2,c
  2416   001474  EF3E  F00A         	goto	u2411
  2417   001478  EF40  F00A         	goto	u2410
  2418   00147C                     u2411:
  2419   00147C  EF50  F00A         	goto	l4279
  2420   001480                     u2410:
  2421   001480                     
  2422                           ; BSR set to: 0
  2423                           ;C:\Program Files\Microchip\xc8\v2.40\pic\sources\c99\common\doprnt.c: 453:         n = 
      +                          -n;
  2424   001480  1F9C               	comf	(dtoa@n+7)& (0+255),f,b
  2425   001482  1F9B               	comf	(dtoa@n+6)& (0+255),f,b
  2426   001484  1F9A               	comf	(dtoa@n+5)& (0+255),f,b
  2427   001486  1F99               	comf	(dtoa@n+4)& (0+255),f,b
  2428   001488  1F98               	comf	(dtoa@n+3)& (0+255),f,b
  2429   00148A  1F97               	comf	(dtoa@n+2)& (0+255),f,b
  2430   00148C  1F96               	comf	(dtoa@n+1)& (0+255),f,b
  2431   00148E  6D95               	negf	dtoa@n& (0+255),b
  2432   001490  0E00               	movlw	0
  2433   001492  2396               	addwfc	(dtoa@n+1)& (0+255),f,b
  2434   001494  2397               	addwfc	(dtoa@n+2)& (0+255),f,b
  2435   001496  2398               	addwfc	(dtoa@n+3)& (0+255),f,b
  2436   001498  2399               	addwfc	(dtoa@n+4)& (0+255),f,b
  2437   00149A  239A               	addwfc	(dtoa@n+5)& (0+255),f,b
  2438   00149C  239B               	addwfc	(dtoa@n+6)& (0+255),f,b
  2439   00149E  239C               	addwfc	(dtoa@n+7)& (0+255),f,b
  2440   0014A0                     l4279:
  2441                           
  2442                           ; BSR set to: 0
  2443                           ;C:\Program Files\Microchip\xc8\v2.40\pic\sources\c99\common\doprnt.c: 462:     p = (0 <
      +                           prec) ? prec : 1;
  2444   0014A0  BFD8               	btfsc	(_prec+1)& (0+255),7,b
  2445   0014A2  EF5D  F00A         	goto	u2420
  2446   0014A6  51D8               	movf	(_prec+1)& (0+255),w,b
  2447   0014A8  E106               	bnz	u2421
  2448   0014AA  05D7               	decf	_prec& (0+255),w,b
  2449   0014AC  B0D8               	btfsc	status,0,c
  2450   0014AE  EF5B  F00A         	goto	u2421
  2451   0014B2  EF5D  F00A         	goto	u2420
  2452   0014B6                     u2421:
  2453   0014B6  EF63  F00A         	goto	l1610
  2454   0014BA                     u2420:
  2455   0014BA                     
  2456                           ; BSR set to: 0
  2457   0014BA  0E00               	movlw	0
  2458   0014BC  6F92               	movwf	(dtoa@p+1)& (0+255),b
  2459   0014BE  0E01               	movlw	1
  2460   0014C0  6F91               	movwf	dtoa@p& (0+255),b
  2461   0014C2  EF67  F00A         	goto	l1612
  2462   0014C6                     l1610:
  2463                           
  2464                           ; BSR set to: 0
  2465   0014C6  C0D7  F091         	movff	_prec,dtoa@p
  2466   0014CA  C0D8  F092         	movff	_prec+1,dtoa@p+1
  2467   0014CE                     l1612:
  2468                           
  2469                           ; BSR set to: 0
  2470                           ;C:\Program Files\Microchip\xc8\v2.40\pic\sources\c99\common\doprnt.c: 463:     w = widt
      +                          h;
  2471   0014CE  C0D5  F093         	movff	_width,dtoa@w
  2472   0014D2  C0D6  F094         	movff	_width+1,dtoa@w+1
  2473   0014D6                     
  2474                           ; BSR set to: 0
  2475                           ;C:\Program Files\Microchip\xc8\v2.40\pic\sources\c99\common\doprnt.c: 464:     if (s
  2476   0014D6  519D               	movf	dtoa@s& (0+255),w,b
  2477   0014D8  B4D8               	btfsc	status,2,c
  2478   0014DA  EF71  F00A         	goto	u2431
  2479   0014DE  EF73  F00A         	goto	u2430
  2480   0014E2                     u2431:
  2481   0014E2  EF8A  F00A         	goto	l1613
  2482   0014E6                     u2430:
  2483   0014E6                     
  2484                           ; BSR set to: 0
  2485                           ;C:\Program Files\Microchip\xc8\v2.40\pic\sources\c99\common\doprnt.c: 468:     ) {;C:\P
      +                          rogram Files\Microchip\xc8\v2.40\pic\sources\c99\common\doprnt.c: 469:         --w;
  2486   0014E6  0793               	decf	dtoa@w& (0+255),f,b
  2487   0014E8  A0D8               	btfss	status,0,c
  2488   0014EA  0794               	decf	(dtoa@w+1)& (0+255),f,b
  2489   0014EC                     
  2490                           ; BSR set to: 0
  2491                           ;C:\Program Files\Microchip\xc8\v2.40\pic\sources\c99\common\doprnt.c: 470:   s = s ? '-
      +                          ' : '+';
  2492   0014EC  519D               	movf	dtoa@s& (0+255),w,b
  2493   0014EE  A4D8               	btfss	status,2,c
  2494   0014F0  EF7C  F00A         	goto	u2441
  2495   0014F4  EF7E  F00A         	goto	u2440
  2496   0014F8                     u2441:
  2497   0014F8  EF84  F00A         	goto	l4291
  2498   0014FC                     u2440:
  2499   0014FC                     
  2500                           ; BSR set to: 0
  2501   0014FC  0E00               	movlw	0
  2502   0014FE  6F90               	movwf	(_dtoa$2665+1)& (0+255),b
  2503   001500  0E2B               	movlw	43
  2504   001502  6F8F               	movwf	_dtoa$2665& (0+255),b
  2505   001504  EF88  F00A         	goto	l4293
  2506   001508                     l4291:
  2507                           
  2508                           ; BSR set to: 0
  2509   001508  0E00               	movlw	0
  2510   00150A  6F90               	movwf	(_dtoa$2665+1)& (0+255),b
  2511   00150C  0E2D               	movlw	45
  2512   00150E  6F8F               	movwf	_dtoa$2665& (0+255),b
  2513   001510                     l4293:
  2514                           
  2515                           ; BSR set to: 0
  2516   001510  C08F  F09D         	movff	_dtoa$2665,dtoa@s
  2517   001514                     l1613:
  2518                           
  2519                           ; BSR set to: 0
  2520                           ;C:\Program Files\Microchip\xc8\v2.40\pic\sources\c99\common\doprnt.c: 480:     i = size
      +                          of(dbuf) - 1;
  2521   001514  0E00               	movlw	0
  2522   001516  6F9F               	movwf	(dtoa@i+1)& (0+255),b
  2523   001518  0E1F               	movlw	31
  2524   00151A  6F9E               	movwf	dtoa@i& (0+255),b
  2525   00151C                     
  2526                           ; BSR set to: 0
  2527                           ;C:\Program Files\Microchip\xc8\v2.40\pic\sources\c99\common\doprnt.c: 481:     dbuf[i] 
      +                          = '\0';
  2528   00151C  0E00               	movlw	0
  2529   00151E  0101               	movlb	1	; () banked
  2530   001520  6F1F               	movwf	(_dbuf+31)& (0+255),b
  2531                           
  2532                           ;C:\Program Files\Microchip\xc8\v2.40\pic\sources\c99\common\doprnt.c: 482:     while (!
      +                          (i < 1) && (n || (0 < p)
  2533   001522  EF10  F00B         	goto	l4307
  2534   001526                     l4297:
  2535                           
  2536                           ; BSR set to: 0
  2537                           ;C:\Program Files\Microchip\xc8\v2.40\pic\sources\c99\common\doprnt.c: 486:     )) {;C:\
      +                          Program Files\Microchip\xc8\v2.40\pic\sources\c99\common\doprnt.c: 487:         --i;
  2538   001526  079E               	decf	dtoa@i& (0+255),f,b
  2539   001528  A0D8               	btfss	status,0,c
  2540   00152A  079F               	decf	(dtoa@i+1)& (0+255),f,b
  2541   00152C                     
  2542                           ; BSR set to: 0
  2543                           ;C:\Program Files\Microchip\xc8\v2.40\pic\sources\c99\common\doprnt.c: 488:         dbuf
      +                          [i] = (char)((int)'0' + abs(n % 10));
  2544   00152C  0E00               	movlw	low _dbuf
  2545   00152E  259E               	addwf	dtoa@i& (0+255),w,b
  2546   001530  6ED9               	movwf	fsr2l,c
  2547   001532  0E01               	movlw	high _dbuf
  2548   001534  219F               	addwfc	(dtoa@i+1)& (0+255),w,b
  2549   001536  6EDA               	movwf	fsr2h,c
  2550   001538  C095  F060         	movff	dtoa@n,___aomod@dividend
  2551   00153C  C096  F061         	movff	dtoa@n+1,___aomod@dividend+1
  2552   001540  C097  F062         	movff	dtoa@n+2,___aomod@dividend+2
  2553   001544  C098  F063         	movff	dtoa@n+3,___aomod@dividend+3
  2554   001548  C099  F064         	movff	dtoa@n+4,___aomod@dividend+4
  2555   00154C  C09A  F065         	movff	dtoa@n+5,___aomod@dividend+5
  2556   001550  C09B  F066         	movff	dtoa@n+6,___aomod@dividend+6
  2557   001554  C09C  F067         	movff	dtoa@n+7,___aomod@dividend+7
  2558   001558  0E0A               	movlw	10
  2559   00155A  6F68               	movwf	___aomod@divisor& (0+255),b
  2560   00155C  0E00               	movlw	0
  2561   00155E  6F69               	movwf	(___aomod@divisor+1)& (0+255),b
  2562   001560  0E00               	movlw	0
  2563   001562  6F6A               	movwf	(___aomod@divisor+2)& (0+255),b
  2564   001564  0E00               	movlw	0
  2565   001566  6F6B               	movwf	(___aomod@divisor+3)& (0+255),b
  2566   001568  0E00               	movlw	0
  2567   00156A  6F6C               	movwf	(___aomod@divisor+4)& (0+255),b
  2568   00156C  0E00               	movlw	0
  2569   00156E  6F6D               	movwf	(___aomod@divisor+5)& (0+255),b
  2570   001570  0E00               	movlw	0
  2571   001572  6F6E               	movwf	(___aomod@divisor+6)& (0+255),b
  2572   001574  0E00               	movlw	0
  2573   001576  6F6F               	movwf	(___aomod@divisor+7)& (0+255),b
  2574   001578  EC50  F010         	call	___aomod	;wreg free
  2575   00157C  C060  F087         	movff	?___aomod,??_dtoa
  2576   001580  C061  F088         	movff	?___aomod+1,??_dtoa+1
  2577   001584  C062  F089         	movff	?___aomod+2,??_dtoa+2
  2578   001588  C063  F08A         	movff	?___aomod+3,??_dtoa+3
  2579   00158C  C064  F08B         	movff	?___aomod+4,??_dtoa+4
  2580   001590  C065  F08C         	movff	?___aomod+5,??_dtoa+5
  2581   001594  C066  F08D         	movff	?___aomod+6,??_dtoa+6
  2582   001598  C067  F08E         	movff	?___aomod+7,??_dtoa+7
  2583   00159C  C087  F072         	movff	??_dtoa,abs@a
  2584   0015A0  C088  F073         	movff	??_dtoa+1,abs@a+1
  2585   0015A4  EC32  F015         	call	_abs	;wreg free
  2586   0015A8  0100               	movlb	0	; () banked
  2587   0015AA  5172               	movf	?_abs& (0+255),w,b
  2588   0015AC  0F30               	addlw	48
  2589   0015AE  6EDF               	movwf	indf2,c
  2590   0015B0                     
  2591                           ; BSR set to: 0
  2592                           ;C:\Program Files\Microchip\xc8\v2.40\pic\sources\c99\common\doprnt.c: 489:         --p;
  2593   0015B0  0791               	decf	dtoa@p& (0+255),f,b
  2594   0015B2  A0D8               	btfss	status,0,c
  2595   0015B4  0792               	decf	(dtoa@p+1)& (0+255),f,b
  2596   0015B6                     
  2597                           ; BSR set to: 0
  2598                           ;C:\Program Files\Microchip\xc8\v2.40\pic\sources\c99\common\doprnt.c: 490:         --w;
  2599   0015B6  0793               	decf	dtoa@w& (0+255),f,b
  2600   0015B8  A0D8               	btfss	status,0,c
  2601   0015BA  0794               	decf	(dtoa@w+1)& (0+255),f,b
  2602   0015BC                     
  2603                           ; BSR set to: 0
  2604                           ;C:\Program Files\Microchip\xc8\v2.40\pic\sources\c99\common\doprnt.c: 491:         n = 
      +                          n / 10;
  2605   0015BC  C095  F060         	movff	dtoa@n,___aodiv@dividend
  2606   0015C0  C096  F061         	movff	dtoa@n+1,___aodiv@dividend+1
  2607   0015C4  C097  F062         	movff	dtoa@n+2,___aodiv@dividend+2
  2608   0015C8  C098  F063         	movff	dtoa@n+3,___aodiv@dividend+3
  2609   0015CC  C099  F064         	movff	dtoa@n+4,___aodiv@dividend+4
  2610   0015D0  C09A  F065         	movff	dtoa@n+5,___aodiv@dividend+5
  2611   0015D4  C09B  F066         	movff	dtoa@n+6,___aodiv@dividend+6
  2612   0015D8  C09C  F067         	movff	dtoa@n+7,___aodiv@dividend+7
  2613   0015DC  0E0A               	movlw	10
  2614   0015DE  6F68               	movwf	___aodiv@divisor& (0+255),b
  2615   0015E0  0E00               	movlw	0
  2616   0015E2  6F69               	movwf	(___aodiv@divisor+1)& (0+255),b
  2617   0015E4  0E00               	movlw	0
  2618   0015E6  6F6A               	movwf	(___aodiv@divisor+2)& (0+255),b
  2619   0015E8  0E00               	movlw	0
  2620   0015EA  6F6B               	movwf	(___aodiv@divisor+3)& (0+255),b
  2621   0015EC  0E00               	movlw	0
  2622   0015EE  6F6C               	movwf	(___aodiv@divisor+4)& (0+255),b
  2623   0015F0  0E00               	movlw	0
  2624   0015F2  6F6D               	movwf	(___aodiv@divisor+5)& (0+255),b
  2625   0015F4  0E00               	movlw	0
  2626   0015F6  6F6E               	movwf	(___aodiv@divisor+6)& (0+255),b
  2627   0015F8  0E00               	movlw	0
  2628   0015FA  6F6F               	movwf	(___aodiv@divisor+7)& (0+255),b
  2629   0015FC  ECD0  F00E         	call	___aodiv	;wreg free
  2630   001600  C060  F095         	movff	?___aodiv,dtoa@n
  2631   001604  C061  F096         	movff	?___aodiv+1,dtoa@n+1
  2632   001608  C062  F097         	movff	?___aodiv+2,dtoa@n+2
  2633   00160C  C063  F098         	movff	?___aodiv+3,dtoa@n+3
  2634   001610  C064  F099         	movff	?___aodiv+4,dtoa@n+4
  2635   001614  C065  F09A         	movff	?___aodiv+5,dtoa@n+5
  2636   001618  C066  F09B         	movff	?___aodiv+6,dtoa@n+6
  2637   00161C  C067  F09C         	movff	?___aodiv+7,dtoa@n+7
  2638   001620                     l4307:
  2639                           
  2640                           ;C:\Program Files\Microchip\xc8\v2.40\pic\sources\c99\common\doprnt.c: 482:     while (!
      +                          (i < 1) && (n || (0 < p)
  2641   001620  0100               	movlb	0	; () banked
  2642   001622  BF9F               	btfsc	(dtoa@i+1)& (0+255),7,b
  2643   001624  EF1C  F00B         	goto	u2451
  2644   001628  519F               	movf	(dtoa@i+1)& (0+255),w,b
  2645   00162A  E108               	bnz	u2450
  2646   00162C  059E               	decf	dtoa@i& (0+255),w,b
  2647   00162E  A0D8               	btfss	status,0,c
  2648   001630  EF1C  F00B         	goto	u2451
  2649   001634  EF1E  F00B         	goto	u2450
  2650   001638                     u2451:
  2651   001638  EF3A  F00B         	goto	l4313
  2652   00163C                     u2450:
  2653   00163C                     
  2654                           ; BSR set to: 0
  2655   00163C  5195               	movf	dtoa@n& (0+255),w,b
  2656   00163E  1196               	iorwf	(dtoa@n+1)& (0+255),w,b
  2657   001640  1197               	iorwf	(dtoa@n+2)& (0+255),w,b
  2658   001642  1198               	iorwf	(dtoa@n+3)& (0+255),w,b
  2659   001644  1199               	iorwf	(dtoa@n+4)& (0+255),w,b
  2660   001646  119A               	iorwf	(dtoa@n+5)& (0+255),w,b
  2661   001648  119B               	iorwf	(dtoa@n+6)& (0+255),w,b
  2662   00164A  119C               	iorwf	(dtoa@n+7)& (0+255),w,b
  2663   00164C  A4D8               	btfss	status,2,c
  2664   00164E  EF2B  F00B         	goto	u2461
  2665   001652  EF2D  F00B         	goto	u2460
  2666   001656                     u2461:
  2667   001656  EF93  F00A         	goto	l4297
  2668   00165A                     u2460:
  2669   00165A                     
  2670                           ; BSR set to: 0
  2671   00165A  BF92               	btfsc	(dtoa@p+1)& (0+255),7,b
  2672   00165C  EF3A  F00B         	goto	u2470
  2673   001660  5192               	movf	(dtoa@p+1)& (0+255),w,b
  2674   001662  E106               	bnz	u2471
  2675   001664  0591               	decf	dtoa@p& (0+255),w,b
  2676   001666  B0D8               	btfsc	status,0,c
  2677   001668  EF38  F00B         	goto	u2471
  2678   00166C  EF3A  F00B         	goto	u2470
  2679   001670                     u2471:
  2680   001670  EF93  F00A         	goto	l4297
  2681   001674                     u2470:
  2682   001674                     l4313:
  2683                           
  2684                           ; BSR set to: 0
  2685                           ;C:\Program Files\Microchip\xc8\v2.40\pic\sources\c99\common\doprnt.c: 495:     if (s !=
      +                           0) {
  2686   001674  519D               	movf	dtoa@s& (0+255),w,b
  2687   001676  B4D8               	btfsc	status,2,c
  2688   001678  EF40  F00B         	goto	u2481
  2689   00167C  EF42  F00B         	goto	u2480
  2690   001680                     u2481:
  2691   001680  EF4D  F00B         	goto	l4319
  2692   001684                     u2480:
  2693   001684                     
  2694                           ; BSR set to: 0
  2695                           ;C:\Program Files\Microchip\xc8\v2.40\pic\sources\c99\common\doprnt.c: 496:         --i;
  2696   001684  079E               	decf	dtoa@i& (0+255),f,b
  2697   001686  A0D8               	btfss	status,0,c
  2698   001688  079F               	decf	(dtoa@i+1)& (0+255),f,b
  2699   00168A                     
  2700                           ; BSR set to: 0
  2701                           ;C:\Program Files\Microchip\xc8\v2.40\pic\sources\c99\common\doprnt.c: 497:         dbuf
      +                          [i] = s;
  2702   00168A  0E00               	movlw	low _dbuf
  2703   00168C  259E               	addwf	dtoa@i& (0+255),w,b
  2704   00168E  6ED9               	movwf	fsr2l,c
  2705   001690  0E01               	movlw	high _dbuf
  2706   001692  219F               	addwfc	(dtoa@i+1)& (0+255),w,b
  2707   001694  6EDA               	movwf	fsr2h,c
  2708   001696  C09D  FFDF         	movff	dtoa@s,indf2
  2709   00169A                     l4319:
  2710                           
  2711                           ; BSR set to: 0
  2712                           ;C:\Program Files\Microchip\xc8\v2.40\pic\sources\c99\common\doprnt.c: 501:     return (
      +                          void) pad(fp, &dbuf[i], w);
  2713   00169A  C07D  F072         	movff	dtoa@fp,pad@fp
  2714   00169E  C07E  F073         	movff	dtoa@fp+1,pad@fp+1
  2715   0016A2  0E00               	movlw	low _dbuf
  2716   0016A4  259E               	addwf	dtoa@i& (0+255),w,b
  2717   0016A6  6F74               	movwf	pad@buf& (0+255),b
  2718   0016A8  0E01               	movlw	high _dbuf
  2719   0016AA  219F               	addwfc	(dtoa@i+1)& (0+255),w,b
  2720   0016AC  6F75               	movwf	(pad@buf+1)& (0+255),b
  2721   0016AE  C093  F076         	movff	dtoa@w,pad@p
  2722   0016B2  C094  F077         	movff	dtoa@w+1,pad@p+1
  2723   0016B6  EC33  F013         	call	_pad	;wreg free
  2724   0016BA  0012               	return		;funcret
  2725   0016BC                     __end_of_dtoa:
  2726                           	callstack 0
  2727                           
  2728 ;; *************** function _pad *****************
  2729 ;; Defined at:
  2730 ;;		line 133 in file "C:\Program Files\Microchip\xc8\v2.40\pic\sources\c99\common\doprnt.c"
  2731 ;; Parameters:    Size  Location     Type
  2732 ;;  fp              2   18[BANK0 ] PTR struct _IO_FILE
  2733 ;;		 -> NULL(0), 
  2734 ;;  buf             2   20[BANK0 ] PTR unsigned char 
  2735 ;;		 -> dbuf(32), 
  2736 ;;  p               2   22[BANK0 ] int 
  2737 ;; Auto vars:     Size  Location     Type
  2738 ;;  w               2   27[BANK0 ] int 
  2739 ;;  i               2   25[BANK0 ] int 
  2740 ;; Return value:  Size  Location     Type
  2741 ;;                  1    wreg      void 
  2742 ;; Registers used:
  2743 ;;		wreg, fsr1l, fsr1h, fsr2l, fsr2h, status,2, status,0, cstack
  2744 ;; Tracked objects:
  2745 ;;		On entry : 0/0
  2746 ;;		On exit  : 0/0
  2747 ;;		Unchanged: 0/0
  2748 ;; Data sizes:     COMRAM   BANK0   BANK1   BANK2   BANK3   BANK4   BANK5   BANK6   BANK7   BANK8   BANK9  BANK10  BANK1
      +1  BANK12  BANK13  BANK14
  2749 ;;      Params:         0       6       0       0       0       0       0       0       0       0       0       0       
      +0       0       0       0
  2750 ;;      Locals:         0       4       0       0       0       0       0       0       0       0       0       0       
      +0       0       0       0
  2751 ;;      Temps:          0       1       0       0       0       0       0       0       0       0       0       0       
      +0       0       0       0
  2752 ;;      Totals:         0      11       0       0       0       0       0       0       0       0       0       0       
      +0       0       0       0
  2753 ;;Total ram usage:       11 bytes
  2754 ;; Hardware stack levels used: 1
  2755 ;; Hardware stack levels required when called: 9
  2756 ;; This function calls:
  2757 ;;		_fputc
  2758 ;;		_fputs
  2759 ;; This function is called by:
  2760 ;;		_dtoa
  2761 ;; This function uses a non-reentrant model
  2762 ;;
  2763                           
  2764                           	psect	text7
  2765   002666                     __ptext7:
  2766                           	callstack 0
  2767   002666                     _pad:
  2768                           	callstack 17
  2769   002666                     
  2770                           ;C:\Program Files\Microchip\xc8\v2.40\pic\sources\c99\common\doprnt.c: 133: static void 
      +                          pad(FILE *fp, char *buf, int p);C:\Program Files\Microchip\xc8\v2.40\pic\sources\c99\com
      +                          mon\doprnt.c: 134: {;C:\Program Files\Microchip\xc8\v2.40\pic\sources\c99\common\doprnt.
      +                          c: 135:     int i, w;;C:\Program Files\Microchip\xc8\v2.40\pic\sources\c99\common\doprnt
      +                          .c: 139:     if (flags & (1 << 0)) {
  2771   002666  0100               	movlb	0	; () banked
  2772   002668  A1E1               	btfss	_flags& (0+255),0,b
  2773   00266A  EF39  F013         	goto	u2301
  2774   00266E  EF3B  F013         	goto	u2300
  2775   002672                     u2301:
  2776   002672  EF45  F013         	goto	l4237
  2777   002676                     u2300:
  2778   002676                     
  2779                           ; BSR set to: 0
  2780                           ;C:\Program Files\Microchip\xc8\v2.40\pic\sources\c99\common\doprnt.c: 140:         fput
      +                          s((const char *)buf, fp);
  2781   002676  C074  F06B         	movff	pad@buf,fputs@s
  2782   00267A  C075  F06C         	movff	pad@buf+1,fputs@s+1
  2783   00267E  C072  F06D         	movff	pad@fp,fputs@fp
  2784   002682  C073  F06E         	movff	pad@fp+1,fputs@fp+1
  2785   002686  ECC8  F014         	call	_fputs	;wreg free
  2786   00268A                     l4237:
  2787                           
  2788                           ;C:\Program Files\Microchip\xc8\v2.40\pic\sources\c99\common\doprnt.c: 145:     w = (p <
      +                           0) ? 0 : p;
  2789   00268A  0100               	movlb	0	; () banked
  2790   00268C  BF77               	btfsc	(pad@p+1)& (0+255),7,b
  2791   00268E  EF4B  F013         	goto	u2311
  2792   002692  EF4D  F013         	goto	u2310
  2793   002696                     u2311:
  2794   002696  EF53  F013         	goto	l4241
  2795   00269A                     u2310:
  2796   00269A                     
  2797                           ; BSR set to: 0
  2798   00269A  C076  F07B         	movff	pad@p,pad@w
  2799   00269E  C077  F07C         	movff	pad@p+1,pad@w+1
  2800   0026A2  EF57  F013         	goto	l1600
  2801   0026A6                     l4241:
  2802                           
  2803                           ; BSR set to: 0
  2804   0026A6  0E00               	movlw	0
  2805   0026A8  6F7C               	movwf	(pad@w+1)& (0+255),b
  2806   0026AA  0E00               	movlw	0
  2807   0026AC  6F7B               	movwf	pad@w& (0+255),b
  2808   0026AE                     l1600:
  2809                           
  2810                           ; BSR set to: 0
  2811                           ;C:\Program Files\Microchip\xc8\v2.40\pic\sources\c99\common\doprnt.c: 146:     i = 0;
  2812   0026AE  0E00               	movlw	0
  2813   0026B0  6F7A               	movwf	(pad@i+1)& (0+255),b
  2814   0026B2  0E00               	movlw	0
  2815   0026B4  6F79               	movwf	pad@i& (0+255),b
  2816                           
  2817                           ;C:\Program Files\Microchip\xc8\v2.40\pic\sources\c99\common\doprnt.c: 147:     while (i
      +                           < w) {
  2818   0026B6  EF6A  F013         	goto	l4247
  2819   0026BA                     l4243:
  2820                           
  2821                           ; BSR set to: 0
  2822                           ;C:\Program Files\Microchip\xc8\v2.40\pic\sources\c99\common\doprnt.c: 148:         fput
      +                          c(' ', fp);
  2823   0026BA  0E00               	movlw	0
  2824   0026BC  6F63               	movwf	(fputc@c+1)& (0+255),b
  2825   0026BE  0E20               	movlw	32
  2826   0026C0  6F62               	movwf	fputc@c& (0+255),b
  2827   0026C2  C072  F064         	movff	pad@fp,fputc@fp
  2828   0026C6  C073  F065         	movff	pad@fp+1,fputc@fp+1
  2829   0026CA  EC8B  F013         	call	_fputc	;wreg free
  2830   0026CE                     
  2831                           ;C:\Program Files\Microchip\xc8\v2.40\pic\sources\c99\common\doprnt.c: 149:         ++i;
  2832   0026CE  0100               	movlb	0	; () banked
  2833   0026D0  4B79               	infsnz	pad@i& (0+255),f,b
  2834   0026D2  2B7A               	incf	(pad@i+1)& (0+255),f,b
  2835   0026D4                     l4247:
  2836                           
  2837                           ; BSR set to: 0
  2838                           ;C:\Program Files\Microchip\xc8\v2.40\pic\sources\c99\common\doprnt.c: 147:     while (i
      +                           < w) {
  2839   0026D4  517B               	movf	pad@w& (0+255),w,b
  2840   0026D6  5D79               	subwf	pad@i& (0+255),w,b
  2841   0026D8  517A               	movf	(pad@i+1)& (0+255),w,b
  2842   0026DA  0A80               	xorlw	128
  2843   0026DC  6F78               	movwf	??_pad& (0+255),b
  2844   0026DE  517C               	movf	(pad@w+1)& (0+255),w,b
  2845   0026E0  0A80               	xorlw	128
  2846   0026E2  5978               	subwfb	??_pad& (0+255),w,b
  2847   0026E4  A0D8               	btfss	status,0,c
  2848   0026E6  EF77  F013         	goto	u2321
  2849   0026EA  EF79  F013         	goto	u2320
  2850   0026EE                     u2321:
  2851   0026EE  EF5D  F013         	goto	l4243
  2852   0026F2                     u2320:
  2853   0026F2                     
  2854                           ; BSR set to: 0
  2855                           ;C:\Program Files\Microchip\xc8\v2.40\pic\sources\c99\common\doprnt.c: 154:     if (!(fl
      +                          ags & (1 << 0))) {
  2856   0026F2  B1E1               	btfsc	_flags& (0+255),0,b
  2857   0026F4  EF7E  F013         	goto	u2331
  2858   0026F8  EF80  F013         	goto	u2330
  2859   0026FC                     u2331:
  2860   0026FC  EF8A  F013         	goto	l1605
  2861   002700                     u2330:
  2862   002700                     
  2863                           ; BSR set to: 0
  2864                           ;C:\Program Files\Microchip\xc8\v2.40\pic\sources\c99\common\doprnt.c: 156:         fput
      +                          s((const char *)buf, fp);
  2865   002700  C074  F06B         	movff	pad@buf,fputs@s
  2866   002704  C075  F06C         	movff	pad@buf+1,fputs@s+1
  2867   002708  C072  F06D         	movff	pad@fp,fputs@fp
  2868   00270C  C073  F06E         	movff	pad@fp+1,fputs@fp+1
  2869   002710  ECC8  F014         	call	_fputs	;wreg free
  2870   002714                     l1605:
  2871   002714  0012               	return		;funcret
  2872   002716                     __end_of_pad:
  2873                           	callstack 0
  2874                           
  2875 ;; *************** function _fputs *****************
  2876 ;; Defined at:
  2877 ;;		line 8 in file "C:\Program Files\Microchip\xc8\v2.40\pic\sources\c99\common\nf_fputs.c"
  2878 ;; Parameters:    Size  Location     Type
  2879 ;;  s               2   11[BANK0 ] PTR const unsigned char 
  2880 ;;		 -> dbuf(32), 
  2881 ;;  fp              2   13[BANK0 ] PTR struct _IO_FILE
  2882 ;;		 -> NULL(0), 
  2883 ;; Auto vars:     Size  Location     Type
  2884 ;;  i               2   16[BANK0 ] int 
  2885 ;;  c               1   15[BANK0 ] unsigned char 
  2886 ;; Return value:  Size  Location     Type
  2887 ;;                  2   11[BANK0 ] int 
  2888 ;; Registers used:
  2889 ;;		wreg, fsr1l, fsr1h, fsr2l, fsr2h, status,2, status,0, cstack
  2890 ;; Tracked objects:
  2891 ;;		On entry : 0/0
  2892 ;;		On exit  : 0/0
  2893 ;;		Unchanged: 0/0
  2894 ;; Data sizes:     COMRAM   BANK0   BANK1   BANK2   BANK3   BANK4   BANK5   BANK6   BANK7   BANK8   BANK9  BANK10  BANK1
      +1  BANK12  BANK13  BANK14
  2895 ;;      Params:         0       4       0       0       0       0       0       0       0       0       0       0       
      +0       0       0       0
  2896 ;;      Locals:         0       3       0       0       0       0       0       0       0       0       0       0       
      +0       0       0       0
  2897 ;;      Temps:          0       0       0       0       0       0       0       0       0       0       0       0       
      +0       0       0       0
  2898 ;;      Totals:         0       7       0       0       0       0       0       0       0       0       0       0       
      +0       0       0       0
  2899 ;;Total ram usage:        7 bytes
  2900 ;; Hardware stack levels used: 1
  2901 ;; Hardware stack levels required when called: 8
  2902 ;; This function calls:
  2903 ;;		_fputc
  2904 ;; This function is called by:
  2905 ;;		_pad
  2906 ;; This function uses a non-reentrant model
  2907 ;;
  2908                           
  2909                           	psect	text8
  2910   002990                     __ptext8:
  2911                           	callstack 0
  2912   002990                     _fputs:
  2913                           	callstack 17
  2914   002990  0E00               	movlw	0
  2915   002992  0100               	movlb	0	; () banked
  2916   002994  6F71               	movwf	(fputs@i+1)& (0+255),b
  2917   002996  0E00               	movlw	0
  2918   002998  6F70               	movwf	fputs@i& (0+255),b
  2919   00299A  EFDB  F014         	goto	l4145
  2920   00299E                     l4141:
  2921                           
  2922                           ; BSR set to: 0
  2923   00299E  C06F  F062         	movff	fputs@c,fputc@c
  2924   0029A2  6B63               	clrf	(fputc@c+1)& (0+255),b
  2925   0029A4  C06D  F064         	movff	fputs@fp,fputc@fp
  2926   0029A8  C06E  F065         	movff	fputs@fp+1,fputc@fp+1
  2927   0029AC  EC8B  F013         	call	_fputc	;wreg free
  2928   0029B0  0100               	movlb	0	; () banked
  2929   0029B2  4B70               	infsnz	fputs@i& (0+255),f,b
  2930   0029B4  2B71               	incf	(fputs@i+1)& (0+255),f,b
  2931   0029B6                     l4145:
  2932                           
  2933                           ; BSR set to: 0
  2934   0029B6  5170               	movf	fputs@i& (0+255),w,b
  2935   0029B8  256B               	addwf	fputs@s& (0+255),w,b
  2936   0029BA  6ED9               	movwf	fsr2l,c
  2937   0029BC  5171               	movf	(fputs@i+1)& (0+255),w,b
  2938   0029BE  216C               	addwfc	(fputs@s+1)& (0+255),w,b
  2939   0029C0  6EDA               	movwf	fsr2h,c
  2940   0029C2  50DF               	movf	indf2,w,c
  2941   0029C4  6F6F               	movwf	fputs@c& (0+255),b
  2942   0029C6  516F               	movf	fputs@c& (0+255),w,b
  2943   0029C8  A4D8               	btfss	status,2,c
  2944   0029CA  EFE9  F014         	goto	u2161
  2945   0029CE  EFEB  F014         	goto	u2160
  2946   0029D2                     u2161:
  2947   0029D2  EFCF  F014         	goto	l4141
  2948   0029D6                     u2160:
  2949   0029D6                     
  2950                           ; BSR set to: 0
  2951   0029D6  0012               	return		;funcret
  2952   0029D8                     __end_of_fputs:
  2953                           	callstack 0
  2954                           
  2955 ;; *************** function _fputc *****************
  2956 ;; Defined at:
  2957 ;;		line 8 in file "C:\Program Files\Microchip\xc8\v2.40\pic\sources\c99\common\nf_fputc.c"
  2958 ;; Parameters:    Size  Location     Type
  2959 ;;  c               2    2[BANK0 ] int 
  2960 ;;  fp              2    4[BANK0 ] PTR struct _IO_FILE
  2961 ;;		 -> NULL(0), 
  2962 ;; Auto vars:     Size  Location     Type
  2963 ;;		None
  2964 ;; Return value:  Size  Location     Type
  2965 ;;                  2    2[BANK0 ] int 
  2966 ;; Registers used:
  2967 ;;		wreg, fsr1l, fsr1h, fsr2l, fsr2h, status,2, status,0, cstack
  2968 ;; Tracked objects:
  2969 ;;		On entry : 0/0
  2970 ;;		On exit  : 0/0
  2971 ;;		Unchanged: 0/0
  2972 ;; Data sizes:     COMRAM   BANK0   BANK1   BANK2   BANK3   BANK4   BANK5   BANK6   BANK7   BANK8   BANK9  BANK10  BANK1
      +1  BANK12  BANK13  BANK14
  2973 ;;      Params:         0       4       0       0       0       0       0       0       0       0       0       0       
      +0       0       0       0
  2974 ;;      Locals:         0       0       0       0       0       0       0       0       0       0       0       0       
      +0       0       0       0
  2975 ;;      Temps:          0       5       0       0       0       0       0       0       0       0       0       0       
      +0       0       0       0
  2976 ;;      Totals:         0       9       0       0       0       0       0       0       0       0       0       0       
      +0       0       0       0
  2977 ;;Total ram usage:        9 bytes
  2978 ;; Hardware stack levels used: 1
  2979 ;; Hardware stack levels required when called: 7
  2980 ;; This function calls:
  2981 ;;		_putch
  2982 ;; This function is called by:
  2983 ;;		_pad
  2984 ;;		_vfpfcnvrt
  2985 ;;		_fputs
  2986 ;; This function uses a non-reentrant model
  2987 ;;
  2988                           
  2989                           	psect	text9
  2990   002716                     __ptext9:
  2991                           	callstack 0
  2992   002716                     _fputc:
  2993                           	callstack 20
  2994   002716  0100               	movlb	0	; () banked
  2995   002718  5164               	movf	fputc@fp& (0+255),w,b
  2996   00271A  1165               	iorwf	(fputc@fp+1)& (0+255),w,b
  2997   00271C  B4D8               	btfsc	status,2,c
  2998   00271E  EF93  F013         	goto	u2121
  2999   002722  EF95  F013         	goto	u2120
  3000   002726                     u2121:
  3001   002726  EF9E  F013         	goto	l4129
  3002   00272A                     u2120:
  3003   00272A                     
  3004                           ; BSR set to: 0
  3005   00272A  5164               	movf	fputc@fp& (0+255),w,b
  3006   00272C  1165               	iorwf	(fputc@fp+1)& (0+255),w,b
  3007   00272E  A4D8               	btfss	status,2,c
  3008   002730  EF9C  F013         	goto	u2131
  3009   002734  EF9E  F013         	goto	u2130
  3010   002738                     u2131:
  3011   002738  EFA3  F013         	goto	l4131
  3012   00273C                     u2130:
  3013   00273C                     l4129:
  3014                           
  3015                           ; BSR set to: 0
  3016   00273C  5162               	movf	fputc@c& (0+255),w,b
  3017   00273E  ECF0  F016         	call	_putch
  3018   002742  EFD6  F013         	goto	l1703
  3019   002746                     l4131:
  3020                           
  3021                           ; BSR set to: 0
  3022   002746  EE20 F009          	lfsr	2,9
  3023   00274A  5164               	movf	fputc@fp& (0+255),w,b
  3024   00274C  26D9               	addwf	fsr2l,f,c
  3025   00274E  5165               	movf	(fputc@fp+1)& (0+255),w,b
  3026   002750  22DA               	addwfc	fsr2h,f,c
  3027   002752  50DE               	movf	postinc2,w,c
  3028   002754  10DE               	iorwf	postinc2,w,c
  3029   002756  B4D8               	btfsc	status,2,c
  3030   002758  EFB0  F013         	goto	u2141
  3031   00275C  EFB2  F013         	goto	u2140
  3032   002760                     u2141:
  3033   002760  EFCD  F013         	goto	l4135
  3034   002764                     u2140:
  3035   002764                     
  3036                           ; BSR set to: 0
  3037   002764  EE20 F009          	lfsr	2,9
  3038   002768  5164               	movf	fputc@fp& (0+255),w,b
  3039   00276A  26D9               	addwf	fsr2l,f,c
  3040   00276C  5165               	movf	(fputc@fp+1)& (0+255),w,b
  3041   00276E  22DA               	addwfc	fsr2h,f,c
  3042   002770  EE10 F003          	lfsr	1,3
  3043   002774  5164               	movf	fputc@fp& (0+255),w,b
  3044   002776  26E1               	addwf	fsr1l,f,c
  3045   002778  5165               	movf	(fputc@fp+1)& (0+255),w,b
  3046   00277A  22E2               	addwfc	fsr1h,f,c
  3047   00277C  50DE               	movf	postinc2,w,c
  3048   00277E  5CE6               	subwf	postinc1,w,c
  3049   002780  50E6               	movf	postinc1,w,c
  3050   002782  0A80               	xorlw	128
  3051   002784  6F6A               	movwf	(??_fputc+4)& (0+255),b
  3052   002786  50DE               	movf	postinc2,w,c
  3053   002788  0A80               	xorlw	128
  3054   00278A  596A               	subwfb	(??_fputc+4)& (0+255),w,b
  3055   00278C  B0D8               	btfsc	status,0,c
  3056   00278E  EFCB  F013         	goto	u2151
  3057   002792  EFCD  F013         	goto	u2150
  3058   002796                     u2151:
  3059   002796  EFD6  F013         	goto	l1703
  3060   00279A                     u2150:
  3061   00279A                     l4135:
  3062                           
  3063                           ; BSR set to: 0
  3064   00279A  EE20 F003          	lfsr	2,3
  3065   00279E  5164               	movf	fputc@fp& (0+255),w,b
  3066   0027A0  26D9               	addwf	fsr2l,f,c
  3067   0027A2  5165               	movf	(fputc@fp+1)& (0+255),w,b
  3068   0027A4  22DA               	addwfc	fsr2h,f,c
  3069   0027A6  2ADE               	incf	postinc2,f,c
  3070   0027A8  0E00               	movlw	0
  3071   0027AA  22DD               	addwfc	postdec2,f,c
  3072   0027AC                     l1703:
  3073   0027AC  0012               	return		;funcret
  3074   0027AE                     __end_of_fputc:
  3075                           	callstack 0
  3076                           
  3077 ;; *************** function _putch *****************
  3078 ;; Defined at:
  3079 ;;		line 146 in file "mcc_generated_files/eusart1.c"
  3080 ;; Parameters:    Size  Location     Type
  3081 ;;  txData          1    wreg     unsigned char 
  3082 ;; Auto vars:     Size  Location     Type
  3083 ;;  txData          1    1[BANK0 ] unsigned char 
  3084 ;; Return value:  Size  Location     Type
  3085 ;;                  1    wreg      void 
  3086 ;; Registers used:
  3087 ;;		wreg, status,2, cstack
  3088 ;; Tracked objects:
  3089 ;;		On entry : 0/0
  3090 ;;		On exit  : 0/0
  3091 ;;		Unchanged: 0/0
  3092 ;; Data sizes:     COMRAM   BANK0   BANK1   BANK2   BANK3   BANK4   BANK5   BANK6   BANK7   BANK8   BANK9  BANK10  BANK1
      +1  BANK12  BANK13  BANK14
  3093 ;;      Params:         0       0       0       0       0       0       0       0       0       0       0       0       
      +0       0       0       0
  3094 ;;      Locals:         0       1       0       0       0       0       0       0       0       0       0       0       
      +0       0       0       0
  3095 ;;      Temps:          0       0       0       0       0       0       0       0       0       0       0       0       
      +0       0       0       0
  3096 ;;      Totals:         0       1       0       0       0       0       0       0       0       0       0       0       
      +0       0       0       0
  3097 ;;Total ram usage:        1 bytes
  3098 ;; Hardware stack levels used: 1
  3099 ;; Hardware stack levels required when called: 6
  3100 ;; This function calls:
  3101 ;;		_EUSART1_Write
  3102 ;; This function is called by:
  3103 ;;		_fputc
  3104 ;; This function uses a non-reentrant model
  3105 ;;
  3106                           
  3107                           	psect	text10
  3108   002DE0                     __ptext10:
  3109                           	callstack 0
  3110   002DE0                     _putch:
  3111                           	callstack 20
  3112                           
  3113                           ;incstack = 0
  3114                           ;putch@txData stored from wreg
  3115   002DE0  0100               	movlb	0	; () banked
  3116   002DE2  6F61               	movwf	putch@txData& (0+255),b
  3117   002DE4                     
  3118                           ;mcc_generated_files/eusart1.c: 146: void putch(char txData);mcc_generated_files/eusart1
      +                          .c: 147: {;mcc_generated_files/eusart1.c: 148:     EUSART1_Write(txData);
  3119   002DE4  0100               	movlb	0	; () banked
  3120   002DE6  5161               	movf	putch@txData& (0+255),w,b
  3121   002DE8  ECBC  F016         	call	_EUSART1_Write
  3122   002DEC  0012               	return		;funcret
  3123   002DEE                     __end_of_putch:
  3124                           	callstack 0
  3125                           
  3126 ;; *************** function _EUSART1_Write *****************
  3127 ;; Defined at:
  3128 ;;		line 132 in file "mcc_generated_files/eusart1.c"
  3129 ;; Parameters:    Size  Location     Type
  3130 ;;  txData          1    wreg     unsigned char 
  3131 ;; Auto vars:     Size  Location     Type
  3132 ;;  txData          1    0[BANK0 ] unsigned char 
  3133 ;; Return value:  Size  Location     Type
  3134 ;;                  1    wreg      void 
  3135 ;; Registers used:
  3136 ;;		wreg
  3137 ;; Tracked objects:
  3138 ;;		On entry : 0/0
  3139 ;;		On exit  : 0/0
  3140 ;;		Unchanged: 0/0
  3141 ;; Data sizes:     COMRAM   BANK0   BANK1   BANK2   BANK3   BANK4   BANK5   BANK6   BANK7   BANK8   BANK9  BANK10  BANK1
      +1  BANK12  BANK13  BANK14
  3142 ;;      Params:         0       0       0       0       0       0       0       0       0       0       0       0       
      +0       0       0       0
  3143 ;;      Locals:         0       1       0       0       0       0       0       0       0       0       0       0       
      +0       0       0       0
  3144 ;;      Temps:          0       0       0       0       0       0       0       0       0       0       0       0       
      +0       0       0       0
  3145 ;;      Totals:         0       1       0       0       0       0       0       0       0       0       0       0       
      +0       0       0       0
  3146 ;;Total ram usage:        1 bytes
  3147 ;; Hardware stack levels used: 1
  3148 ;; Hardware stack levels required when called: 5
  3149 ;; This function calls:
  3150 ;;		Nothing
  3151 ;; This function is called by:
  3152 ;;		_putch
  3153 ;; This function uses a non-reentrant model
  3154 ;;
  3155                           
  3156                           	psect	text11
  3157   002D78                     __ptext11:
  3158                           	callstack 0
  3159   002D78                     _EUSART1_Write:
  3160                           	callstack 20
  3161                           
  3162                           ;incstack = 0
  3163                           ;EUSART1_Write@txData stored from wreg
  3164   002D78  0100               	movlb	0	; () banked
  3165   002D7A  6F60               	movwf	EUSART1_Write@txData& (0+255),b
  3166   002D7C                     l141:
  3167                           
  3168                           ;mcc_generated_files/eusart1.c: 134:     while(0 == PIR1bits.TX1IF)
  3169   002D7C  A89E               	btfss	158,4,c	;volatile
  3170   002D7E  EFC3  F016         	goto	u2111
  3171   002D82  EFC5  F016         	goto	u2110
  3172   002D86                     u2111:
  3173   002D86  EFBE  F016         	goto	l141
  3174   002D8A                     u2110:
  3175   002D8A                     
  3176                           ;mcc_generated_files/eusart1.c: 138:     TXREG1 = txData;
  3177   002D8A  C060  FFAD         	movff	EUSART1_Write@txData,4013	;volatile
  3178   002D8E  0012               	return		;funcret
  3179   002D90                     __end_of_EUSART1_Write:
  3180                           	callstack 0
  3181                           
  3182 ;; *************** function _abs *****************
  3183 ;; Defined at:
  3184 ;;		line 1 in file "C:\Program Files\Microchip\xc8\v2.40\pic\sources\c99\common\abs.c"
  3185 ;; Parameters:    Size  Location     Type
  3186 ;;  a               2   18[BANK0 ] int 
  3187 ;; Auto vars:     Size  Location     Type
  3188 ;;		None
  3189 ;; Return value:  Size  Location     Type
  3190 ;;                  2   18[BANK0 ] int 
  3191 ;; Registers used:
  3192 ;;		wreg, status,2, status,0
  3193 ;; Tracked objects:
  3194 ;;		On entry : 0/0
  3195 ;;		On exit  : 0/0
  3196 ;;		Unchanged: 0/0
  3197 ;; Data sizes:     COMRAM   BANK0   BANK1   BANK2   BANK3   BANK4   BANK5   BANK6   BANK7   BANK8   BANK9  BANK10  BANK1
      +1  BANK12  BANK13  BANK14
  3198 ;;      Params:         0       2       0       0       0       0       0       0       0       0       0       0       
      +0       0       0       0
  3199 ;;      Locals:         0       0       0       0       0       0       0       0       0       0       0       0       
      +0       0       0       0
  3200 ;;      Temps:          0       2       0       0       0       0       0       0       0       0       0       0       
      +0       0       0       0
  3201 ;;      Totals:         0       4       0       0       0       0       0       0       0       0       0       0       
      +0       0       0       0
  3202 ;;Total ram usage:        4 bytes
  3203 ;; Hardware stack levels used: 1
  3204 ;; Hardware stack levels required when called: 5
  3205 ;; This function calls:
  3206 ;;		Nothing
  3207 ;; This function is called by:
  3208 ;;		_dtoa
  3209 ;; This function uses a non-reentrant model
  3210 ;;
  3211                           
  3212                           	psect	text12
  3213   002A64                     __ptext12:
  3214                           	callstack 0
  3215   002A64                     _abs:
  3216                           	callstack 21
  3217   002A64  0100               	movlb	0	; () banked
  3218   002A66  BF73               	btfsc	(abs@a+1)& (0+255),7,b
  3219   002A68  EF40  F015         	goto	u2340
  3220   002A6C  5173               	movf	(abs@a+1)& (0+255),w,b
  3221   002A6E  E106               	bnz	u2341
  3222   002A70  0572               	decf	abs@a& (0+255),w,b
  3223   002A72  B0D8               	btfsc	status,0,c
  3224   002A74  EF3E  F015         	goto	u2341
  3225   002A78  EF40  F015         	goto	u2340
  3226   002A7C                     u2341:
  3227   002A7C  EF4E  F015         	goto	l1649
  3228   002A80                     u2340:
  3229   002A80                     
  3230                           ; BSR set to: 0
  3231   002A80  C072  F074         	movff	abs@a,??_abs
  3232   002A84  C073  F075         	movff	abs@a+1,??_abs+1
  3233   002A88  1F74               	comf	??_abs& (0+255),f,b
  3234   002A8A  1F75               	comf	(??_abs+1)& (0+255),f,b
  3235   002A8C  4B74               	infsnz	??_abs& (0+255),f,b
  3236   002A8E  2B75               	incf	(??_abs+1)& (0+255),f,b
  3237   002A90  C074  F072         	movff	??_abs,?_abs
  3238   002A94  C075  F073         	movff	??_abs+1,?_abs+1
  3239   002A98  EF52  F015         	goto	l1652
  3240   002A9C                     l1649:
  3241                           
  3242                           ; BSR set to: 0
  3243   002A9C  C072  F072         	movff	abs@a,?_abs
  3244   002AA0  C073  F073         	movff	abs@a+1,?_abs+1
  3245   002AA4                     l1652:
  3246                           
  3247                           ; BSR set to: 0
  3248   002AA4  0012               	return		;funcret
  3249   002AA6                     __end_of_abs:
  3250                           	callstack 0
  3251                           
  3252 ;; *************** function ___aomod *****************
  3253 ;; Defined at:
  3254 ;;		line 9 in file "C:\Program Files\Microchip\xc8\v2.40\pic\sources\c99\common\aomod.c"
  3255 ;; Parameters:    Size  Location     Type
  3256 ;;  dividend        8    0[BANK0 ] long long 
  3257 ;;  divisor         8    8[BANK0 ] long long 
  3258 ;; Auto vars:     Size  Location     Type
  3259 ;;  sign            1   17[BANK0 ] unsigned char 
  3260 ;;  counter         1   16[BANK0 ] unsigned char 
  3261 ;; Return value:  Size  Location     Type
  3262 ;;                  8    0[BANK0 ] long long 
  3263 ;; Registers used:
  3264 ;;		wreg, status,2, status,0
  3265 ;; Tracked objects:
  3266 ;;		On entry : 0/0
  3267 ;;		On exit  : 0/0
  3268 ;;		Unchanged: 0/0
  3269 ;; Data sizes:     COMRAM   BANK0   BANK1   BANK2   BANK3   BANK4   BANK5   BANK6   BANK7   BANK8   BANK9  BANK10  BANK1
      +1  BANK12  BANK13  BANK14
  3270 ;;      Params:         0      16       0       0       0       0       0       0       0       0       0       0       
      +0       0       0       0
  3271 ;;      Locals:         0       2       0       0       0       0       0       0       0       0       0       0       
      +0       0       0       0
  3272 ;;      Temps:          0       0       0       0       0       0       0       0       0       0       0       0       
      +0       0       0       0
  3273 ;;      Totals:         0      18       0       0       0       0       0       0       0       0       0       0       
      +0       0       0       0
  3274 ;;Total ram usage:       18 bytes
  3275 ;; Hardware stack levels used: 1
  3276 ;; Hardware stack levels required when called: 5
  3277 ;; This function calls:
  3278 ;;		Nothing
  3279 ;; This function is called by:
  3280 ;;		_dtoa
  3281 ;; This function uses a non-reentrant model
  3282 ;;
  3283                           
  3284                           	psect	text13
  3285   0020A0                     __ptext13:
  3286                           	callstack 0
  3287   0020A0                     ___aomod:
  3288                           	callstack 21
  3289   0020A0  0E00               	movlw	0
  3290   0020A2  0100               	movlb	0	; () banked
  3291   0020A4  6F71               	movwf	___aomod@sign& (0+255),b
  3292   0020A6                     
  3293                           ; BSR set to: 0
  3294   0020A6  BF67               	btfsc	(___aomod@dividend+7)& (0+255),7,b
  3295   0020A8  EF5A  F010         	goto	u2240
  3296   0020AC  EF58  F010         	goto	u2241
  3297   0020B0                     u2241:
  3298   0020B0  EF6C  F010         	goto	l4205
  3299   0020B4                     u2240:
  3300   0020B4                     
  3301                           ; BSR set to: 0
  3302   0020B4  1F67               	comf	(___aomod@dividend+7)& (0+255),f,b
  3303   0020B6  1F66               	comf	(___aomod@dividend+6)& (0+255),f,b
  3304   0020B8  1F65               	comf	(___aomod@dividend+5)& (0+255),f,b
  3305   0020BA  1F64               	comf	(___aomod@dividend+4)& (0+255),f,b
  3306   0020BC  1F63               	comf	(___aomod@dividend+3)& (0+255),f,b
  3307   0020BE  1F62               	comf	(___aomod@dividend+2)& (0+255),f,b
  3308   0020C0  1F61               	comf	(___aomod@dividend+1)& (0+255),f,b
  3309   0020C2  6D60               	negf	___aomod@dividend& (0+255),b
  3310   0020C4  0E00               	movlw	0
  3311   0020C6  2361               	addwfc	(___aomod@dividend+1)& (0+255),f,b
  3312   0020C8  2362               	addwfc	(___aomod@dividend+2)& (0+255),f,b
  3313   0020CA  2363               	addwfc	(___aomod@dividend+3)& (0+255),f,b
  3314   0020CC  2364               	addwfc	(___aomod@dividend+4)& (0+255),f,b
  3315   0020CE  2365               	addwfc	(___aomod@dividend+5)& (0+255),f,b
  3316   0020D0  2366               	addwfc	(___aomod@dividend+6)& (0+255),f,b
  3317   0020D2  2367               	addwfc	(___aomod@dividend+7)& (0+255),f,b
  3318   0020D4                     
  3319                           ; BSR set to: 0
  3320   0020D4  0E01               	movlw	1
  3321   0020D6  6F71               	movwf	___aomod@sign& (0+255),b
  3322   0020D8                     l4205:
  3323                           
  3324                           ; BSR set to: 0
  3325   0020D8  BF6F               	btfsc	(___aomod@divisor+7)& (0+255),7,b
  3326   0020DA  EF73  F010         	goto	u2250
  3327   0020DE  EF71  F010         	goto	u2251
  3328   0020E2                     u2251:
  3329   0020E2  EF83  F010         	goto	l4209
  3330   0020E6                     u2250:
  3331   0020E6                     
  3332                           ; BSR set to: 0
  3333   0020E6  1F6F               	comf	(___aomod@divisor+7)& (0+255),f,b
  3334   0020E8  1F6E               	comf	(___aomod@divisor+6)& (0+255),f,b
  3335   0020EA  1F6D               	comf	(___aomod@divisor+5)& (0+255),f,b
  3336   0020EC  1F6C               	comf	(___aomod@divisor+4)& (0+255),f,b
  3337   0020EE  1F6B               	comf	(___aomod@divisor+3)& (0+255),f,b
  3338   0020F0  1F6A               	comf	(___aomod@divisor+2)& (0+255),f,b
  3339   0020F2  1F69               	comf	(___aomod@divisor+1)& (0+255),f,b
  3340   0020F4  6D68               	negf	___aomod@divisor& (0+255),b
  3341   0020F6  0E00               	movlw	0
  3342   0020F8  2369               	addwfc	(___aomod@divisor+1)& (0+255),f,b
  3343   0020FA  236A               	addwfc	(___aomod@divisor+2)& (0+255),f,b
  3344   0020FC  236B               	addwfc	(___aomod@divisor+3)& (0+255),f,b
  3345   0020FE  236C               	addwfc	(___aomod@divisor+4)& (0+255),f,b
  3346   002100  236D               	addwfc	(___aomod@divisor+5)& (0+255),f,b
  3347   002102  236E               	addwfc	(___aomod@divisor+6)& (0+255),f,b
  3348   002104  236F               	addwfc	(___aomod@divisor+7)& (0+255),f,b
  3349   002106                     l4209:
  3350                           
  3351                           ; BSR set to: 0
  3352   002106  5168               	movf	___aomod@divisor& (0+255),w,b
  3353   002108  1169               	iorwf	(___aomod@divisor+1)& (0+255),w,b
  3354   00210A  116A               	iorwf	(___aomod@divisor+2)& (0+255),w,b
  3355   00210C  116B               	iorwf	(___aomod@divisor+3)& (0+255),w,b
  3356   00210E  116C               	iorwf	(___aomod@divisor+4)& (0+255),w,b
  3357   002110  116D               	iorwf	(___aomod@divisor+5)& (0+255),w,b
  3358   002112  116E               	iorwf	(___aomod@divisor+6)& (0+255),w,b
  3359   002114  116F               	iorwf	(___aomod@divisor+7)& (0+255),w,b
  3360   002116  B4D8               	btfsc	status,2,c
  3361   002118  EF90  F010         	goto	u2261
  3362   00211C  EF92  F010         	goto	u2260
  3363   002120                     u2261:
  3364   002120  EFDA  F010         	goto	l4225
  3365   002124                     u2260:
  3366   002124                     
  3367                           ; BSR set to: 0
  3368   002124  0E01               	movlw	1
  3369   002126  6F70               	movwf	___aomod@counter& (0+255),b
  3370   002128  EFA0  F010         	goto	l4215
  3371   00212C                     l4213:
  3372                           
  3373                           ; BSR set to: 0
  3374   00212C  90D8               	bcf	status,0,c
  3375   00212E  3768               	rlcf	___aomod@divisor& (0+255),f,b
  3376   002130  3769               	rlcf	(___aomod@divisor+1)& (0+255),f,b
  3377   002132  376A               	rlcf	(___aomod@divisor+2)& (0+255),f,b
  3378   002134  376B               	rlcf	(___aomod@divisor+3)& (0+255),f,b
  3379   002136  376C               	rlcf	(___aomod@divisor+4)& (0+255),f,b
  3380   002138  376D               	rlcf	(___aomod@divisor+5)& (0+255),f,b
  3381   00213A  376E               	rlcf	(___aomod@divisor+6)& (0+255),f,b
  3382   00213C  376F               	rlcf	(___aomod@divisor+7)& (0+255),f,b
  3383   00213E  2B70               	incf	___aomod@counter& (0+255),f,b
  3384   002140                     l4215:
  3385                           
  3386                           ; BSR set to: 0
  3387   002140  AF6F               	btfss	(___aomod@divisor+7)& (0+255),7,b
  3388   002142  EFA5  F010         	goto	u2271
  3389   002146  EFA7  F010         	goto	u2270
  3390   00214A                     u2271:
  3391   00214A  EF96  F010         	goto	l4213
  3392   00214E                     u2270:
  3393   00214E                     l4217:
  3394                           
  3395                           ; BSR set to: 0
  3396   00214E  5168               	movf	___aomod@divisor& (0+255),w,b
  3397   002150  5D60               	subwf	___aomod@dividend& (0+255),w,b
  3398   002152  5169               	movf	(___aomod@divisor+1)& (0+255),w,b
  3399   002154  5961               	subwfb	(___aomod@dividend+1)& (0+255),w,b
  3400   002156  516A               	movf	(___aomod@divisor+2)& (0+255),w,b
  3401   002158  5962               	subwfb	(___aomod@dividend+2)& (0+255),w,b
  3402   00215A  516B               	movf	(___aomod@divisor+3)& (0+255),w,b
  3403   00215C  5963               	subwfb	(___aomod@dividend+3)& (0+255),w,b
  3404   00215E  516C               	movf	(___aomod@divisor+4)& (0+255),w,b
  3405   002160  5964               	subwfb	(___aomod@dividend+4)& (0+255),w,b
  3406   002162  516D               	movf	(___aomod@divisor+5)& (0+255),w,b
  3407   002164  5965               	subwfb	(___aomod@dividend+5)& (0+255),w,b
  3408   002166  516E               	movf	(___aomod@divisor+6)& (0+255),w,b
  3409   002168  5966               	subwfb	(___aomod@dividend+6)& (0+255),w,b
  3410   00216A  516F               	movf	(___aomod@divisor+7)& (0+255),w,b
  3411   00216C  5967               	subwfb	(___aomod@dividend+7)& (0+255),w,b
  3412   00216E  A0D8               	btfss	status,0,c
  3413   002170  EFBC  F010         	goto	u2281
  3414   002174  EFBE  F010         	goto	u2280
  3415   002178                     u2281:
  3416   002178  EFCE  F010         	goto	l4221
  3417   00217C                     u2280:
  3418   00217C                     
  3419                           ; BSR set to: 0
  3420   00217C  5168               	movf	___aomod@divisor& (0+255),w,b
  3421   00217E  5F60               	subwf	___aomod@dividend& (0+255),f,b
  3422   002180  5169               	movf	(___aomod@divisor+1)& (0+255),w,b
  3423   002182  5B61               	subwfb	(___aomod@dividend+1)& (0+255),f,b
  3424   002184  516A               	movf	(___aomod@divisor+2)& (0+255),w,b
  3425   002186  5B62               	subwfb	(___aomod@dividend+2)& (0+255),f,b
  3426   002188  516B               	movf	(___aomod@divisor+3)& (0+255),w,b
  3427   00218A  5B63               	subwfb	(___aomod@dividend+3)& (0+255),f,b
  3428   00218C  516C               	movf	(___aomod@divisor+4)& (0+255),w,b
  3429   00218E  5B64               	subwfb	(___aomod@dividend+4)& (0+255),f,b
  3430   002190  516D               	movf	(___aomod@divisor+5)& (0+255),w,b
  3431   002192  5B65               	subwfb	(___aomod@dividend+5)& (0+255),f,b
  3432   002194  516E               	movf	(___aomod@divisor+6)& (0+255),w,b
  3433   002196  5B66               	subwfb	(___aomod@dividend+6)& (0+255),f,b
  3434   002198  516F               	movf	(___aomod@divisor+7)& (0+255),w,b
  3435   00219A  5B67               	subwfb	(___aomod@dividend+7)& (0+255),f,b
  3436   00219C                     l4221:
  3437                           
  3438                           ; BSR set to: 0
  3439   00219C  90D8               	bcf	status,0,c
  3440   00219E  336F               	rrcf	(___aomod@divisor+7)& (0+255),f,b
  3441   0021A0  336E               	rrcf	(___aomod@divisor+6)& (0+255),f,b
  3442   0021A2  336D               	rrcf	(___aomod@divisor+5)& (0+255),f,b
  3443   0021A4  336C               	rrcf	(___aomod@divisor+4)& (0+255),f,b
  3444   0021A6  336B               	rrcf	(___aomod@divisor+3)& (0+255),f,b
  3445   0021A8  336A               	rrcf	(___aomod@divisor+2)& (0+255),f,b
  3446   0021AA  3369               	rrcf	(___aomod@divisor+1)& (0+255),f,b
  3447   0021AC  3368               	rrcf	___aomod@divisor& (0+255),f,b
  3448   0021AE                     
  3449                           ; BSR set to: 0
  3450   0021AE  2F70               	decfsz	___aomod@counter& (0+255),f,b
  3451   0021B0  EFA7  F010         	goto	l4217
  3452   0021B4                     l4225:
  3453                           
  3454                           ; BSR set to: 0
  3455   0021B4  5171               	movf	___aomod@sign& (0+255),w,b
  3456   0021B6  B4D8               	btfsc	status,2,c
  3457   0021B8  EFE0  F010         	goto	u2291
  3458   0021BC  EFE2  F010         	goto	u2290
  3459   0021C0                     u2291:
  3460   0021C0  EFF2  F010         	goto	l4229
  3461   0021C4                     u2290:
  3462   0021C4                     
  3463                           ; BSR set to: 0
  3464   0021C4  1F67               	comf	(___aomod@dividend+7)& (0+255),f,b
  3465   0021C6  1F66               	comf	(___aomod@dividend+6)& (0+255),f,b
  3466   0021C8  1F65               	comf	(___aomod@dividend+5)& (0+255),f,b
  3467   0021CA  1F64               	comf	(___aomod@dividend+4)& (0+255),f,b
  3468   0021CC  1F63               	comf	(___aomod@dividend+3)& (0+255),f,b
  3469   0021CE  1F62               	comf	(___aomod@dividend+2)& (0+255),f,b
  3470   0021D0  1F61               	comf	(___aomod@dividend+1)& (0+255),f,b
  3471   0021D2  6D60               	negf	___aomod@dividend& (0+255),b
  3472   0021D4  0E00               	movlw	0
  3473   0021D6  2361               	addwfc	(___aomod@dividend+1)& (0+255),f,b
  3474   0021D8  2362               	addwfc	(___aomod@dividend+2)& (0+255),f,b
  3475   0021DA  2363               	addwfc	(___aomod@dividend+3)& (0+255),f,b
  3476   0021DC  2364               	addwfc	(___aomod@dividend+4)& (0+255),f,b
  3477   0021DE  2365               	addwfc	(___aomod@dividend+5)& (0+255),f,b
  3478   0021E0  2366               	addwfc	(___aomod@dividend+6)& (0+255),f,b
  3479   0021E2  2367               	addwfc	(___aomod@dividend+7)& (0+255),f,b
  3480   0021E4                     l4229:
  3481                           
  3482                           ; BSR set to: 0
  3483   0021E4  C060  F060         	movff	___aomod@dividend,?___aomod
  3484   0021E8  C061  F061         	movff	___aomod@dividend+1,?___aomod+1
  3485   0021EC  C062  F062         	movff	___aomod@dividend+2,?___aomod+2
  3486   0021F0  C063  F063         	movff	___aomod@dividend+3,?___aomod+3
  3487   0021F4  C064  F064         	movff	___aomod@dividend+4,?___aomod+4
  3488   0021F8  C065  F065         	movff	___aomod@dividend+5,?___aomod+5
  3489   0021FC  C066  F066         	movff	___aomod@dividend+6,?___aomod+6
  3490   002200  C067  F067         	movff	___aomod@dividend+7,?___aomod+7
  3491   002204                     
  3492                           ; BSR set to: 0
  3493   002204  0012               	return		;funcret
  3494   002206                     __end_of___aomod:
  3495                           	callstack 0
  3496                           
  3497 ;; *************** function ___aodiv *****************
  3498 ;; Defined at:
  3499 ;;		line 9 in file "C:\Program Files\Microchip\xc8\v2.40\pic\sources\c99\common\aodiv.c"
  3500 ;; Parameters:    Size  Location     Type
  3501 ;;  dividend        8    0[BANK0 ] long long 
  3502 ;;  divisor         8    8[BANK0 ] long long 
  3503 ;; Auto vars:     Size  Location     Type
  3504 ;;  quotient        8   18[BANK0 ] long long 
  3505 ;;  sign            1   17[BANK0 ] unsigned char 
  3506 ;;  counter         1   16[BANK0 ] unsigned char 
  3507 ;; Return value:  Size  Location     Type
  3508 ;;                  8    0[BANK0 ] long long 
  3509 ;; Registers used:
  3510 ;;		wreg, fsr2l, fsr2h, status,2, status,0
  3511 ;; Tracked objects:
  3512 ;;		On entry : 0/0
  3513 ;;		On exit  : 0/0
  3514 ;;		Unchanged: 0/0
  3515 ;; Data sizes:     COMRAM   BANK0   BANK1   BANK2   BANK3   BANK4   BANK5   BANK6   BANK7   BANK8   BANK9  BANK10  BANK1
      +1  BANK12  BANK13  BANK14
  3516 ;;      Params:         0      16       0       0       0       0       0       0       0       0       0       0       
      +0       0       0       0
  3517 ;;      Locals:         0      10       0       0       0       0       0       0       0       0       0       0       
      +0       0       0       0
  3518 ;;      Temps:          0       0       0       0       0       0       0       0       0       0       0       0       
      +0       0       0       0
  3519 ;;      Totals:         0      26       0       0       0       0       0       0       0       0       0       0       
      +0       0       0       0
  3520 ;;Total ram usage:       26 bytes
  3521 ;; Hardware stack levels used: 1
  3522 ;; Hardware stack levels required when called: 5
  3523 ;; This function calls:
  3524 ;;		Nothing
  3525 ;; This function is called by:
  3526 ;;		_dtoa
  3527 ;; This function uses a non-reentrant model
  3528 ;;
  3529                           
  3530                           	psect	text14
  3531   001DA0                     __ptext14:
  3532                           	callstack 0
  3533   001DA0                     ___aodiv:
  3534                           	callstack 21
  3535   001DA0  0E00               	movlw	0
  3536   001DA2  0100               	movlb	0	; () banked
  3537   001DA4  6F71               	movwf	___aodiv@sign& (0+255),b
  3538   001DA6                     
  3539                           ; BSR set to: 0
  3540   001DA6  BF6F               	btfsc	(___aodiv@divisor+7)& (0+255),7,b
  3541   001DA8  EFDA  F00E         	goto	u2170
  3542   001DAC  EFD8  F00E         	goto	u2171
  3543   001DB0                     u2171:
  3544   001DB0  EFEC  F00E         	goto	l4161
  3545   001DB4                     u2170:
  3546   001DB4                     
  3547                           ; BSR set to: 0
  3548   001DB4  1F6F               	comf	(___aodiv@divisor+7)& (0+255),f,b
  3549   001DB6  1F6E               	comf	(___aodiv@divisor+6)& (0+255),f,b
  3550   001DB8  1F6D               	comf	(___aodiv@divisor+5)& (0+255),f,b
  3551   001DBA  1F6C               	comf	(___aodiv@divisor+4)& (0+255),f,b
  3552   001DBC  1F6B               	comf	(___aodiv@divisor+3)& (0+255),f,b
  3553   001DBE  1F6A               	comf	(___aodiv@divisor+2)& (0+255),f,b
  3554   001DC0  1F69               	comf	(___aodiv@divisor+1)& (0+255),f,b
  3555   001DC2  6D68               	negf	___aodiv@divisor& (0+255),b
  3556   001DC4  0E00               	movlw	0
  3557   001DC6  2369               	addwfc	(___aodiv@divisor+1)& (0+255),f,b
  3558   001DC8  236A               	addwfc	(___aodiv@divisor+2)& (0+255),f,b
  3559   001DCA  236B               	addwfc	(___aodiv@divisor+3)& (0+255),f,b
  3560   001DCC  236C               	addwfc	(___aodiv@divisor+4)& (0+255),f,b
  3561   001DCE  236D               	addwfc	(___aodiv@divisor+5)& (0+255),f,b
  3562   001DD0  236E               	addwfc	(___aodiv@divisor+6)& (0+255),f,b
  3563   001DD2  236F               	addwfc	(___aodiv@divisor+7)& (0+255),f,b
  3564   001DD4                     
  3565                           ; BSR set to: 0
  3566   001DD4  0E01               	movlw	1
  3567   001DD6  6F71               	movwf	___aodiv@sign& (0+255),b
  3568   001DD8                     l4161:
  3569                           
  3570                           ; BSR set to: 0
  3571   001DD8  BF67               	btfsc	(___aodiv@dividend+7)& (0+255),7,b
  3572   001DDA  EFF3  F00E         	goto	u2180
  3573   001DDE  EFF1  F00E         	goto	u2181
  3574   001DE2                     u2181:
  3575   001DE2  EF05  F00F         	goto	l4167
  3576   001DE6                     u2180:
  3577   001DE6                     
  3578                           ; BSR set to: 0
  3579   001DE6  1F67               	comf	(___aodiv@dividend+7)& (0+255),f,b
  3580   001DE8  1F66               	comf	(___aodiv@dividend+6)& (0+255),f,b
  3581   001DEA  1F65               	comf	(___aodiv@dividend+5)& (0+255),f,b
  3582   001DEC  1F64               	comf	(___aodiv@dividend+4)& (0+255),f,b
  3583   001DEE  1F63               	comf	(___aodiv@dividend+3)& (0+255),f,b
  3584   001DF0  1F62               	comf	(___aodiv@dividend+2)& (0+255),f,b
  3585   001DF2  1F61               	comf	(___aodiv@dividend+1)& (0+255),f,b
  3586   001DF4  6D60               	negf	___aodiv@dividend& (0+255),b
  3587   001DF6  0E00               	movlw	0
  3588   001DF8  2361               	addwfc	(___aodiv@dividend+1)& (0+255),f,b
  3589   001DFA  2362               	addwfc	(___aodiv@dividend+2)& (0+255),f,b
  3590   001DFC  2363               	addwfc	(___aodiv@dividend+3)& (0+255),f,b
  3591   001DFE  2364               	addwfc	(___aodiv@dividend+4)& (0+255),f,b
  3592   001E00  2365               	addwfc	(___aodiv@dividend+5)& (0+255),f,b
  3593   001E02  2366               	addwfc	(___aodiv@dividend+6)& (0+255),f,b
  3594   001E04  2367               	addwfc	(___aodiv@dividend+7)& (0+255),f,b
  3595   001E06                     
  3596                           ; BSR set to: 0
  3597   001E06  0E01               	movlw	1
  3598   001E08  1B71               	xorwf	___aodiv@sign& (0+255),f,b
  3599   001E0A                     l4167:
  3600                           
  3601                           ; BSR set to: 0
  3602   001E0A  EE20  F072         	lfsr	2,___aodiv@quotient
  3603   001E0E  0E07               	movlw	7
  3604   001E10                     u2191:
  3605   001E10  6ADE               	clrf	postinc2,c
  3606   001E12  06E8               	decf	wreg,f,c
  3607   001E14  E2FD               	bc	u2191
  3608   001E16                     
  3609                           ; BSR set to: 0
  3610   001E16  5168               	movf	___aodiv@divisor& (0+255),w,b
  3611   001E18  1169               	iorwf	(___aodiv@divisor+1)& (0+255),w,b
  3612   001E1A  116A               	iorwf	(___aodiv@divisor+2)& (0+255),w,b
  3613   001E1C  116B               	iorwf	(___aodiv@divisor+3)& (0+255),w,b
  3614   001E1E  116C               	iorwf	(___aodiv@divisor+4)& (0+255),w,b
  3615   001E20  116D               	iorwf	(___aodiv@divisor+5)& (0+255),w,b
  3616   001E22  116E               	iorwf	(___aodiv@divisor+6)& (0+255),w,b
  3617   001E24  116F               	iorwf	(___aodiv@divisor+7)& (0+255),w,b
  3618   001E26  B4D8               	btfsc	status,2,c
  3619   001E28  EF18  F00F         	goto	u2201
  3620   001E2C  EF1A  F00F         	goto	u2200
  3621   001E30                     u2201:
  3622   001E30  EF6C  F00F         	goto	l4189
  3623   001E34                     u2200:
  3624   001E34                     
  3625                           ; BSR set to: 0
  3626   001E34  0E01               	movlw	1
  3627   001E36  6F70               	movwf	___aodiv@counter& (0+255),b
  3628   001E38  EF28  F00F         	goto	l4175
  3629   001E3C                     l4173:
  3630                           
  3631                           ; BSR set to: 0
  3632   001E3C  90D8               	bcf	status,0,c
  3633   001E3E  3768               	rlcf	___aodiv@divisor& (0+255),f,b
  3634   001E40  3769               	rlcf	(___aodiv@divisor+1)& (0+255),f,b
  3635   001E42  376A               	rlcf	(___aodiv@divisor+2)& (0+255),f,b
  3636   001E44  376B               	rlcf	(___aodiv@divisor+3)& (0+255),f,b
  3637   001E46  376C               	rlcf	(___aodiv@divisor+4)& (0+255),f,b
  3638   001E48  376D               	rlcf	(___aodiv@divisor+5)& (0+255),f,b
  3639   001E4A  376E               	rlcf	(___aodiv@divisor+6)& (0+255),f,b
  3640   001E4C  376F               	rlcf	(___aodiv@divisor+7)& (0+255),f,b
  3641   001E4E  2B70               	incf	___aodiv@counter& (0+255),f,b
  3642   001E50                     l4175:
  3643                           
  3644                           ; BSR set to: 0
  3645   001E50  AF6F               	btfss	(___aodiv@divisor+7)& (0+255),7,b
  3646   001E52  EF2D  F00F         	goto	u2211
  3647   001E56  EF2F  F00F         	goto	u2210
  3648   001E5A                     u2211:
  3649   001E5A  EF1E  F00F         	goto	l4173
  3650   001E5E                     u2210:
  3651   001E5E                     l4177:
  3652                           
  3653                           ; BSR set to: 0
  3654   001E5E  90D8               	bcf	status,0,c
  3655   001E60  3772               	rlcf	___aodiv@quotient& (0+255),f,b
  3656   001E62  3773               	rlcf	(___aodiv@quotient+1)& (0+255),f,b
  3657   001E64  3774               	rlcf	(___aodiv@quotient+2)& (0+255),f,b
  3658   001E66  3775               	rlcf	(___aodiv@quotient+3)& (0+255),f,b
  3659   001E68  3776               	rlcf	(___aodiv@quotient+4)& (0+255),f,b
  3660   001E6A  3777               	rlcf	(___aodiv@quotient+5)& (0+255),f,b
  3661   001E6C  3778               	rlcf	(___aodiv@quotient+6)& (0+255),f,b
  3662   001E6E  3779               	rlcf	(___aodiv@quotient+7)& (0+255),f,b
  3663   001E70                     
  3664                           ; BSR set to: 0
  3665   001E70  5168               	movf	___aodiv@divisor& (0+255),w,b
  3666   001E72  5D60               	subwf	___aodiv@dividend& (0+255),w,b
  3667   001E74  5169               	movf	(___aodiv@divisor+1)& (0+255),w,b
  3668   001E76  5961               	subwfb	(___aodiv@dividend+1)& (0+255),w,b
  3669   001E78  516A               	movf	(___aodiv@divisor+2)& (0+255),w,b
  3670   001E7A  5962               	subwfb	(___aodiv@dividend+2)& (0+255),w,b
  3671   001E7C  516B               	movf	(___aodiv@divisor+3)& (0+255),w,b
  3672   001E7E  5963               	subwfb	(___aodiv@dividend+3)& (0+255),w,b
  3673   001E80  516C               	movf	(___aodiv@divisor+4)& (0+255),w,b
  3674   001E82  5964               	subwfb	(___aodiv@dividend+4)& (0+255),w,b
  3675   001E84  516D               	movf	(___aodiv@divisor+5)& (0+255),w,b
  3676   001E86  5965               	subwfb	(___aodiv@dividend+5)& (0+255),w,b
  3677   001E88  516E               	movf	(___aodiv@divisor+6)& (0+255),w,b
  3678   001E8A  5966               	subwfb	(___aodiv@dividend+6)& (0+255),w,b
  3679   001E8C  516F               	movf	(___aodiv@divisor+7)& (0+255),w,b
  3680   001E8E  5967               	subwfb	(___aodiv@dividend+7)& (0+255),w,b
  3681   001E90  A0D8               	btfss	status,0,c
  3682   001E92  EF4D  F00F         	goto	u2221
  3683   001E96  EF4F  F00F         	goto	u2220
  3684   001E9A                     u2221:
  3685   001E9A  EF60  F00F         	goto	l4185
  3686   001E9E                     u2220:
  3687   001E9E                     
  3688                           ; BSR set to: 0
  3689   001E9E  5168               	movf	___aodiv@divisor& (0+255),w,b
  3690   001EA0  5F60               	subwf	___aodiv@dividend& (0+255),f,b
  3691   001EA2  5169               	movf	(___aodiv@divisor+1)& (0+255),w,b
  3692   001EA4  5B61               	subwfb	(___aodiv@dividend+1)& (0+255),f,b
  3693   001EA6  516A               	movf	(___aodiv@divisor+2)& (0+255),w,b
  3694   001EA8  5B62               	subwfb	(___aodiv@dividend+2)& (0+255),f,b
  3695   001EAA  516B               	movf	(___aodiv@divisor+3)& (0+255),w,b
  3696   001EAC  5B63               	subwfb	(___aodiv@dividend+3)& (0+255),f,b
  3697   001EAE  516C               	movf	(___aodiv@divisor+4)& (0+255),w,b
  3698   001EB0  5B64               	subwfb	(___aodiv@dividend+4)& (0+255),f,b
  3699   001EB2  516D               	movf	(___aodiv@divisor+5)& (0+255),w,b
  3700   001EB4  5B65               	subwfb	(___aodiv@dividend+5)& (0+255),f,b
  3701   001EB6  516E               	movf	(___aodiv@divisor+6)& (0+255),w,b
  3702   001EB8  5B66               	subwfb	(___aodiv@dividend+6)& (0+255),f,b
  3703   001EBA  516F               	movf	(___aodiv@divisor+7)& (0+255),w,b
  3704   001EBC  5B67               	subwfb	(___aodiv@dividend+7)& (0+255),f,b
  3705   001EBE                     
  3706                           ; BSR set to: 0
  3707   001EBE  8172               	bsf	___aodiv@quotient& (0+255),0,b
  3708   001EC0                     l4185:
  3709                           
  3710                           ; BSR set to: 0
  3711   001EC0  90D8               	bcf	status,0,c
  3712   001EC2  336F               	rrcf	(___aodiv@divisor+7)& (0+255),f,b
  3713   001EC4  336E               	rrcf	(___aodiv@divisor+6)& (0+255),f,b
  3714   001EC6  336D               	rrcf	(___aodiv@divisor+5)& (0+255),f,b
  3715   001EC8  336C               	rrcf	(___aodiv@divisor+4)& (0+255),f,b
  3716   001ECA  336B               	rrcf	(___aodiv@divisor+3)& (0+255),f,b
  3717   001ECC  336A               	rrcf	(___aodiv@divisor+2)& (0+255),f,b
  3718   001ECE  3369               	rrcf	(___aodiv@divisor+1)& (0+255),f,b
  3719   001ED0  3368               	rrcf	___aodiv@divisor& (0+255),f,b
  3720   001ED2                     
  3721                           ; BSR set to: 0
  3722   001ED2  2F70               	decfsz	___aodiv@counter& (0+255),f,b
  3723   001ED4  EF2F  F00F         	goto	l4177
  3724   001ED8                     l4189:
  3725                           
  3726                           ; BSR set to: 0
  3727   001ED8  5171               	movf	___aodiv@sign& (0+255),w,b
  3728   001EDA  B4D8               	btfsc	status,2,c
  3729   001EDC  EF72  F00F         	goto	u2231
  3730   001EE0  EF74  F00F         	goto	u2230
  3731   001EE4                     u2231:
  3732   001EE4  EF84  F00F         	goto	l4193
  3733   001EE8                     u2230:
  3734   001EE8                     
  3735                           ; BSR set to: 0
  3736   001EE8  1F79               	comf	(___aodiv@quotient+7)& (0+255),f,b
  3737   001EEA  1F78               	comf	(___aodiv@quotient+6)& (0+255),f,b
  3738   001EEC  1F77               	comf	(___aodiv@quotient+5)& (0+255),f,b
  3739   001EEE  1F76               	comf	(___aodiv@quotient+4)& (0+255),f,b
  3740   001EF0  1F75               	comf	(___aodiv@quotient+3)& (0+255),f,b
  3741   001EF2  1F74               	comf	(___aodiv@quotient+2)& (0+255),f,b
  3742   001EF4  1F73               	comf	(___aodiv@quotient+1)& (0+255),f,b
  3743   001EF6  6D72               	negf	___aodiv@quotient& (0+255),b
  3744   001EF8  0E00               	movlw	0
  3745   001EFA  2373               	addwfc	(___aodiv@quotient+1)& (0+255),f,b
  3746   001EFC  2374               	addwfc	(___aodiv@quotient+2)& (0+255),f,b
  3747   001EFE  2375               	addwfc	(___aodiv@quotient+3)& (0+255),f,b
  3748   001F00  2376               	addwfc	(___aodiv@quotient+4)& (0+255),f,b
  3749   001F02  2377               	addwfc	(___aodiv@quotient+5)& (0+255),f,b
  3750   001F04  2378               	addwfc	(___aodiv@quotient+6)& (0+255),f,b
  3751   001F06  2379               	addwfc	(___aodiv@quotient+7)& (0+255),f,b
  3752   001F08                     l4193:
  3753                           
  3754                           ; BSR set to: 0
  3755   001F08  C072  F060         	movff	___aodiv@quotient,?___aodiv
  3756   001F0C  C073  F061         	movff	___aodiv@quotient+1,?___aodiv+1
  3757   001F10  C074  F062         	movff	___aodiv@quotient+2,?___aodiv+2
  3758   001F14  C075  F063         	movff	___aodiv@quotient+3,?___aodiv+3
  3759   001F18  C076  F064         	movff	___aodiv@quotient+4,?___aodiv+4
  3760   001F1C  C077  F065         	movff	___aodiv@quotient+5,?___aodiv+5
  3761   001F20  C078  F066         	movff	___aodiv@quotient+6,?___aodiv+6
  3762   001F24  C079  F067         	movff	___aodiv@quotient+7,?___aodiv+7
  3763   001F28                     
  3764                           ; BSR set to: 0
  3765   001F28  0012               	return		;funcret
  3766   001F2A                     __end_of___aodiv:
  3767                           	callstack 0
  3768                           
  3769 ;; *************** function _atoi *****************
  3770 ;; Defined at:
  3771 ;;		line 4 in file "C:\Program Files\Microchip\xc8\v2.40\pic\sources\c99\common\atoi.c"
  3772 ;; Parameters:    Size  Location     Type
  3773 ;;  s               2    6[BANK0 ] PTR const unsigned char 
  3774 ;;		 -> STR_6(33), STR_5(32), STR_4(30), STR_3(31), 
  3775 ;;		 -> STR_2(20), STR_1(29), 
  3776 ;; Auto vars:     Size  Location     Type
  3777 ;;  n               2   13[BANK0 ] int 
  3778 ;;  neg             2   11[BANK0 ] int 
  3779 ;; Return value:  Size  Location     Type
  3780 ;;                  2    6[BANK0 ] int 
  3781 ;; Registers used:
  3782 ;;		wreg, status,2, status,0, tblptrl, tblptrh, tblptru, prodl, prodh, cstack
  3783 ;; Tracked objects:
  3784 ;;		On entry : 0/0
  3785 ;;		On exit  : 0/0
  3786 ;;		Unchanged: 0/0
  3787 ;; Data sizes:     COMRAM   BANK0   BANK1   BANK2   BANK3   BANK4   BANK5   BANK6   BANK7   BANK8   BANK9  BANK10  BANK1
      +1  BANK12  BANK13  BANK14
  3788 ;;      Params:         0       2       0       0       0       0       0       0       0       0       0       0       
      +0       0       0       0
  3789 ;;      Locals:         0       4       0       0       0       0       0       0       0       0       0       0       
      +0       0       0       0
  3790 ;;      Temps:          0       3       0       0       0       0       0       0       0       0       0       0       
      +0       0       0       0
  3791 ;;      Totals:         0       9       0       0       0       0       0       0       0       0       0       0       
      +0       0       0       0
  3792 ;;Total ram usage:        9 bytes
  3793 ;; Hardware stack levels used: 1
  3794 ;; Hardware stack levels required when called: 6
  3795 ;; This function calls:
  3796 ;;		___wmul
  3797 ;;		_isdigit
  3798 ;;		_isspace
  3799 ;; This function is called by:
  3800 ;;		_vfpfcnvrt
  3801 ;; This function uses a non-reentrant model
  3802 ;;
  3803                           
  3804                           	psect	text15
  3805   002206                     __ptext15:
  3806                           	callstack 0
  3807   002206                     _atoi:
  3808                           	callstack 21
  3809   002206  0E00               	movlw	0
  3810   002208  0100               	movlb	0	; () banked
  3811   00220A  6F6E               	movwf	(atoi@n+1)& (0+255),b
  3812   00220C  0E00               	movlw	0
  3813   00220E  6F6D               	movwf	atoi@n& (0+255),b
  3814   002210  0E00               	movlw	0
  3815   002212  6F6C               	movwf	(atoi@neg+1)& (0+255),b
  3816   002214  0E00               	movlw	0
  3817   002216  6F6B               	movwf	atoi@neg& (0+255),b
  3818   002218  EF10  F011         	goto	l4329
  3819   00221C                     l4325:
  3820                           
  3821                           ; BSR set to: 0
  3822   00221C  4B66               	infsnz	atoi@s& (0+255),f,b
  3823   00221E  2B67               	incf	(atoi@s+1)& (0+255),f,b
  3824   002220                     l4329:
  3825                           
  3826                           ; BSR set to: 0
  3827   002220  C066  FFF6         	movff	atoi@s,tblptrl
  3828   002224  C067  FFF7         	movff	atoi@s+1,tblptrh
  3829   002228                     	if	0	;tblptru may be non-zero
  3830   002228                     	endif
  3831   002228                     	if	0	;tblptru may be non-zero
  3832   002228                     	endif
  3833   002228  0008               	tblrd		*
  3834   00222A  50F5               	movf	tablat,w,c
  3835   00222C  0A20               	xorlw	32
  3836   00222E  B4D8               	btfsc	status,2,c
  3837   002230  EF1C  F011         	goto	u2491
  3838   002234  EF1E  F011         	goto	u2490
  3839   002238                     u2491:
  3840   002238  EF0E  F011         	goto	l4325
  3841   00223C                     u2490:
  3842   00223C                     
  3843                           ; BSR set to: 0
  3844   00223C  C066  FFF6         	movff	atoi@s,tblptrl
  3845   002240  C067  FFF7         	movff	atoi@s+1,tblptrh
  3846   002244                     	if	0	;tblptru may be non-zero
  3847   002244                     	endif
  3848   002244                     	if	0	;tblptru may be non-zero
  3849   002244                     	endif
  3850   002244  0008               	tblrd		*
  3851   002246  CFF5 F068          	movff	tablat,??_atoi
  3852   00224A  0EF7               	movlw	247
  3853   00224C  2568               	addwf	??_atoi& (0+255),w,b
  3854   00224E  6F69               	movwf	(??_atoi+1)& (0+255),b
  3855   002250  6B6A               	clrf	(??_atoi+2)& (0+255),b
  3856   002252  0EFF               	movlw	255
  3857   002254  236A               	addwfc	(??_atoi+2)& (0+255),f,b
  3858   002256  516A               	movf	(??_atoi+2)& (0+255),w,b
  3859   002258  E109               	bnz	u2500
  3860   00225A  0E05               	movlw	5
  3861   00225C  5D69               	subwf	(??_atoi+1)& (0+255),w,b
  3862   00225E  A0D8               	btfss	status,0,c
  3863   002260  EF34  F011         	goto	u2501
  3864   002264  EF36  F011         	goto	u2500
  3865   002268                     u2501:
  3866   002268  EF0E  F011         	goto	l4325
  3867   00226C                     u2500:
  3868   00226C  EF40  F011         	goto	l4337
  3869   002270                     l4333:
  3870                           
  3871                           ; BSR set to: 0
  3872   002270  0E00               	movlw	0
  3873   002272  6F6C               	movwf	(atoi@neg+1)& (0+255),b
  3874   002274  0E01               	movlw	1
  3875   002276  6F6B               	movwf	atoi@neg& (0+255),b
  3876   002278                     l4335:
  3877                           
  3878                           ; BSR set to: 0
  3879   002278  4B66               	infsnz	atoi@s& (0+255),f,b
  3880   00227A  2B67               	incf	(atoi@s+1)& (0+255),f,b
  3881   00227C  EF76  F011         	goto	l4345
  3882   002280                     l4337:
  3883                           
  3884                           ; BSR set to: 0
  3885   002280  C066  FFF6         	movff	atoi@s,tblptrl
  3886   002284  C067  FFF7         	movff	atoi@s+1,tblptrh
  3887   002288                     	if	0	;tblptru may be non-zero
  3888   002288                     	endif
  3889   002288                     	if	0	;tblptru may be non-zero
  3890   002288                     	endif
  3891   002288  0008               	tblrd		*
  3892   00228A  50F5               	movf	tablat,w,c
  3893   00228C  6F68               	movwf	??_atoi& (0+255),b
  3894   00228E  6B69               	clrf	(??_atoi+1)& (0+255),b
  3895                           
  3896                           ; Switch on 2 bytes has been partitioned into a top level switch of size 1, and 1 sub-sw
      +                          itches
  3897                           ; Switch size 1, requested type "simple"
  3898                           ; Number of cases is 1, Range of values is 0 to 0
  3899                           ; switch strategies available:
  3900                           ; Name         Instructions Cycles
  3901                           ; simple_byte            4     3 (average)
  3902                           ;	Chosen strategy is simple_byte
  3903   002290  5169               	movf	(??_atoi+1)& (0+255),w,b
  3904   002292  0A00               	xorlw	0	; case 0
  3905   002294  B4D8               	btfsc	status,2,c
  3906   002296  EF4F  F011         	goto	l5115
  3907   00229A  EF76  F011         	goto	l4345
  3908   00229E                     l5115:
  3909                           
  3910                           ; BSR set to: 0
  3911                           ; Switch size 1, requested type "simple"
  3912                           ; Number of cases is 2, Range of values is 43 to 45
  3913                           ; switch strategies available:
  3914                           ; Name         Instructions Cycles
  3915                           ; simple_byte            7     4 (average)
  3916                           ;	Chosen strategy is simple_byte
  3917   00229E  5168               	movf	??_atoi& (0+255),w,b
  3918   0022A0  0A2B               	xorlw	43	; case 43
  3919   0022A2  B4D8               	btfsc	status,2,c
  3920   0022A4  EF3C  F011         	goto	l4335
  3921   0022A8  0A06               	xorlw	6	; case 45
  3922   0022AA  B4D8               	btfsc	status,2,c
  3923   0022AC  EF38  F011         	goto	l4333
  3924   0022B0  EF76  F011         	goto	l4345
  3925   0022B4                     l4339:
  3926                           
  3927                           ; BSR set to: 0
  3928   0022B4  C06D  F060         	movff	atoi@n,___wmul@multiplier
  3929   0022B8  C06E  F061         	movff	atoi@n+1,___wmul@multiplier+1
  3930   0022BC  0E00               	movlw	0
  3931   0022BE  6F63               	movwf	(___wmul@multiplicand+1)& (0+255),b
  3932   0022C0  0E0A               	movlw	10
  3933   0022C2  6F62               	movwf	___wmul@multiplicand& (0+255),b
  3934   0022C4  EC41  F016         	call	___wmul	;wreg free
  3935   0022C8  C066  FFF6         	movff	atoi@s,tblptrl
  3936   0022CC  C067  FFF7         	movff	atoi@s+1,tblptrh
  3937   0022D0                     	if	0	;tblptru may be non-zero
  3938   0022D0                     	endif
  3939   0022D0                     	if	0	;tblptru may be non-zero
  3940   0022D0                     	endif
  3941   0022D0  0008               	tblrd		*
  3942   0022D2  50F5               	movf	tablat,w,c
  3943   0022D4  0100               	movlb	0	; () banked
  3944   0022D6  5F60               	subwf	?___wmul& (0+255),f,b
  3945   0022D8  0E00               	movlw	0
  3946   0022DA  5B61               	subwfb	(?___wmul+1)& (0+255),f,b
  3947   0022DC  0E30               	movlw	48
  3948   0022DE  2560               	addwf	?___wmul& (0+255),w,b
  3949   0022E0  6F6D               	movwf	atoi@n& (0+255),b
  3950   0022E2  0E00               	movlw	0
  3951   0022E4  2161               	addwfc	(?___wmul+1)& (0+255),w,b
  3952   0022E6  6F6E               	movwf	(atoi@n+1)& (0+255),b
  3953   0022E8  EF3C  F011         	goto	l4335
  3954   0022EC                     l4345:
  3955                           
  3956                           ; BSR set to: 0
  3957   0022EC  C066  FFF6         	movff	atoi@s,tblptrl
  3958   0022F0  C067  FFF7         	movff	atoi@s+1,tblptrh
  3959   0022F4                     	if	0	;tblptru may be non-zero
  3960   0022F4                     	endif
  3961   0022F4                     	if	0	;tblptru may be non-zero
  3962   0022F4                     	endif
  3963   0022F4  0008               	tblrd		*
  3964   0022F6  CFF5 F068          	movff	tablat,??_atoi
  3965   0022FA  0ED0               	movlw	208
  3966   0022FC  2568               	addwf	??_atoi& (0+255),w,b
  3967   0022FE  6F69               	movwf	(??_atoi+1)& (0+255),b
  3968   002300  6B6A               	clrf	(??_atoi+2)& (0+255),b
  3969   002302  0EFF               	movlw	255
  3970   002304  236A               	addwfc	(??_atoi+2)& (0+255),f,b
  3971   002306  516A               	movf	(??_atoi+2)& (0+255),w,b
  3972   002308  E109               	bnz	u2510
  3973   00230A  0E0A               	movlw	10
  3974   00230C  5D69               	subwf	(??_atoi+1)& (0+255),w,b
  3975   00230E  A0D8               	btfss	status,0,c
  3976   002310  EF8C  F011         	goto	u2511
  3977   002314  EF8E  F011         	goto	u2510
  3978   002318                     u2511:
  3979   002318  EF5A  F011         	goto	l4339
  3980   00231C                     u2510:
  3981   00231C                     
  3982                           ; BSR set to: 0
  3983   00231C  516B               	movf	atoi@neg& (0+255),w,b
  3984   00231E  116C               	iorwf	(atoi@neg+1)& (0+255),w,b
  3985   002320  A4D8               	btfss	status,2,c
  3986   002322  EF95  F011         	goto	u2521
  3987   002326  EF97  F011         	goto	u2520
  3988   00232A                     u2521:
  3989   00232A  EFA5  F011         	goto	l1674
  3990   00232E                     u2520:
  3991   00232E                     
  3992                           ; BSR set to: 0
  3993   00232E  C06D  F068         	movff	atoi@n,??_atoi
  3994   002332  C06E  F069         	movff	atoi@n+1,??_atoi+1
  3995   002336  1F68               	comf	??_atoi& (0+255),f,b
  3996   002338  1F69               	comf	(??_atoi+1)& (0+255),f,b
  3997   00233A  4B68               	infsnz	??_atoi& (0+255),f,b
  3998   00233C  2B69               	incf	(??_atoi+1)& (0+255),f,b
  3999   00233E  C068  F066         	movff	??_atoi,?_atoi
  4000   002342  C069  F067         	movff	??_atoi+1,?_atoi+1
  4001   002346  EFA9  F011         	goto	l1677
  4002   00234A                     l1674:
  4003                           
  4004                           ; BSR set to: 0
  4005   00234A  C06D  F066         	movff	atoi@n,?_atoi
  4006   00234E  C06E  F067         	movff	atoi@n+1,?_atoi+1
  4007   002352                     l1677:
  4008                           
  4009                           ; BSR set to: 0
  4010   002352  0012               	return		;funcret
  4011   002354                     __end_of_atoi:
  4012                           	callstack 0
  4013                           
  4014 ;; *************** function _isspace *****************
  4015 ;; Defined at:
  4016 ;;		line 5 in file "C:\Program Files\Microchip\xc8\v2.40\pic\sources\c99\common\isspace.c"
  4017 ;; Parameters:    Size  Location     Type
  4018 ;;  c               2    0[BANK0 ] int 
  4019 ;; Auto vars:     Size  Location     Type
  4020 ;;		None
  4021 ;; Return value:  Size  Location     Type
  4022 ;;                  2    0[BANK0 ] int 
  4023 ;; Registers used:
  4024 ;;		wreg, status,2, status,0
  4025 ;; Tracked objects:
  4026 ;;		On entry : 0/0
  4027 ;;		On exit  : 0/0
  4028 ;;		Unchanged: 0/0
  4029 ;; Data sizes:     COMRAM   BANK0   BANK1   BANK2   BANK3   BANK4   BANK5   BANK6   BANK7   BANK8   BANK9  BANK10  BANK1
      +1  BANK12  BANK13  BANK14
  4030 ;;      Params:         0       2       0       0       0       0       0       0       0       0       0       0       
      +0       0       0       0
  4031 ;;      Locals:         0       1       0       0       0       0       0       0       0       0       0       0       
      +0       0       0       0
  4032 ;;      Temps:          0       2       0       0       0       0       0       0       0       0       0       0       
      +0       0       0       0
  4033 ;;      Totals:         0       5       0       0       0       0       0       0       0       0       0       0       
      +0       0       0       0
  4034 ;;Total ram usage:        5 bytes
  4035 ;; Hardware stack levels used: 1
  4036 ;; Hardware stack levels required when called: 5
  4037 ;; This function calls:
  4038 ;;		Nothing
  4039 ;; This function is called by:
  4040 ;;		_atoi
  4041 ;; This function uses a non-reentrant model
  4042 ;;
  4043                           
  4044                           	psect	text16
  4045   0029D8                     __ptext16:
  4046                           	callstack 0
  4047   0029D8                     _isspace:
  4048                           	callstack 21
  4049   0029D8  0E01               	movlw	1
  4050   0029DA  0100               	movlb	0	; () banked
  4051   0029DC  6F64               	movwf	_isspace$2714& (0+255),b
  4052   0029DE                     
  4053                           ; BSR set to: 0
  4054   0029DE  0E20               	movlw	32
  4055   0029E0  1960               	xorwf	isspace@c& (0+255),w,b
  4056   0029E2  1161               	iorwf	(isspace@c+1)& (0+255),w,b
  4057   0029E4  B4D8               	btfsc	status,2,c
  4058   0029E6  EFF7  F014         	goto	u2371
  4059   0029EA  EFF9  F014         	goto	u2370
  4060   0029EE                     u2371:
  4061   0029EE  EF0C  F015         	goto	l4267
  4062   0029F2                     u2370:
  4063   0029F2                     
  4064                           ; BSR set to: 0
  4065   0029F2  0EF7               	movlw	247
  4066   0029F4  2560               	addwf	isspace@c& (0+255),w,b
  4067   0029F6  6F62               	movwf	??_isspace& (0+255),b
  4068   0029F8  0EFF               	movlw	255
  4069   0029FA  2161               	addwfc	(isspace@c+1)& (0+255),w,b
  4070   0029FC  6F63               	movwf	(??_isspace+1)& (0+255),b
  4071   0029FE  5163               	movf	(??_isspace+1)& (0+255),w,b
  4072   002A00  E109               	bnz	u2380
  4073   002A02  0E05               	movlw	5
  4074   002A04  5D62               	subwf	??_isspace& (0+255),w,b
  4075   002A06  A0D8               	btfss	status,0,c
  4076   002A08  EF08  F015         	goto	u2381
  4077   002A0C  EF0A  F015         	goto	u2380
  4078   002A10                     u2381:
  4079   002A10  EF0C  F015         	goto	l4267
  4080   002A14                     u2380:
  4081   002A14                     
  4082                           ; BSR set to: 0
  4083   002A14  0E00               	movlw	0
  4084   002A16  6F64               	movwf	_isspace$2714& (0+255),b
  4085   002A18                     l4267:
  4086                           
  4087                           ; BSR set to: 0
  4088   002A18  C064  F060         	movff	_isspace$2714,?_isspace
  4089   002A1C  6B61               	clrf	(?_isspace+1)& (0+255),b
  4090   002A1E                     
  4091                           ; BSR set to: 0
  4092   002A1E  0012               	return		;funcret
  4093   002A20                     __end_of_isspace:
  4094                           	callstack 0
  4095                           
  4096 ;; *************** function _isdigit *****************
  4097 ;; Defined at:
  4098 ;;		line 5 in file "C:\Program Files\Microchip\xc8\v2.40\pic\sources\c99\common\isdigit.c"
  4099 ;; Parameters:    Size  Location     Type
  4100 ;;  c               2    0[BANK0 ] int 
  4101 ;; Auto vars:     Size  Location     Type
  4102 ;;		None
  4103 ;; Return value:  Size  Location     Type
  4104 ;;                  2    0[BANK0 ] int 
  4105 ;; Registers used:
  4106 ;;		wreg, status,2, status,0
  4107 ;; Tracked objects:
  4108 ;;		On entry : 0/0
  4109 ;;		On exit  : 0/0
  4110 ;;		Unchanged: 0/0
  4111 ;; Data sizes:     COMRAM   BANK0   BANK1   BANK2   BANK3   BANK4   BANK5   BANK6   BANK7   BANK8   BANK9  BANK10  BANK1
      +1  BANK12  BANK13  BANK14
  4112 ;;      Params:         0       2       0       0       0       0       0       0       0       0       0       0       
      +0       0       0       0
  4113 ;;      Locals:         0       0       0       0       0       0       0       0       0       0       0       0       
      +0       0       0       0
  4114 ;;      Temps:          0       2       0       0       0       0       0       0       0       0       0       0       
      +0       0       0       0
  4115 ;;      Totals:         0       4       0       0       0       0       0       0       0       0       0       0       
      +0       0       0       0
  4116 ;;Total ram usage:        4 bytes
  4117 ;; Hardware stack levels used: 1
  4118 ;; Hardware stack levels required when called: 5
  4119 ;; This function calls:
  4120 ;;		Nothing
  4121 ;; This function is called by:
  4122 ;;		_vfpfcnvrt
  4123 ;;		_atoi
  4124 ;; This function uses a non-reentrant model
  4125 ;;
  4126                           
  4127                           	psect	text17
  4128   002B20                     __ptext17:
  4129                           	callstack 0
  4130   002B20                     _isdigit:
  4131                           	callstack 22
  4132   002B20  0ED0               	movlw	208
  4133   002B22  0100               	movlb	0	; () banked
  4134   002B24  2560               	addwf	isdigit@c& (0+255),w,b
  4135   002B26  6F62               	movwf	??_isdigit& (0+255),b
  4136   002B28  0EFF               	movlw	255
  4137   002B2A  2161               	addwfc	(isdigit@c+1)& (0+255),w,b
  4138   002B2C  6F63               	movwf	(??_isdigit+1)& (0+255),b
  4139   002B2E  5163               	movf	(??_isdigit+1)& (0+255),w,b
  4140   002B30  E10A               	bnz	u2350
  4141   002B32  0E0A               	movlw	10
  4142   002B34  5D62               	subwf	??_isdigit& (0+255),w,b
  4143   002B36  A0D8               	btfss	status,0,c
  4144   002B38  EFA0  F015         	goto	u2351
  4145   002B3C  EFA3  F015         	goto	u2350
  4146   002B40                     u2351:
  4147   002B40  0E01               	movlw	1
  4148   002B42  EFA4  F015         	goto	u2360
  4149   002B46                     u2350:
  4150   002B46  0E00               	movlw	0
  4151   002B48                     u2360:
  4152   002B48  6F60               	movwf	?_isdigit& (0+255),b
  4153   002B4A  6B61               	clrf	(?_isdigit+1)& (0+255),b
  4154   002B4C                     
  4155                           ; BSR set to: 0
  4156   002B4C  0012               	return		;funcret
  4157   002B4E                     __end_of_isdigit:
  4158                           	callstack 0
  4159                           
  4160 ;; *************** function ___wmul *****************
  4161 ;; Defined at:
  4162 ;;		line 15 in file "C:\Program Files\Microchip\xc8\v2.40\pic\sources\c99\common\Umul16.c"
  4163 ;; Parameters:    Size  Location     Type
  4164 ;;  multiplier      2    0[BANK0 ] unsigned int 
  4165 ;;  multiplicand    2    2[BANK0 ] unsigned int 
  4166 ;; Auto vars:     Size  Location     Type
  4167 ;;  product         2    4[BANK0 ] unsigned int 
  4168 ;; Return value:  Size  Location     Type
  4169 ;;                  2    0[BANK0 ] unsigned int 
  4170 ;; Registers used:
  4171 ;;		wreg, status,2, status,0, prodl, prodh
  4172 ;; Tracked objects:
  4173 ;;		On entry : 0/0
  4174 ;;		On exit  : 0/0
  4175 ;;		Unchanged: 0/0
  4176 ;; Data sizes:     COMRAM   BANK0   BANK1   BANK2   BANK3   BANK4   BANK5   BANK6   BANK7   BANK8   BANK9  BANK10  BANK1
      +1  BANK12  BANK13  BANK14
  4177 ;;      Params:         0       4       0       0       0       0       0       0       0       0       0       0       
      +0       0       0       0
  4178 ;;      Locals:         0       2       0       0       0       0       0       0       0       0       0       0       
      +0       0       0       0
  4179 ;;      Temps:          0       0       0       0       0       0       0       0       0       0       0       0       
      +0       0       0       0
  4180 ;;      Totals:         0       6       0       0       0       0       0       0       0       0       0       0       
      +0       0       0       0
  4181 ;;Total ram usage:        6 bytes
  4182 ;; Hardware stack levels used: 1
  4183 ;; Hardware stack levels required when called: 5
  4184 ;; This function calls:
  4185 ;;		Nothing
  4186 ;; This function is called by:
  4187 ;;		_atoi
  4188 ;; This function uses a non-reentrant model
  4189 ;;
  4190                           
  4191                           	psect	text18
  4192   002C82                     __ptext18:
  4193                           	callstack 0
  4194   002C82                     ___wmul:
  4195                           	callstack 21
  4196   002C82  0100               	movlb	0	; () banked
  4197   002C84  5160               	movf	___wmul@multiplier& (0+255),w,b
  4198   002C86  0362               	mulwf	___wmul@multiplicand& (0+255),b
  4199   002C88  CFF3 F064          	movff	prodl,___wmul@product
  4200   002C8C  CFF4 F065          	movff	prodh,___wmul@product+1
  4201   002C90  5160               	movf	___wmul@multiplier& (0+255),w,b
  4202   002C92  0363               	mulwf	(___wmul@multiplicand+1)& (0+255),b
  4203   002C94  50F3               	movf	243,w,c
  4204   002C96  2765               	addwf	(___wmul@product+1)& (0+255),f,b
  4205   002C98  5161               	movf	(___wmul@multiplier+1)& (0+255),w,b
  4206   002C9A  0362               	mulwf	___wmul@multiplicand& (0+255),b
  4207   002C9C  50F3               	movf	243,w,c
  4208   002C9E  2765               	addwf	(___wmul@product+1)& (0+255),f,b
  4209   002CA0                     
  4210                           ; BSR set to: 0
  4211   002CA0  C064  F060         	movff	___wmul@product,?___wmul
  4212   002CA4  C065  F061         	movff	___wmul@product+1,?___wmul+1
  4213   002CA8                     
  4214                           ; BSR set to: 0
  4215   002CA8  0012               	return		;funcret
  4216   002CAA                     __end_of___wmul:
  4217                           	callstack 0
  4218                           
  4219 ;; *************** function _ADC_GetConversion *****************
  4220 ;; Defined at:
  4221 ;;		line 108 in file "mcc_generated_files/adc.c"
  4222 ;; Parameters:    Size  Location     Type
  4223 ;;  channel         1    wreg     enum E12197
  4224 ;; Auto vars:     Size  Location     Type
  4225 ;;  channel         1    4[BANK0 ] enum E12197
  4226 ;; Return value:  Size  Location     Type
  4227 ;;                  2    0[BANK0 ] unsigned short 
  4228 ;; Registers used:
  4229 ;;		wreg, status,2, status,0
  4230 ;; Tracked objects:
  4231 ;;		On entry : 0/0
  4232 ;;		On exit  : 0/0
  4233 ;;		Unchanged: 0/0
  4234 ;; Data sizes:     COMRAM   BANK0   BANK1   BANK2   BANK3   BANK4   BANK5   BANK6   BANK7   BANK8   BANK9  BANK10  BANK1
      +1  BANK12  BANK13  BANK14
  4235 ;;      Params:         0       2       0       0       0       0       0       0       0       0       0       0       
      +0       0       0       0
  4236 ;;      Locals:         0       1       0       0       0       0       0       0       0       0       0       0       
      +0       0       0       0
  4237 ;;      Temps:          0       2       0       0       0       0       0       0       0       0       0       0       
      +0       0       0       0
  4238 ;;      Totals:         0       5       0       0       0       0       0       0       0       0       0       0       
      +0       0       0       0
  4239 ;;Total ram usage:        5 bytes
  4240 ;; Hardware stack levels used: 1
  4241 ;; Hardware stack levels required when called: 5
  4242 ;; This function calls:
  4243 ;;		Nothing
  4244 ;; This function is called by:
  4245 ;;		_erreur_adc
  4246 ;; This function uses a non-reentrant model
  4247 ;;
  4248                           
  4249                           	psect	text19
  4250   002AA6                     __ptext19:
  4251                           	callstack 0
  4252   002AA6                     _ADC_GetConversion:
  4253                           	callstack 24
  4254                           
  4255                           ; BSR set to: 0
  4256                           ;incstack = 0
  4257                           ;ADC_GetConversion@channel stored from wreg
  4258   002AA6  0100               	movlb	0	; () banked
  4259   002AA8  6F64               	movwf	ADC_GetConversion@channel& (0+255),b
  4260   002AAA                     
  4261                           ;mcc_generated_files/adc.c: 108: adc_result_t ADC_GetConversion(adc_channel_t channel);m
      +                          cc_generated_files/adc.c: 109: {;mcc_generated_files/adc.c: 111:     ADCON0bits.CHS = ch
      +                          annel;
  4262   002AAA  C064  F062         	movff	ADC_GetConversion@channel,??_ADC_GetConversion
  4263   002AAE  0100               	movlb	0	; () banked
  4264   002AB0  4762               	rlncf	??_ADC_GetConversion& (0+255),f,b
  4265   002AB2  4762               	rlncf	??_ADC_GetConversion& (0+255),f,b
  4266   002AB4  50C2               	movf	194,w,c	;volatile
  4267   002AB6  1962               	xorwf	??_ADC_GetConversion& (0+255),w,b
  4268   002AB8  0B83               	andlw	-125
  4269   002ABA  1962               	xorwf	??_ADC_GetConversion& (0+255),w,b
  4270   002ABC  6EC2               	movwf	194,c	;volatile
  4271   002ABE                     
  4272                           ; BSR set to: 0
  4273                           ;mcc_generated_files/adc.c: 114:     ADCON0bits.ADON = 1;
  4274   002ABE  80C2               	bsf	194,0,c	;volatile
  4275   002AC0                     
  4276                           ; BSR set to: 0
  4277                           ;mcc_generated_files/adc.c: 118:     ADCON0bits.GO_nDONE = 1;
  4278   002AC0  82C2               	bsf	194,1,c	;volatile
  4279   002AC2                     l544:
  4280                           
  4281                           ;mcc_generated_files/adc.c: 121:     while (ADCON0bits.GO_nDONE)
  4282   002AC2  B2C2               	btfsc	194,1,c	;volatile
  4283   002AC4  EF66  F015         	goto	u2651
  4284   002AC8  EF68  F015         	goto	u2650
  4285   002ACC                     u2651:
  4286   002ACC  EF61  F015         	goto	l544
  4287   002AD0                     u2650:
  4288   002AD0                     
  4289                           ;mcc_generated_files/adc.c: 126:     return ((adc_result_t)((ADRESH << 8) + ADRESL));
  4290   002AD0  50C4               	movf	196,w,c	;volatile
  4291   002AD2  0100               	movlb	0	; () banked
  4292   002AD4  6F63               	movwf	(??_ADC_GetConversion+1)& (0+255),b
  4293   002AD6  6B62               	clrf	??_ADC_GetConversion& (0+255),b
  4294   002AD8  50C3               	movf	195,w,c	;volatile
  4295   002ADA  2562               	addwf	??_ADC_GetConversion& (0+255),w,b
  4296   002ADC  6F60               	movwf	?_ADC_GetConversion& (0+255),b
  4297   002ADE  0E00               	movlw	0
  4298   002AE0  2163               	addwfc	(??_ADC_GetConversion+1)& (0+255),w,b
  4299   002AE2  6F61               	movwf	(?_ADC_GetConversion+1)& (0+255),b
  4300   002AE4                     
  4301                           ; BSR set to: 0
  4302   002AE4  0012               	return		;funcret
  4303   002AE6                     __end_of_ADC_GetConversion:
  4304                           	callstack 0
  4305                           
  4306 ;; *************** function _SYSTEM_Initialize *****************
  4307 ;; Defined at:
  4308 ;;		line 50 in file "mcc_generated_files/mcc.c"
  4309 ;; Parameters:    Size  Location     Type
  4310 ;;		None
  4311 ;; Auto vars:     Size  Location     Type
  4312 ;;		None
  4313 ;; Return value:  Size  Location     Type
  4314 ;;                  1    wreg      void 
  4315 ;; Registers used:
  4316 ;;		wreg, status,2, status,0, cstack
  4317 ;; Tracked objects:
  4318 ;;		On entry : 0/0
  4319 ;;		On exit  : 0/0
  4320 ;;		Unchanged: 0/0
  4321 ;; Data sizes:     COMRAM   BANK0   BANK1   BANK2   BANK3   BANK4   BANK5   BANK6   BANK7   BANK8   BANK9  BANK10  BANK1
      +1  BANK12  BANK13  BANK14
  4322 ;;      Params:         0       0       0       0       0       0       0       0       0       0       0       0       
      +0       0       0       0
  4323 ;;      Locals:         0       0       0       0       0       0       0       0       0       0       0       0       
      +0       0       0       0
  4324 ;;      Temps:          0       0       0       0       0       0       0       0       0       0       0       0       
      +0       0       0       0
  4325 ;;      Totals:         0       0       0       0       0       0       0       0       0       0       0       0       
      +0       0       0       0
  4326 ;;Total ram usage:        0 bytes
  4327 ;; Hardware stack levels used: 1
  4328 ;; Hardware stack levels required when called: 7
  4329 ;; This function calls:
  4330 ;;		_ADC_Initialize
  4331 ;;		_ECAN_Initialize
  4332 ;;		_EUSART1_Initialize
  4333 ;;		_INTERRUPT_Initialize
  4334 ;;		_OSCILLATOR_Initialize
  4335 ;;		_PIN_MANAGER_Initialize
  4336 ;;		_TMR0_Initialize
  4337 ;;		_TMR1_Initialize
  4338 ;;		_TMR2_Initialize
  4339 ;; This function is called by:
  4340 ;;		_main
  4341 ;; This function uses a non-reentrant model
  4342 ;;
  4343                           
  4344                           	psect	text20
  4345   002CD2                     __ptext20:
  4346                           	callstack 0
  4347   002CD2                     _SYSTEM_Initialize:
  4348                           	callstack 23
  4349   002CD2                     
  4350                           ;mcc_generated_files/mcc.c: 53:     INTERRUPT_Initialize();
  4351   002CD2  EC32  F017         	call	_INTERRUPT_Initialize	;wreg free
  4352   002CD6                     
  4353                           ;mcc_generated_files/mcc.c: 54:     PIN_MANAGER_Initialize();
  4354   002CD6  EC03  F016         	call	_PIN_MANAGER_Initialize	;wreg free
  4355   002CDA                     
  4356                           ;mcc_generated_files/mcc.c: 55:     OSCILLATOR_Initialize();
  4357   002CDA  ECE7  F016         	call	_OSCILLATOR_Initialize	;wreg free
  4358   002CDE                     
  4359                           ;mcc_generated_files/mcc.c: 56:     ADC_Initialize();
  4360   002CDE  ECC8  F016         	call	_ADC_Initialize	;wreg free
  4361   002CE2                     
  4362                           ;mcc_generated_files/mcc.c: 57:     TMR2_Initialize();
  4363   002CE2  EC8E  F016         	call	_TMR2_Initialize	;wreg free
  4364   002CE6                     
  4365                           ;mcc_generated_files/mcc.c: 58:     TMR1_Initialize();
  4366   002CE6  EC73  F015         	call	_TMR1_Initialize	;wreg free
  4367   002CEA                     
  4368                           ;mcc_generated_files/mcc.c: 59:     TMR0_Initialize();
  4369   002CEA  EC7C  F016         	call	_TMR0_Initialize	;wreg free
  4370   002CEE                     
  4371                           ;mcc_generated_files/mcc.c: 60:     EUSART1_Initialize();
  4372   002CEE  EC10  F015         	call	_EUSART1_Initialize	;wreg free
  4373   002CF2                     
  4374                           ;mcc_generated_files/mcc.c: 61:     ECAN_Initialize();
  4375   002CF2  EC47  F012         	call	_ECAN_Initialize	;wreg free
  4376   002CF6  0012               	return		;funcret
  4377   002CF8                     __end_of_SYSTEM_Initialize:
  4378                           	callstack 0
  4379                           
  4380 ;; *************** function _TMR2_Initialize *****************
  4381 ;; Defined at:
  4382 ;;		line 64 in file "mcc_generated_files/tmr2.c"
  4383 ;; Parameters:    Size  Location     Type
  4384 ;;		None
  4385 ;; Auto vars:     Size  Location     Type
  4386 ;;		None
  4387 ;; Return value:  Size  Location     Type
  4388 ;;                  1    wreg      void 
  4389 ;; Registers used:
  4390 ;;		wreg, status,2, status,0, cstack
  4391 ;; Tracked objects:
  4392 ;;		On entry : 0/0
  4393 ;;		On exit  : 0/0
  4394 ;;		Unchanged: 0/0
  4395 ;; Data sizes:     COMRAM   BANK0   BANK1   BANK2   BANK3   BANK4   BANK5   BANK6   BANK7   BANK8   BANK9  BANK10  BANK1
      +1  BANK12  BANK13  BANK14
  4396 ;;      Params:         0       0       0       0       0       0       0       0       0       0       0       0       
      +0       0       0       0
  4397 ;;      Locals:         0       0       0       0       0       0       0       0       0       0       0       0       
      +0       0       0       0
  4398 ;;      Temps:          0       0       0       0       0       0       0       0       0       0       0       0       
      +0       0       0       0
  4399 ;;      Totals:         0       0       0       0       0       0       0       0       0       0       0       0       
      +0       0       0       0
  4400 ;;Total ram usage:        0 bytes
  4401 ;; Hardware stack levels used: 1
  4402 ;; Hardware stack levels required when called: 6
  4403 ;; This function calls:
  4404 ;;		_TMR2_SetInterruptHandler
  4405 ;; This function is called by:
  4406 ;;		_SYSTEM_Initialize
  4407 ;; This function uses a non-reentrant model
  4408 ;;
  4409                           
  4410                           	psect	text21
  4411   002D1C                     __ptext21:
  4412                           	callstack 0
  4413   002D1C                     _TMR2_Initialize:
  4414                           	callstack 23
  4415   002D1C                     
  4416                           ;mcc_generated_files/tmr2.c: 69:     PR2 = 0xF9;
  4417   002D1C  0EF9               	movlw	249
  4418   002D1E  6ECB               	movwf	203,c	;volatile
  4419                           
  4420                           ;mcc_generated_files/tmr2.c: 72:     TMR2 = 0x00;
  4421   002D20  0E00               	movlw	0
  4422   002D22  6ECC               	movwf	204,c	;volatile
  4423   002D24                     
  4424                           ;mcc_generated_files/tmr2.c: 75:     PIR1bits.TMR2IF = 0;
  4425   002D24  929E               	bcf	158,1,c	;volatile
  4426   002D26                     
  4427                           ;mcc_generated_files/tmr2.c: 78:     PIE1bits.TMR2IE = 1;
  4428   002D26  829D               	bsf	157,1,c	;volatile
  4429   002D28                     
  4430                           ;mcc_generated_files/tmr2.c: 81:     TMR2_SetInterruptHandler(TMR2_DefaultInterruptHandl
      +                          er);
  4431   002D28  0E6E               	movlw	low _TMR2_DefaultInterruptHandler
  4432   002D2A  0100               	movlb	0	; () banked
  4433   002D2C  6F60               	movwf	TMR2_SetInterruptHandler@InterruptHandler& (0+255),b
  4434   002D2E  0E2E               	movlw	high _TMR2_DefaultInterruptHandler
  4435   002D30  6F61               	movwf	(TMR2_SetInterruptHandler@InterruptHandler+1)& (0+255),b
  4436   002D32  ECFE  F016         	call	_TMR2_SetInterruptHandler	;wreg free
  4437   002D36                     
  4438                           ;mcc_generated_files/tmr2.c: 84:     T2CON = 0x4E;
  4439   002D36  0E4E               	movlw	78
  4440   002D38  6ECA               	movwf	202,c	;volatile
  4441   002D3A  0012               	return		;funcret
  4442   002D3C                     __end_of_TMR2_Initialize:
  4443                           	callstack 0
  4444                           
  4445 ;; *************** function _TMR2_SetInterruptHandler *****************
  4446 ;; Defined at:
  4447 ;;		line 147 in file "mcc_generated_files/tmr2.c"
  4448 ;; Parameters:    Size  Location     Type
  4449 ;;  InterruptHan    2    0[BANK0 ] PTR FTN()void 
  4450 ;;		 -> TMR2_DefaultInterruptHandler(1), gestion_compteur(1), 
  4451 ;; Auto vars:     Size  Location     Type
  4452 ;;		None
  4453 ;; Return value:  Size  Location     Type
  4454 ;;                  1    wreg      void 
  4455 ;; Registers used:
  4456 ;;		wreg, status,2, status,0
  4457 ;; Tracked objects:
  4458 ;;		On entry : 0/0
  4459 ;;		On exit  : 0/0
  4460 ;;		Unchanged: 0/0
  4461 ;; Data sizes:     COMRAM   BANK0   BANK1   BANK2   BANK3   BANK4   BANK5   BANK6   BANK7   BANK8   BANK9  BANK10  BANK1
      +1  BANK12  BANK13  BANK14
  4462 ;;      Params:         0       2       0       0       0       0       0       0       0       0       0       0       
      +0       0       0       0
  4463 ;;      Locals:         0       0       0       0       0       0       0       0       0       0       0       0       
      +0       0       0       0
  4464 ;;      Temps:          0       0       0       0       0       0       0       0       0       0       0       0       
      +0       0       0       0
  4465 ;;      Totals:         0       2       0       0       0       0       0       0       0       0       0       0       
      +0       0       0       0
  4466 ;;Total ram usage:        2 bytes
  4467 ;; Hardware stack levels used: 1
  4468 ;; Hardware stack levels required when called: 5
  4469 ;; This function calls:
  4470 ;;		Nothing
  4471 ;; This function is called by:
  4472 ;;		_main
  4473 ;;		_TMR2_Initialize
  4474 ;; This function uses a non-reentrant model
  4475 ;;
  4476                           
  4477                           	psect	text22
  4478   002DFC                     __ptext22:
  4479                           	callstack 0
  4480   002DFC                     _TMR2_SetInterruptHandler:
  4481                           	callstack 25
  4482   002DFC                     
  4483                           ;mcc_generated_files/tmr2.c: 148:     TMR2_InterruptHandler = InterruptHandler;
  4484   002DFC  C060  F02B         	movff	TMR2_SetInterruptHandler@InterruptHandler,_TMR2_InterruptHandler
  4485   002E00  C061  F02C         	movff	TMR2_SetInterruptHandler@InterruptHandler+1,_TMR2_InterruptHandler+1
  4486   002E04  0012               	return		;funcret
  4487   002E06                     __end_of_TMR2_SetInterruptHandler:
  4488                           	callstack 0
  4489                           
  4490 ;; *************** function _TMR1_Initialize *****************
  4491 ;; Defined at:
  4492 ;;		line 64 in file "mcc_generated_files/tmr1.c"
  4493 ;; Parameters:    Size  Location     Type
  4494 ;;		None
  4495 ;; Auto vars:     Size  Location     Type
  4496 ;;		None
  4497 ;; Return value:  Size  Location     Type
  4498 ;;                  1    wreg      void 
  4499 ;; Registers used:
  4500 ;;		wreg, status,2, status,0, cstack
  4501 ;; Tracked objects:
  4502 ;;		On entry : 0/0
  4503 ;;		On exit  : 0/0
  4504 ;;		Unchanged: 0/0
  4505 ;; Data sizes:     COMRAM   BANK0   BANK1   BANK2   BANK3   BANK4   BANK5   BANK6   BANK7   BANK8   BANK9  BANK10  BANK1
      +1  BANK12  BANK13  BANK14
  4506 ;;      Params:         0       0       0       0       0       0       0       0       0       0       0       0       
      +0       0       0       0
  4507 ;;      Locals:         0       0       0       0       0       0       0       0       0       0       0       0       
      +0       0       0       0
  4508 ;;      Temps:          0       2       0       0       0       0       0       0       0       0       0       0       
      +0       0       0       0
  4509 ;;      Totals:         0       2       0       0       0       0       0       0       0       0       0       0       
      +0       0       0       0
  4510 ;;Total ram usage:        2 bytes
  4511 ;; Hardware stack levels used: 1
  4512 ;; Hardware stack levels required when called: 6
  4513 ;; This function calls:
  4514 ;;		_TMR1_SetInterruptHandler
  4515 ;; This function is called by:
  4516 ;;		_SYSTEM_Initialize
  4517 ;; This function uses a non-reentrant model
  4518 ;;
  4519                           
  4520                           	psect	text23
  4521   002AE6                     __ptext23:
  4522                           	callstack 0
  4523   002AE6                     _TMR1_Initialize:
  4524                           	callstack 23
  4525   002AE6                     
  4526                           ;mcc_generated_files/tmr1.c: 69:     T1GCON = 0x00;
  4527   002AE6  0E00               	movlw	0
  4528   002AE8  6EAA               	movwf	170,c	;volatile
  4529                           
  4530                           ;mcc_generated_files/tmr1.c: 72:     TMR1H = 0xB1;
  4531   002AEA  0EB1               	movlw	177
  4532   002AEC  6ECF               	movwf	207,c	;volatile
  4533                           
  4534                           ;mcc_generated_files/tmr1.c: 75:     TMR1L = 0xE0;
  4535   002AEE  0EE0               	movlw	224
  4536   002AF0  6ECE               	movwf	206,c	;volatile
  4537   002AF2                     
  4538                           ;mcc_generated_files/tmr1.c: 78:     PIR1bits.TMR1IF = 0;
  4539   002AF2  909E               	bcf	158,0,c	;volatile
  4540   002AF4                     
  4541                           ;mcc_generated_files/tmr1.c: 81:     timer1ReloadVal=(uint16_t)((TMR1H << 8) | TMR1L);
  4542   002AF4  50CE               	movf	206,w,c	;volatile
  4543   002AF6  CFCF F062          	movff	4047,??_TMR1_Initialize	;volatile
  4544   002AFA  0100               	movlb	0	; () banked
  4545   002AFC  6B63               	clrf	(??_TMR1_Initialize+1)& (0+255),b
  4546   002AFE  C062  F063         	movff	??_TMR1_Initialize,??_TMR1_Initialize+1
  4547   002B02  6B62               	clrf	??_TMR1_Initialize& (0+255),b
  4548   002B04  1162               	iorwf	??_TMR1_Initialize& (0+255),w,b
  4549   002B06  6E31               	movwf	_timer1ReloadVal^0,c	;volatile
  4550   002B08  5163               	movf	(??_TMR1_Initialize+1)& (0+255),w,b
  4551   002B0A  6E32               	movwf	(_timer1ReloadVal+1)^0,c	;volatile
  4552   002B0C                     
  4553                           ; BSR set to: 0
  4554                           ;mcc_generated_files/tmr1.c: 84:     PIE1bits.TMR1IE = 1;
  4555   002B0C  809D               	bsf	157,0,c	;volatile
  4556   002B0E                     
  4557                           ; BSR set to: 0
  4558                           ;mcc_generated_files/tmr1.c: 87:     TMR1_SetInterruptHandler(TMR1_DefaultInterruptHandl
      +                          er);
  4559   002B0E  0E70               	movlw	low _TMR1_DefaultInterruptHandler
  4560   002B10  6F60               	movwf	TMR1_SetInterruptHandler@InterruptHandler& (0+255),b
  4561   002B12  0E2E               	movlw	high _TMR1_DefaultInterruptHandler
  4562   002B14  6F61               	movwf	(TMR1_SetInterruptHandler@InterruptHandler+1)& (0+255),b
  4563   002B16  EC03  F017         	call	_TMR1_SetInterruptHandler	;wreg free
  4564   002B1A                     
  4565                           ;mcc_generated_files/tmr1.c: 90:     T1CON = 0x11;
  4566   002B1A  0E11               	movlw	17
  4567   002B1C  6ECD               	movwf	205,c	;volatile
  4568   002B1E  0012               	return		;funcret
  4569   002B20                     __end_of_TMR1_Initialize:
  4570                           	callstack 0
  4571                           
  4572 ;; *************** function _TMR1_SetInterruptHandler *****************
  4573 ;; Defined at:
  4574 ;;		line 178 in file "mcc_generated_files/tmr1.c"
  4575 ;; Parameters:    Size  Location     Type
  4576 ;;  InterruptHan    2    0[BANK0 ] PTR FTN()void 
  4577 ;;		 -> compteurTT(1), TMR1_DefaultInterruptHandler(1), 
  4578 ;; Auto vars:     Size  Location     Type
  4579 ;;		None
  4580 ;; Return value:  Size  Location     Type
  4581 ;;                  1    wreg      void 
  4582 ;; Registers used:
  4583 ;;		wreg, status,2, status,0
  4584 ;; Tracked objects:
  4585 ;;		On entry : 0/0
  4586 ;;		On exit  : 0/0
  4587 ;;		Unchanged: 0/0
  4588 ;; Data sizes:     COMRAM   BANK0   BANK1   BANK2   BANK3   BANK4   BANK5   BANK6   BANK7   BANK8   BANK9  BANK10  BANK1
      +1  BANK12  BANK13  BANK14
  4589 ;;      Params:         0       2       0       0       0       0       0       0       0       0       0       0       
      +0       0       0       0
  4590 ;;      Locals:         0       0       0       0       0       0       0       0       0       0       0       0       
      +0       0       0       0
  4591 ;;      Temps:          0       0       0       0       0       0       0       0       0       0       0       0       
      +0       0       0       0
  4592 ;;      Totals:         0       2       0       0       0       0       0       0       0       0       0       0       
      +0       0       0       0
  4593 ;;Total ram usage:        2 bytes
  4594 ;; Hardware stack levels used: 1
  4595 ;; Hardware stack levels required when called: 5
  4596 ;; This function calls:
  4597 ;;		Nothing
  4598 ;; This function is called by:
  4599 ;;		_TMR1_Initialize
  4600 ;;		_main
  4601 ;; This function uses a non-reentrant model
  4602 ;;
  4603                           
  4604                           	psect	text24
  4605   002E06                     __ptext24:
  4606                           	callstack 0
  4607   002E06                     _TMR1_SetInterruptHandler:
  4608                           	callstack 25
  4609   002E06                     
  4610                           ;mcc_generated_files/tmr1.c: 179:     TMR1_InterruptHandler = InterruptHandler;
  4611   002E06  C060  F02F         	movff	TMR1_SetInterruptHandler@InterruptHandler,_TMR1_InterruptHandler
  4612   002E0A  C061  F030         	movff	TMR1_SetInterruptHandler@InterruptHandler+1,_TMR1_InterruptHandler+1
  4613   002E0E  0012               	return		;funcret
  4614   002E10                     __end_of_TMR1_SetInterruptHandler:
  4615                           	callstack 0
  4616                           
  4617 ;; *************** function _TMR0_Initialize *****************
  4618 ;; Defined at:
  4619 ;;		line 67 in file "mcc_generated_files/tmr0.c"
  4620 ;; Parameters:    Size  Location     Type
  4621 ;;		None
  4622 ;; Auto vars:     Size  Location     Type
  4623 ;;		None
  4624 ;; Return value:  Size  Location     Type
  4625 ;;                  1    wreg      void 
  4626 ;; Registers used:
  4627 ;;		wreg, status,2, status,0, cstack
  4628 ;; Tracked objects:
  4629 ;;		On entry : 0/0
  4630 ;;		On exit  : 0/0
  4631 ;;		Unchanged: 0/0
  4632 ;; Data sizes:     COMRAM   BANK0   BANK1   BANK2   BANK3   BANK4   BANK5   BANK6   BANK7   BANK8   BANK9  BANK10  BANK1
      +1  BANK12  BANK13  BANK14
  4633 ;;      Params:         0       0       0       0       0       0       0       0       0       0       0       0       
      +0       0       0       0
  4634 ;;      Locals:         0       0       0       0       0       0       0       0       0       0       0       0       
      +0       0       0       0
  4635 ;;      Temps:          0       0       0       0       0       0       0       0       0       0       0       0       
      +0       0       0       0
  4636 ;;      Totals:         0       0       0       0       0       0       0       0       0       0       0       0       
      +0       0       0       0
  4637 ;;Total ram usage:        0 bytes
  4638 ;; Hardware stack levels used: 1
  4639 ;; Hardware stack levels required when called: 6
  4640 ;; This function calls:
  4641 ;;		_TMR0_SetInterruptHandler
  4642 ;; This function is called by:
  4643 ;;		_SYSTEM_Initialize
  4644 ;; This function uses a non-reentrant model
  4645 ;;
  4646                           
  4647                           	psect	text25
  4648   002CF8                     __ptext25:
  4649                           	callstack 0
  4650   002CF8                     _TMR0_Initialize:
  4651                           	callstack 23
  4652   002CF8                     
  4653                           ;mcc_generated_files/tmr0.c: 72:     TMR0H = 0x00;
  4654   002CF8  0E00               	movlw	0
  4655   002CFA  6ED7               	movwf	215,c	;volatile
  4656                           
  4657                           ;mcc_generated_files/tmr0.c: 75:     TMR0L = 0x3D;
  4658   002CFC  0E3D               	movlw	61
  4659   002CFE  6ED6               	movwf	214,c	;volatile
  4660                           
  4661                           ;mcc_generated_files/tmr0.c: 79:     timer0ReloadVal = 61;
  4662   002D00  0E3D               	movlw	61
  4663   002D02  6E39               	movwf	_timer0ReloadVal^0,c	;volatile
  4664   002D04                     
  4665                           ;mcc_generated_files/tmr0.c: 82:     INTCONbits.TMR0IF = 0;
  4666   002D04  94F2               	bcf	242,2,c	;volatile
  4667   002D06                     
  4668                           ;mcc_generated_files/tmr0.c: 85:     INTCONbits.TMR0IE = 1;
  4669   002D06  8AF2               	bsf	242,5,c	;volatile
  4670   002D08                     
  4671                           ;mcc_generated_files/tmr0.c: 88:     TMR0_SetInterruptHandler(TMR0_DefaultInterruptHandl
      +                          er);
  4672   002D08  0E72               	movlw	low _TMR0_DefaultInterruptHandler
  4673   002D0A  0100               	movlb	0	; () banked
  4674   002D0C  6F60               	movwf	TMR0_SetInterruptHandler@InterruptHandler& (0+255),b
  4675   002D0E  0E2E               	movlw	high _TMR0_DefaultInterruptHandler
  4676   002D10  6F61               	movwf	(TMR0_SetInterruptHandler@InterruptHandler+1)& (0+255),b
  4677   002D12  EC08  F017         	call	_TMR0_SetInterruptHandler	;wreg free
  4678   002D16                     
  4679                           ;mcc_generated_files/tmr0.c: 91:     T0CON = 0xF7;
  4680   002D16  0EF7               	movlw	247
  4681   002D18  6ED5               	movwf	213,c	;volatile
  4682   002D1A  0012               	return		;funcret
  4683   002D1C                     __end_of_TMR0_Initialize:
  4684                           	callstack 0
  4685                           
  4686 ;; *************** function _TMR0_SetInterruptHandler *****************
  4687 ;; Defined at:
  4688 ;;		line 162 in file "mcc_generated_files/tmr0.c"
  4689 ;; Parameters:    Size  Location     Type
  4690 ;;  InterruptHan    2    0[BANK0 ] PTR FTN()void 
  4691 ;;		 -> actif(1), TMR0_DefaultInterruptHandler(1), 
  4692 ;; Auto vars:     Size  Location     Type
  4693 ;;		None
  4694 ;; Return value:  Size  Location     Type
  4695 ;;                  1    wreg      void 
  4696 ;; Registers used:
  4697 ;;		wreg, status,2, status,0
  4698 ;; Tracked objects:
  4699 ;;		On entry : 0/0
  4700 ;;		On exit  : 0/0
  4701 ;;		Unchanged: 0/0
  4702 ;; Data sizes:     COMRAM   BANK0   BANK1   BANK2   BANK3   BANK4   BANK5   BANK6   BANK7   BANK8   BANK9  BANK10  BANK1
      +1  BANK12  BANK13  BANK14
  4703 ;;      Params:         0       2       0       0       0       0       0       0       0       0       0       0       
      +0       0       0       0
  4704 ;;      Locals:         0       0       0       0       0       0       0       0       0       0       0       0       
      +0       0       0       0
  4705 ;;      Temps:          0       0       0       0       0       0       0       0       0       0       0       0       
      +0       0       0       0
  4706 ;;      Totals:         0       2       0       0       0       0       0       0       0       0       0       0       
      +0       0       0       0
  4707 ;;Total ram usage:        2 bytes
  4708 ;; Hardware stack levels used: 1
  4709 ;; Hardware stack levels required when called: 5
  4710 ;; This function calls:
  4711 ;;		Nothing
  4712 ;; This function is called by:
  4713 ;;		_TMR0_Initialize
  4714 ;;		_main
  4715 ;; This function uses a non-reentrant model
  4716 ;;
  4717                           
  4718                           	psect	text26
  4719   002E10                     __ptext26:
  4720                           	callstack 0
  4721   002E10                     _TMR0_SetInterruptHandler:
  4722                           	callstack 25
  4723   002E10                     
  4724                           ;mcc_generated_files/tmr0.c: 163:     TMR0_InterruptHandler = InterruptHandler;
  4725   002E10  C060  F02D         	movff	TMR0_SetInterruptHandler@InterruptHandler,_TMR0_InterruptHandler
  4726   002E14  C061  F02E         	movff	TMR0_SetInterruptHandler@InterruptHandler+1,_TMR0_InterruptHandler+1
  4727   002E18  0012               	return		;funcret
  4728   002E1A                     __end_of_TMR0_SetInterruptHandler:
  4729                           	callstack 0
  4730                           
  4731 ;; *************** function _PIN_MANAGER_Initialize *****************
  4732 ;; Defined at:
  4733 ;;		line 55 in file "mcc_generated_files/pin_manager.c"
  4734 ;; Parameters:    Size  Location     Type
  4735 ;;		None
  4736 ;; Auto vars:     Size  Location     Type
  4737 ;;		None
  4738 ;; Return value:  Size  Location     Type
  4739 ;;                  1    wreg      void 
  4740 ;; Registers used:
  4741 ;;		wreg, status,2
  4742 ;; Tracked objects:
  4743 ;;		On entry : 0/0
  4744 ;;		On exit  : 0/0
  4745 ;;		Unchanged: 0/0
  4746 ;; Data sizes:     COMRAM   BANK0   BANK1   BANK2   BANK3   BANK4   BANK5   BANK6   BANK7   BANK8   BANK9  BANK10  BANK1
      +1  BANK12  BANK13  BANK14
  4747 ;;      Params:         0       0       0       0       0       0       0       0       0       0       0       0       
      +0       0       0       0
  4748 ;;      Locals:         0       0       0       0       0       0       0       0       0       0       0       0       
      +0       0       0       0
  4749 ;;      Temps:          0       0       0       0       0       0       0       0       0       0       0       0       
      +0       0       0       0
  4750 ;;      Totals:         0       0       0       0       0       0       0       0       0       0       0       0       
      +0       0       0       0
  4751 ;;Total ram usage:        0 bytes
  4752 ;; Hardware stack levels used: 1
  4753 ;; Hardware stack levels required when called: 5
  4754 ;; This function calls:
  4755 ;;		Nothing
  4756 ;; This function is called by:
  4757 ;;		_SYSTEM_Initialize
  4758 ;; This function uses a non-reentrant model
  4759 ;;
  4760                           
  4761                           	psect	text27
  4762   002C06                     __ptext27:
  4763                           	callstack 0
  4764   002C06                     _PIN_MANAGER_Initialize:
  4765                           	callstack 24
  4766   002C06                     
  4767                           ;mcc_generated_files/pin_manager.c: 60:     LATA = 0x00;
  4768   002C06  0E00               	movlw	0
  4769   002C08  6E89               	movwf	137,c	;volatile
  4770                           
  4771                           ;mcc_generated_files/pin_manager.c: 61:     LATB = 0x00;
  4772   002C0A  0E00               	movlw	0
  4773   002C0C  6E8A               	movwf	138,c	;volatile
  4774                           
  4775                           ;mcc_generated_files/pin_manager.c: 62:     LATC = 0x00;
  4776   002C0E  0E00               	movlw	0
  4777   002C10  6E8B               	movwf	139,c	;volatile
  4778                           
  4779                           ;mcc_generated_files/pin_manager.c: 67:     TRISA = 0xC3;
  4780   002C12  0EC3               	movlw	195
  4781   002C14  6E92               	movwf	146,c	;volatile
  4782                           
  4783                           ;mcc_generated_files/pin_manager.c: 68:     TRISB = 0xFB;
  4784   002C16  0EFB               	movlw	251
  4785   002C18  6E93               	movwf	147,c	;volatile
  4786                           
  4787                           ;mcc_generated_files/pin_manager.c: 69:     TRISC = 0xBF;
  4788   002C1A  0EBF               	movlw	191
  4789   002C1C  6E94               	movwf	148,c	;volatile
  4790                           
  4791                           ;mcc_generated_files/pin_manager.c: 74:     ANCON0 = 0x1F;
  4792   002C1E  0E1F               	movlw	31
  4793   002C20  010F               	movlb	15	; () banked
  4794   002C22  6F5D               	movwf	93,b	;volatile
  4795                           
  4796                           ;mcc_generated_files/pin_manager.c: 75:     ANCON1 = 0x03;
  4797   002C24  0E03               	movlw	3
  4798   002C26  6F5C               	movwf	92,b	;volatile
  4799                           
  4800                           ;mcc_generated_files/pin_manager.c: 80:     WPUB = 0x00;
  4801   002C28  0E00               	movlw	0
  4802   002C2A  6F5B               	movwf	91,b	;volatile
  4803   002C2C                     
  4804                           ; BSR set to: 15
  4805                           ;mcc_generated_files/pin_manager.c: 81:     INTCON2bits.nRBPU = 1;
  4806   002C2C  8EF1               	bsf	241,7,c	;volatile
  4807   002C2E                     
  4808                           ; BSR set to: 15
  4809   002C2E  0012               	return		;funcret
  4810   002C30                     __end_of_PIN_MANAGER_Initialize:
  4811                           	callstack 0
  4812                           
  4813 ;; *************** function _OSCILLATOR_Initialize *****************
  4814 ;; Defined at:
  4815 ;;		line 64 in file "mcc_generated_files/mcc.c"
  4816 ;; Parameters:    Size  Location     Type
  4817 ;;		None
  4818 ;; Auto vars:     Size  Location     Type
  4819 ;;		None
  4820 ;; Return value:  Size  Location     Type
  4821 ;;                  1    wreg      void 
  4822 ;; Registers used:
  4823 ;;		wreg, status,2
  4824 ;; Tracked objects:
  4825 ;;		On entry : 0/0
  4826 ;;		On exit  : 0/0
  4827 ;;		Unchanged: 0/0
  4828 ;; Data sizes:     COMRAM   BANK0   BANK1   BANK2   BANK3   BANK4   BANK5   BANK6   BANK7   BANK8   BANK9  BANK10  BANK1
      +1  BANK12  BANK13  BANK14
  4829 ;;      Params:         0       0       0       0       0       0       0       0       0       0       0       0       
      +0       0       0       0
  4830 ;;      Locals:         0       0       0       0       0       0       0       0       0       0       0       0       
      +0       0       0       0
  4831 ;;      Temps:          0       0       0       0       0       0       0       0       0       0       0       0       
      +0       0       0       0
  4832 ;;      Totals:         0       0       0       0       0       0       0       0       0       0       0       0       
      +0       0       0       0
  4833 ;;Total ram usage:        0 bytes
  4834 ;; Hardware stack levels used: 1
  4835 ;; Hardware stack levels required when called: 5
  4836 ;; This function calls:
  4837 ;;		Nothing
  4838 ;; This function is called by:
  4839 ;;		_SYSTEM_Initialize
  4840 ;; This function uses a non-reentrant model
  4841 ;;
  4842                           
  4843                           	psect	text28
  4844   002DCE                     __ptext28:
  4845                           	callstack 0
  4846   002DCE                     _OSCILLATOR_Initialize:
  4847                           	callstack 24
  4848   002DCE                     
  4849                           ;mcc_generated_files/mcc.c: 67:     OSCCON = 0x60;
  4850   002DCE  0E60               	movlw	96
  4851   002DD0  6ED3               	movwf	211,c	;volatile
  4852                           
  4853                           ;mcc_generated_files/mcc.c: 69:     OSCCON2 = 0x00;
  4854   002DD2  0E00               	movlw	0
  4855   002DD4  6ED2               	movwf	210,c	;volatile
  4856                           
  4857                           ;mcc_generated_files/mcc.c: 71:     OSCTUNE = 0x00;
  4858   002DD6  0E00               	movlw	0
  4859   002DD8  6E9B               	movwf	155,c	;volatile
  4860                           
  4861                           ;mcc_generated_files/mcc.c: 73:     REFOCON = 0x00;
  4862   002DDA  0E00               	movlw	0
  4863   002DDC  6E9A               	movwf	154,c	;volatile
  4864   002DDE  0012               	return		;funcret
  4865   002DE0                     __end_of_OSCILLATOR_Initialize:
  4866                           	callstack 0
  4867                           
  4868 ;; *************** function _INTERRUPT_Initialize *****************
  4869 ;; Defined at:
  4870 ;;		line 52 in file "mcc_generated_files/interrupt_manager.c"
  4871 ;; Parameters:    Size  Location     Type
  4872 ;;		None
  4873 ;; Auto vars:     Size  Location     Type
  4874 ;;		None
  4875 ;; Return value:  Size  Location     Type
  4876 ;;                  1    wreg      void 
  4877 ;; Registers used:
  4878 ;;		None
  4879 ;; Tracked objects:
  4880 ;;		On entry : 0/0
  4881 ;;		On exit  : 0/0
  4882 ;;		Unchanged: 0/0
  4883 ;; Data sizes:     COMRAM   BANK0   BANK1   BANK2   BANK3   BANK4   BANK5   BANK6   BANK7   BANK8   BANK9  BANK10  BANK1
      +1  BANK12  BANK13  BANK14
  4884 ;;      Params:         0       0       0       0       0       0       0       0       0       0       0       0       
      +0       0       0       0
  4885 ;;      Locals:         0       0       0       0       0       0       0       0       0       0       0       0       
      +0       0       0       0
  4886 ;;      Temps:          0       0       0       0       0       0       0       0       0       0       0       0       
      +0       0       0       0
  4887 ;;      Totals:         0       0       0       0       0       0       0       0       0       0       0       0       
      +0       0       0       0
  4888 ;;Total ram usage:        0 bytes
  4889 ;; Hardware stack levels used: 1
  4890 ;; Hardware stack levels required when called: 5
  4891 ;; This function calls:
  4892 ;;		Nothing
  4893 ;; This function is called by:
  4894 ;;		_SYSTEM_Initialize
  4895 ;; This function uses a non-reentrant model
  4896 ;;
  4897                           
  4898                           	psect	text29
  4899   002E64                     __ptext29:
  4900                           	callstack 0
  4901   002E64                     _INTERRUPT_Initialize:
  4902                           	callstack 24
  4903   002E64                     
  4904                           ;mcc_generated_files/interrupt_manager.c: 55:     RCONbits.IPEN = 0;
  4905   002E64  9ED0               	bcf	208,7,c	;volatile
  4906   002E66  0012               	return		;funcret
  4907   002E68                     __end_of_INTERRUPT_Initialize:
  4908                           	callstack 0
  4909                           
  4910 ;; *************** function _EUSART1_Initialize *****************
  4911 ;; Defined at:
  4912 ;;		line 66 in file "mcc_generated_files/eusart1.c"
  4913 ;; Parameters:    Size  Location     Type
  4914 ;;		None
  4915 ;; Auto vars:     Size  Location     Type
  4916 ;;		None
  4917 ;; Return value:  Size  Location     Type
  4918 ;;                  1    wreg      void 
  4919 ;; Registers used:
  4920 ;;		wreg, status,2, status,0, cstack
  4921 ;; Tracked objects:
  4922 ;;		On entry : 0/0
  4923 ;;		On exit  : 0/0
  4924 ;;		Unchanged: 0/0
  4925 ;; Data sizes:     COMRAM   BANK0   BANK1   BANK2   BANK3   BANK4   BANK5   BANK6   BANK7   BANK8   BANK9  BANK10  BANK1
      +1  BANK12  BANK13  BANK14
  4926 ;;      Params:         0       0       0       0       0       0       0       0       0       0       0       0       
      +0       0       0       0
  4927 ;;      Locals:         0       0       0       0       0       0       0       0       0       0       0       0       
      +0       0       0       0
  4928 ;;      Temps:          0       0       0       0       0       0       0       0       0       0       0       0       
      +0       0       0       0
  4929 ;;      Totals:         0       0       0       0       0       0       0       0       0       0       0       0       
      +0       0       0       0
  4930 ;;Total ram usage:        0 bytes
  4931 ;; Hardware stack levels used: 1
  4932 ;; Hardware stack levels required when called: 6
  4933 ;; This function calls:
  4934 ;;		_EUSART1_SetErrorHandler
  4935 ;;		_EUSART1_SetFramingErrorHandler
  4936 ;;		_EUSART1_SetOverrunErrorHandler
  4937 ;; This function is called by:
  4938 ;;		_SYSTEM_Initialize
  4939 ;; This function uses a non-reentrant model
  4940 ;;
  4941                           
  4942                           	psect	text30
  4943   002A20                     __ptext30:
  4944                           	callstack 0
  4945   002A20                     _EUSART1_Initialize:
  4946                           	callstack 23
  4947   002A20                     
  4948                           ;mcc_generated_files/eusart1.c: 71:     BAUDCON1 = 0x08;
  4949   002A20  0E08               	movlw	8
  4950   002A22  6EA7               	movwf	167,c	;volatile
  4951                           
  4952                           ;mcc_generated_files/eusart1.c: 74:     RCSTA1 = 0x90;
  4953   002A24  0E90               	movlw	144
  4954   002A26  6EAB               	movwf	171,c	;volatile
  4955                           
  4956                           ;mcc_generated_files/eusart1.c: 77:     TXSTA1 = 0x24;
  4957   002A28  0E24               	movlw	36
  4958   002A2A  6EAC               	movwf	172,c	;volatile
  4959                           
  4960                           ;mcc_generated_files/eusart1.c: 80:     SPBRG1 = 0xCF;
  4961   002A2C  0ECF               	movlw	207
  4962   002A2E  6EAF               	movwf	175,c	;volatile
  4963                           
  4964                           ;mcc_generated_files/eusart1.c: 83:     SPBRGH1 = 0x00;
  4965   002A30  0E00               	movlw	0
  4966   002A32  6E7D               	movwf	125,c	;volatile
  4967   002A34                     
  4968                           ;mcc_generated_files/eusart1.c: 86:     EUSART1_SetFramingErrorHandler(EUSART1_DefaultFr
      +                          amingErrorHandler);
  4969   002A34  0E00               	movlw	0
  4970   002A36  0100               	movlb	0	; () banked
  4971   002A38  6F60               	movwf	EUSART1_SetFramingErrorHandler@interruptHandler& (0+255),b
  4972   002A3A  0E00               	movlw	0
  4973   002A3C  6F61               	movwf	(EUSART1_SetFramingErrorHandler@interruptHandler+1)& (0+255),b
  4974   002A3E  EC12  F017         	call	_EUSART1_SetFramingErrorHandler	;wreg free
  4975   002A42                     
  4976                           ;mcc_generated_files/eusart1.c: 87:     EUSART1_SetOverrunErrorHandler(EUSART1_DefaultOv
      +                          errunErrorHandler);
  4977   002A42  0E00               	movlw	0
  4978   002A44  0100               	movlb	0	; () banked
  4979   002A46  6F60               	movwf	EUSART1_SetOverrunErrorHandler@interruptHandler& (0+255),b
  4980   002A48  0E00               	movlw	0
  4981   002A4A  6F61               	movwf	(EUSART1_SetOverrunErrorHandler@interruptHandler+1)& (0+255),b
  4982   002A4C  EC0D  F017         	call	_EUSART1_SetOverrunErrorHandler	;wreg free
  4983   002A50                     
  4984                           ;mcc_generated_files/eusart1.c: 88:     EUSART1_SetErrorHandler(EUSART1_DefaultErrorHand
      +                          ler);
  4985   002A50  0E00               	movlw	0
  4986   002A52  0100               	movlb	0	; () banked
  4987   002A54  6F60               	movwf	EUSART1_SetErrorHandler@interruptHandler& (0+255),b
  4988   002A56  0E00               	movlw	0
  4989   002A58  6F61               	movwf	(EUSART1_SetErrorHandler@interruptHandler+1)& (0+255),b
  4990   002A5A  EC17  F017         	call	_EUSART1_SetErrorHandler	;wreg free
  4991   002A5E                     
  4992                           ;mcc_generated_files/eusart1.c: 90:     eusart1RxLastError.status = 0;
  4993   002A5E  0E00               	movlw	0
  4994   002A60  6E47               	movwf	_eusart1RxLastError^0,c	;volatile
  4995   002A62  0012               	return		;funcret
  4996   002A64                     __end_of_EUSART1_Initialize:
  4997                           	callstack 0
  4998                           
  4999 ;; *************** function _EUSART1_SetOverrunErrorHandler *****************
  5000 ;; Defined at:
  5001 ;;		line 170 in file "mcc_generated_files/eusart1.c"
  5002 ;; Parameters:    Size  Location     Type
  5003 ;;  interruptHan    2    0[BANK0 ] PTR FTN()void 
  5004 ;;		 -> EUSART1_DefaultOverrunErrorHandler(1), 
  5005 ;; Auto vars:     Size  Location     Type
  5006 ;;		None
  5007 ;; Return value:  Size  Location     Type
  5008 ;;                  1    wreg      void 
  5009 ;; Registers used:
  5010 ;;		wreg, status,2, status,0
  5011 ;; Tracked objects:
  5012 ;;		On entry : 0/0
  5013 ;;		On exit  : 0/0
  5014 ;;		Unchanged: 0/0
  5015 ;; Data sizes:     COMRAM   BANK0   BANK1   BANK2   BANK3   BANK4   BANK5   BANK6   BANK7   BANK8   BANK9  BANK10  BANK1
      +1  BANK12  BANK13  BANK14
  5016 ;;      Params:         0       2       0       0       0       0       0       0       0       0       0       0       
      +0       0       0       0
  5017 ;;      Locals:         0       0       0       0       0       0       0       0       0       0       0       0       
      +0       0       0       0
  5018 ;;      Temps:          0       0       0       0       0       0       0       0       0       0       0       0       
      +0       0       0       0
  5019 ;;      Totals:         0       2       0       0       0       0       0       0       0       0       0       0       
      +0       0       0       0
  5020 ;;Total ram usage:        2 bytes
  5021 ;; Hardware stack levels used: 1
  5022 ;; Hardware stack levels required when called: 5
  5023 ;; This function calls:
  5024 ;;		Nothing
  5025 ;; This function is called by:
  5026 ;;		_EUSART1_Initialize
  5027 ;; This function uses a non-reentrant model
  5028 ;;
  5029                           
  5030                           	psect	text31
  5031   002E1A                     __ptext31:
  5032                           	callstack 0
  5033   002E1A                     _EUSART1_SetOverrunErrorHandler:
  5034                           	callstack 23
  5035   002E1A                     
  5036                           ;mcc_generated_files/eusart1.c: 171:     EUSART1_OverrunErrorHandler = interruptHandler;
  5037   002E1A  C060  F035         	movff	EUSART1_SetOverrunErrorHandler@interruptHandler,_EUSART1_OverrunErrorHandler
  5038   002E1E  C061  F036         	movff	EUSART1_SetOverrunErrorHandler@interruptHandler+1,_EUSART1_OverrunErrorHandler+1
  5039   002E22  0012               	return		;funcret
  5040   002E24                     __end_of_EUSART1_SetOverrunErrorHandler:
  5041                           	callstack 0
  5042                           
  5043 ;; *************** function _EUSART1_SetFramingErrorHandler *****************
  5044 ;; Defined at:
  5045 ;;		line 166 in file "mcc_generated_files/eusart1.c"
  5046 ;; Parameters:    Size  Location     Type
  5047 ;;  interruptHan    2    0[BANK0 ] PTR FTN()void 
  5048 ;;		 -> EUSART1_DefaultFramingErrorHandler(1), 
  5049 ;; Auto vars:     Size  Location     Type
  5050 ;;		None
  5051 ;; Return value:  Size  Location     Type
  5052 ;;                  1    wreg      void 
  5053 ;; Registers used:
  5054 ;;		wreg, status,2, status,0
  5055 ;; Tracked objects:
  5056 ;;		On entry : 0/0
  5057 ;;		On exit  : 0/0
  5058 ;;		Unchanged: 0/0
  5059 ;; Data sizes:     COMRAM   BANK0   BANK1   BANK2   BANK3   BANK4   BANK5   BANK6   BANK7   BANK8   BANK9  BANK10  BANK1
      +1  BANK12  BANK13  BANK14
  5060 ;;      Params:         0       2       0       0       0       0       0       0       0       0       0       0       
      +0       0       0       0
  5061 ;;      Locals:         0       0       0       0       0       0       0       0       0       0       0       0       
      +0       0       0       0
  5062 ;;      Temps:          0       0       0       0       0       0       0       0       0       0       0       0       
      +0       0       0       0
  5063 ;;      Totals:         0       2       0       0       0       0       0       0       0       0       0       0       
      +0       0       0       0
  5064 ;;Total ram usage:        2 bytes
  5065 ;; Hardware stack levels used: 1
  5066 ;; Hardware stack levels required when called: 5
  5067 ;; This function calls:
  5068 ;;		Nothing
  5069 ;; This function is called by:
  5070 ;;		_EUSART1_Initialize
  5071 ;; This function uses a non-reentrant model
  5072 ;;
  5073                           
  5074                           	psect	text32
  5075   002E24                     __ptext32:
  5076                           	callstack 0
  5077   002E24                     _EUSART1_SetFramingErrorHandler:
  5078                           	callstack 23
  5079   002E24                     
  5080                           ;mcc_generated_files/eusart1.c: 167:     EUSART1_FramingErrorHandler = interruptHandler;
  5081   002E24  C060  F037         	movff	EUSART1_SetFramingErrorHandler@interruptHandler,_EUSART1_FramingErrorHandler
  5082   002E28  C061  F038         	movff	EUSART1_SetFramingErrorHandler@interruptHandler+1,_EUSART1_FramingErrorHandler+1
  5083   002E2C  0012               	return		;funcret
  5084   002E2E                     __end_of_EUSART1_SetFramingErrorHandler:
  5085                           	callstack 0
  5086                           
  5087 ;; *************** function _EUSART1_SetErrorHandler *****************
  5088 ;; Defined at:
  5089 ;;		line 174 in file "mcc_generated_files/eusart1.c"
  5090 ;; Parameters:    Size  Location     Type
  5091 ;;  interruptHan    2    0[BANK0 ] PTR FTN()void 
  5092 ;;		 -> EUSART1_DefaultErrorHandler(1), 
  5093 ;; Auto vars:     Size  Location     Type
  5094 ;;		None
  5095 ;; Return value:  Size  Location     Type
  5096 ;;                  1    wreg      void 
  5097 ;; Registers used:
  5098 ;;		wreg, status,2, status,0
  5099 ;; Tracked objects:
  5100 ;;		On entry : 0/0
  5101 ;;		On exit  : 0/0
  5102 ;;		Unchanged: 0/0
  5103 ;; Data sizes:     COMRAM   BANK0   BANK1   BANK2   BANK3   BANK4   BANK5   BANK6   BANK7   BANK8   BANK9  BANK10  BANK1
      +1  BANK12  BANK13  BANK14
  5104 ;;      Params:         0       2       0       0       0       0       0       0       0       0       0       0       
      +0       0       0       0
  5105 ;;      Locals:         0       0       0       0       0       0       0       0       0       0       0       0       
      +0       0       0       0
  5106 ;;      Temps:          0       0       0       0       0       0       0       0       0       0       0       0       
      +0       0       0       0
  5107 ;;      Totals:         0       2       0       0       0       0       0       0       0       0       0       0       
      +0       0       0       0
  5108 ;;Total ram usage:        2 bytes
  5109 ;; Hardware stack levels used: 1
  5110 ;; Hardware stack levels required when called: 5
  5111 ;; This function calls:
  5112 ;;		Nothing
  5113 ;; This function is called by:
  5114 ;;		_EUSART1_Initialize
  5115 ;; This function uses a non-reentrant model
  5116 ;;
  5117                           
  5118                           	psect	text33
  5119   002E2E                     __ptext33:
  5120                           	callstack 0
  5121   002E2E                     _EUSART1_SetErrorHandler:
  5122                           	callstack 23
  5123   002E2E                     
  5124                           ;mcc_generated_files/eusart1.c: 175:     EUSART1_ErrorHandler = interruptHandler;
  5125   002E2E  C060  F033         	movff	EUSART1_SetErrorHandler@interruptHandler,_EUSART1_ErrorHandler
  5126   002E32  C061  F034         	movff	EUSART1_SetErrorHandler@interruptHandler+1,_EUSART1_ErrorHandler+1
  5127   002E36  0012               	return		;funcret
  5128   002E38                     __end_of_EUSART1_SetErrorHandler:
  5129                           	callstack 0
  5130                           
  5131 ;; *************** function _ECAN_Initialize *****************
  5132 ;; Defined at:
  5133 ;;		line 67 in file "mcc_generated_files/ecan.c"
  5134 ;; Parameters:    Size  Location     Type
  5135 ;;		None
  5136 ;; Auto vars:     Size  Location     Type
  5137 ;;		None
  5138 ;; Return value:  Size  Location     Type
  5139 ;;                  1    wreg      void 
  5140 ;; Registers used:
  5141 ;;		wreg, status,2, status,0, cstack
  5142 ;; Tracked objects:
  5143 ;;		On entry : 0/0
  5144 ;;		On exit  : 0/0
  5145 ;;		Unchanged: 0/0
  5146 ;; Data sizes:     COMRAM   BANK0   BANK1   BANK2   BANK3   BANK4   BANK5   BANK6   BANK7   BANK8   BANK9  BANK10  BANK1
      +1  BANK12  BANK13  BANK14
  5147 ;;      Params:         0       0       0       0       0       0       0       0       0       0       0       0       
      +0       0       0       0
  5148 ;;      Locals:         0       0       0       0       0       0       0       0       0       0       0       0       
      +0       0       0       0
  5149 ;;      Temps:          0       1       0       0       0       0       0       0       0       0       0       0       
      +0       0       0       0
  5150 ;;      Totals:         0       1       0       0       0       0       0       0       0       0       0       0       
      +0       0       0       0
  5151 ;;Total ram usage:        1 bytes
  5152 ;; Hardware stack levels used: 1
  5153 ;; Hardware stack levels required when called: 6
  5154 ;; This function calls:
  5155 ;;		_ECAN_SetRXB0InterruptHandler
  5156 ;;		_ECAN_SetWakeUpInterruptHandler
  5157 ;; This function is called by:
  5158 ;;		_SYSTEM_Initialize
  5159 ;; This function uses a non-reentrant model
  5160 ;;
  5161                           
  5162                           	psect	text34
  5163   00248E                     __ptext34:
  5164                           	callstack 0
  5165   00248E                     _ECAN_Initialize:
  5166                           	callstack 23
  5167   00248E                     
  5168                           ;mcc_generated_files/ecan.c: 69:     CANCON = 0x80;
  5169   00248E  0E80               	movlw	128
  5170   002490  6E6F               	movwf	111,c	;volatile
  5171   002492                     l4481:
  5172   002492  506E               	movf	110,w,c	;volatile
  5173   002494  0BE0               	andlw	224
  5174   002496  0A80               	xorlw	128
  5175   002498  A4D8               	btfss	status,2,c
  5176   00249A  EF51  F012         	goto	u2601
  5177   00249E  EF53  F012         	goto	u2600
  5178   0024A2                     u2601:
  5179   0024A2  EF49  F012         	goto	l4481
  5180   0024A6                     u2600:
  5181   0024A6                     
  5182                           ;mcc_generated_files/ecan.c: 75:     ECANCON = 0x00;
  5183   0024A6  0E00               	movlw	0
  5184   0024A8  6E72               	movwf	114,c	;volatile
  5185                           
  5186                           ;mcc_generated_files/ecan.c: 80:     CIOCON = 0x20;
  5187   0024AA  0E20               	movlw	32
  5188   0024AC  6E70               	movwf	112,c	;volatile
  5189                           
  5190                           ;mcc_generated_files/ecan.c: 93:     RXM0EIDH = 0x00;
  5191   0024AE  0E00               	movlw	0
  5192   0024B0  010E               	movlb	14	; () banked
  5193   0024B2  6FFA               	movwf	250,b	;volatile
  5194                           
  5195                           ;mcc_generated_files/ecan.c: 94:     RXM0EIDL = 0x00;
  5196   0024B4  0E00               	movlw	0
  5197   0024B6  6FFB               	movwf	251,b	;volatile
  5198                           
  5199                           ;mcc_generated_files/ecan.c: 95:     RXM0SIDH = 0x00;
  5200   0024B8  0E00               	movlw	0
  5201   0024BA  6FF8               	movwf	248,b	;volatile
  5202                           
  5203                           ;mcc_generated_files/ecan.c: 96:     RXM0SIDL = 0x00;
  5204   0024BC  0E00               	movlw	0
  5205   0024BE  6FF9               	movwf	249,b	;volatile
  5206                           
  5207                           ;mcc_generated_files/ecan.c: 97:     RXM1EIDH = 0x00;
  5208   0024C0  0E00               	movlw	0
  5209   0024C2  6FFE               	movwf	254,b	;volatile
  5210                           
  5211                           ;mcc_generated_files/ecan.c: 98:     RXM1EIDL = 0x00;
  5212   0024C4  0E00               	movlw	0
  5213   0024C6  6FFF               	movwf	255,b	;volatile
  5214                           
  5215                           ;mcc_generated_files/ecan.c: 99:     RXM1SIDH = 0x00;
  5216   0024C8  0E00               	movlw	0
  5217   0024CA  6FFC               	movwf	252,b	;volatile
  5218                           
  5219                           ;mcc_generated_files/ecan.c: 100:     RXM1SIDL = 0x00;
  5220   0024CC  0E00               	movlw	0
  5221   0024CE  6FFD               	movwf	253,b	;volatile
  5222                           
  5223                           ;mcc_generated_files/ecan.c: 105:     RXF0EIDH = 0x00;
  5224   0024D0  0E00               	movlw	0
  5225   0024D2  6FE2               	movwf	226,b	;volatile
  5226                           
  5227                           ;mcc_generated_files/ecan.c: 106:     RXF0EIDL = 0x00;
  5228   0024D4  0E00               	movlw	0
  5229   0024D6  6FE3               	movwf	227,b	;volatile
  5230                           
  5231                           ;mcc_generated_files/ecan.c: 107:     RXF0SIDH = 0x00;
  5232   0024D8  0E00               	movlw	0
  5233   0024DA  6FE0               	movwf	224,b	;volatile
  5234                           
  5235                           ;mcc_generated_files/ecan.c: 108:     RXF0SIDL = 0x00;
  5236   0024DC  0E00               	movlw	0
  5237   0024DE  6FE1               	movwf	225,b	;volatile
  5238                           
  5239                           ;mcc_generated_files/ecan.c: 109:     RXF1EIDH = 0x00;
  5240   0024E0  0E00               	movlw	0
  5241   0024E2  6FE6               	movwf	230,b	;volatile
  5242                           
  5243                           ;mcc_generated_files/ecan.c: 110:     RXF1EIDL = 0x00;
  5244   0024E4  0E00               	movlw	0
  5245   0024E6  6FE7               	movwf	231,b	;volatile
  5246                           
  5247                           ;mcc_generated_files/ecan.c: 111:     RXF1SIDH = 0x00;
  5248   0024E8  0E00               	movlw	0
  5249   0024EA  6FE4               	movwf	228,b	;volatile
  5250                           
  5251                           ;mcc_generated_files/ecan.c: 112:     RXF1SIDL = 0x00;
  5252   0024EC  0E00               	movlw	0
  5253   0024EE  6FE5               	movwf	229,b	;volatile
  5254                           
  5255                           ;mcc_generated_files/ecan.c: 113:     RXF2EIDH = 0x00;
  5256   0024F0  0E00               	movlw	0
  5257   0024F2  6FEA               	movwf	234,b	;volatile
  5258                           
  5259                           ;mcc_generated_files/ecan.c: 114:     RXF2EIDL = 0x00;
  5260   0024F4  0E00               	movlw	0
  5261   0024F6  6FEB               	movwf	235,b	;volatile
  5262                           
  5263                           ;mcc_generated_files/ecan.c: 115:     RXF2SIDH = 0x00;
  5264   0024F8  0E00               	movlw	0
  5265   0024FA  6FE8               	movwf	232,b	;volatile
  5266                           
  5267                           ;mcc_generated_files/ecan.c: 116:     RXF2SIDL = 0x00;
  5268   0024FC  0E00               	movlw	0
  5269   0024FE  6FE9               	movwf	233,b	;volatile
  5270                           
  5271                           ;mcc_generated_files/ecan.c: 117:     RXF3EIDH = 0x00;
  5272   002500  0E00               	movlw	0
  5273   002502  6FEE               	movwf	238,b	;volatile
  5274                           
  5275                           ;mcc_generated_files/ecan.c: 118:     RXF3EIDL = 0x00;
  5276   002504  0E00               	movlw	0
  5277   002506  6FEF               	movwf	239,b	;volatile
  5278                           
  5279                           ;mcc_generated_files/ecan.c: 119:     RXF3SIDH = 0x00;
  5280   002508  0E00               	movlw	0
  5281   00250A  6FEC               	movwf	236,b	;volatile
  5282                           
  5283                           ;mcc_generated_files/ecan.c: 120:     RXF3SIDL = 0x00;
  5284   00250C  0E00               	movlw	0
  5285   00250E  6FED               	movwf	237,b	;volatile
  5286                           
  5287                           ;mcc_generated_files/ecan.c: 121:     RXF4EIDH = 0x00;
  5288   002510  0E00               	movlw	0
  5289   002512  6FF2               	movwf	242,b	;volatile
  5290                           
  5291                           ;mcc_generated_files/ecan.c: 122:     RXF4EIDL = 0x00;
  5292   002514  0E00               	movlw	0
  5293   002516  6FF3               	movwf	243,b	;volatile
  5294                           
  5295                           ;mcc_generated_files/ecan.c: 123:     RXF4SIDH = 0x00;
  5296   002518  0E00               	movlw	0
  5297   00251A  6FF0               	movwf	240,b	;volatile
  5298                           
  5299                           ;mcc_generated_files/ecan.c: 124:     RXF4SIDL = 0x00;
  5300   00251C  0E00               	movlw	0
  5301   00251E  6FF1               	movwf	241,b	;volatile
  5302                           
  5303                           ;mcc_generated_files/ecan.c: 125:     RXF5EIDH = 0x00;
  5304   002520  0E00               	movlw	0
  5305   002522  6FF6               	movwf	246,b	;volatile
  5306                           
  5307                           ;mcc_generated_files/ecan.c: 126:     RXF5EIDL = 0x00;
  5308   002524  0E00               	movlw	0
  5309   002526  6FF7               	movwf	247,b	;volatile
  5310                           
  5311                           ;mcc_generated_files/ecan.c: 127:     RXF5SIDH = 0x00;
  5312   002528  0E00               	movlw	0
  5313   00252A  6FF4               	movwf	244,b	;volatile
  5314                           
  5315                           ;mcc_generated_files/ecan.c: 128:     RXF5SIDL = 0x00;
  5316   00252C  0E00               	movlw	0
  5317   00252E  6FF5               	movwf	245,b	;volatile
  5318                           
  5319                           ;mcc_generated_files/ecan.c: 143:     BRGCON1 = 0x18;
  5320   002530  0E18               	movlw	24
  5321   002532  6F43               	movwf	67,b	;volatile
  5322                           
  5323                           ;mcc_generated_files/ecan.c: 144:     BRGCON2 = 0x98;
  5324   002534  0E98               	movlw	152
  5325   002536  6F44               	movwf	68,b	;volatile
  5326                           
  5327                           ;mcc_generated_files/ecan.c: 145:     BRGCON3 = 0x01;
  5328   002538  0E01               	movlw	1
  5329   00253A  6F45               	movwf	69,b	;volatile
  5330   00253C                     
  5331                           ; BSR set to: 14
  5332                           ;mcc_generated_files/ecan.c: 147:     ECAN_SetRXB0InterruptHandler(RXB0DefaultInterruptH
      +                          andler);
  5333   00253C  0E76               	movlw	low _RXB0DefaultInterruptHandler
  5334   00253E  0100               	movlb	0	; () banked
  5335   002540  6F60               	movwf	ECAN_SetRXB0InterruptHandler@handler& (0+255),b
  5336   002542  0E2E               	movlw	high _RXB0DefaultInterruptHandler
  5337   002544  6F61               	movwf	(ECAN_SetRXB0InterruptHandler@handler+1)& (0+255),b
  5338   002546  EC21  F017         	call	_ECAN_SetRXB0InterruptHandler	;wreg free
  5339   00254A                     
  5340                           ;mcc_generated_files/ecan.c: 148:     PIR5bits.RXB0IF = 0;
  5341   00254A  9077               	bcf	119,0,c	;volatile
  5342   00254C                     
  5343                           ;mcc_generated_files/ecan.c: 149:     PIE5bits.RXB0IE = 1;
  5344   00254C  8076               	bsf	118,0,c	;volatile
  5345   00254E                     
  5346                           ;mcc_generated_files/ecan.c: 151:     ECAN_SetWakeUpInterruptHandler(WakeUpDefaultInterr
      +                          uptHandler);
  5347   00254E  0E74               	movlw	low _WakeUpDefaultInterruptHandler
  5348   002550  0100               	movlb	0	; () banked
  5349   002552  6F60               	movwf	ECAN_SetWakeUpInterruptHandler@handler& (0+255),b
  5350   002554  0E2E               	movlw	high _WakeUpDefaultInterruptHandler
  5351   002556  6F61               	movwf	(ECAN_SetWakeUpInterruptHandler@handler+1)& (0+255),b
  5352   002558  EC1C  F017         	call	_ECAN_SetWakeUpInterruptHandler	;wreg free
  5353   00255C                     
  5354                           ;mcc_generated_files/ecan.c: 152:     PIR5bits.WAKIF = 0;
  5355   00255C  9C77               	bcf	119,6,c	;volatile
  5356   00255E                     
  5357                           ;mcc_generated_files/ecan.c: 153:     PIE5bits.WAKIE = 1;
  5358   00255E  8C76               	bsf	118,6,c	;volatile
  5359                           
  5360                           ;mcc_generated_files/ecan.c: 155:     CANCON = 0x00;
  5361   002560  0E00               	movlw	0
  5362   002562  6E6F               	movwf	111,c	;volatile
  5363   002564                     l4497:
  5364   002564  CF6E F062          	movff	3950,??_ECAN_Initialize	;volatile
  5365   002568  0EE0               	movlw	224
  5366   00256A  0100               	movlb	0	; () banked
  5367   00256C  1762               	andwf	??_ECAN_Initialize& (0+255),f,b
  5368   00256E  A4D8               	btfss	status,2,c
  5369   002570  EFBC  F012         	goto	u2611
  5370   002574  EFBE  F012         	goto	u2610
  5371   002578                     u2611:
  5372   002578  EFB2  F012         	goto	l4497
  5373   00257C                     u2610:
  5374   00257C                     
  5375                           ; BSR set to: 0
  5376   00257C  0012               	return		;funcret
  5377   00257E                     __end_of_ECAN_Initialize:
  5378                           	callstack 0
  5379                           
  5380 ;; *************** function _ECAN_SetWakeUpInterruptHandler *****************
  5381 ;; Defined at:
  5382 ;;		line 456 in file "mcc_generated_files/ecan.c"
  5383 ;; Parameters:    Size  Location     Type
  5384 ;;  handler         2    0[BANK0 ] PTR FTN()void 
  5385 ;;		 -> WakeUpDefaultInterruptHandler(1), 
  5386 ;; Auto vars:     Size  Location     Type
  5387 ;;		None
  5388 ;; Return value:  Size  Location     Type
  5389 ;;                  1    wreg      void 
  5390 ;; Registers used:
  5391 ;;		wreg, status,2, status,0
  5392 ;; Tracked objects:
  5393 ;;		On entry : 0/0
  5394 ;;		On exit  : 0/0
  5395 ;;		Unchanged: 0/0
  5396 ;; Data sizes:     COMRAM   BANK0   BANK1   BANK2   BANK3   BANK4   BANK5   BANK6   BANK7   BANK8   BANK9  BANK10  BANK1
      +1  BANK12  BANK13  BANK14
  5397 ;;      Params:         0       2       0       0       0       0       0       0       0       0       0       0       
      +0       0       0       0
  5398 ;;      Locals:         0       0       0       0       0       0       0       0       0       0       0       0       
      +0       0       0       0
  5399 ;;      Temps:          0       0       0       0       0       0       0       0       0       0       0       0       
      +0       0       0       0
  5400 ;;      Totals:         0       2       0       0       0       0       0       0       0       0       0       0       
      +0       0       0       0
  5401 ;;Total ram usage:        2 bytes
  5402 ;; Hardware stack levels used: 1
  5403 ;; Hardware stack levels required when called: 5
  5404 ;; This function calls:
  5405 ;;		Nothing
  5406 ;; This function is called by:
  5407 ;;		_ECAN_Initialize
  5408 ;; This function uses a non-reentrant model
  5409 ;;
  5410                           
  5411                           	psect	text35
  5412   002E38                     __ptext35:
  5413                           	callstack 0
  5414   002E38                     _ECAN_SetWakeUpInterruptHandler:
  5415                           	callstack 23
  5416   002E38                     
  5417                           ;mcc_generated_files/ecan.c: 456: void ECAN_SetWakeUpInterruptHandler(void (*handler)(vo
      +                          id));mcc_generated_files/ecan.c: 457: {;mcc_generated_files/ecan.c: 458:     WakeUpInter
      +                          ruptHandler = handler;
  5418   002E38  C060  F042         	movff	ECAN_SetWakeUpInterruptHandler@handler,_WakeUpInterruptHandler
  5419   002E3C  C061  F043         	movff	ECAN_SetWakeUpInterruptHandler@handler+1,_WakeUpInterruptHandler+1
  5420   002E40  0012               	return		;funcret
  5421   002E42                     __end_of_ECAN_SetWakeUpInterruptHandler:
  5422                           	callstack 0
  5423                           
  5424 ;; *************** function _ECAN_SetRXB0InterruptHandler *****************
  5425 ;; Defined at:
  5426 ;;		line 445 in file "mcc_generated_files/ecan.c"
  5427 ;; Parameters:    Size  Location     Type
  5428 ;;  handler         2    0[BANK0 ] PTR FTN()void 
  5429 ;;		 -> receptionTTCAN(1), RXB0DefaultInterruptHandler(1), 
  5430 ;; Auto vars:     Size  Location     Type
  5431 ;;		None
  5432 ;; Return value:  Size  Location     Type
  5433 ;;                  1    wreg      void 
  5434 ;; Registers used:
  5435 ;;		wreg, status,2, status,0
  5436 ;; Tracked objects:
  5437 ;;		On entry : 0/0
  5438 ;;		On exit  : 0/0
  5439 ;;		Unchanged: 0/0
  5440 ;; Data sizes:     COMRAM   BANK0   BANK1   BANK2   BANK3   BANK4   BANK5   BANK6   BANK7   BANK8   BANK9  BANK10  BANK1
      +1  BANK12  BANK13  BANK14
  5441 ;;      Params:         0       2       0       0       0       0       0       0       0       0       0       0       
      +0       0       0       0
  5442 ;;      Locals:         0       0       0       0       0       0       0       0       0       0       0       0       
      +0       0       0       0
  5443 ;;      Temps:          0       0       0       0       0       0       0       0       0       0       0       0       
      +0       0       0       0
  5444 ;;      Totals:         0       2       0       0       0       0       0       0       0       0       0       0       
      +0       0       0       0
  5445 ;;Total ram usage:        2 bytes
  5446 ;; Hardware stack levels used: 1
  5447 ;; Hardware stack levels required when called: 5
  5448 ;; This function calls:
  5449 ;;		Nothing
  5450 ;; This function is called by:
  5451 ;;		_ECAN_Initialize
  5452 ;;		_main
  5453 ;; This function uses a non-reentrant model
  5454 ;;
  5455                           
  5456                           	psect	text36
  5457   002E42                     __ptext36:
  5458                           	callstack 0
  5459   002E42                     _ECAN_SetRXB0InterruptHandler:
  5460                           	callstack 23
  5461   002E42                     
  5462                           ;mcc_generated_files/ecan.c: 445: void ECAN_SetRXB0InterruptHandler(void (*handler)(void
      +                          ));mcc_generated_files/ecan.c: 446: {;mcc_generated_files/ecan.c: 447:     RXB0Interrupt
      +                          Handler = handler;
  5463   002E42  C060  F044         	movff	ECAN_SetRXB0InterruptHandler@handler,_RXB0InterruptHandler
  5464   002E46  C061  F045         	movff	ECAN_SetRXB0InterruptHandler@handler+1,_RXB0InterruptHandler+1
  5465   002E4A  0012               	return		;funcret
  5466   002E4C                     __end_of_ECAN_SetRXB0InterruptHandler:
  5467                           	callstack 0
  5468                           
  5469 ;; *************** function _ADC_Initialize *****************
  5470 ;; Defined at:
  5471 ;;		line 62 in file "mcc_generated_files/adc.c"
  5472 ;; Parameters:    Size  Location     Type
  5473 ;;		None
  5474 ;; Auto vars:     Size  Location     Type
  5475 ;;		None
  5476 ;; Return value:  Size  Location     Type
  5477 ;;                  1    wreg      void 
  5478 ;; Registers used:
  5479 ;;		wreg, status,2
  5480 ;; Tracked objects:
  5481 ;;		On entry : 0/0
  5482 ;;		On exit  : 0/0
  5483 ;;		Unchanged: 0/0
  5484 ;; Data sizes:     COMRAM   BANK0   BANK1   BANK2   BANK3   BANK4   BANK5   BANK6   BANK7   BANK8   BANK9  BANK10  BANK1
      +1  BANK12  BANK13  BANK14
  5485 ;;      Params:         0       0       0       0       0       0       0       0       0       0       0       0       
      +0       0       0       0
  5486 ;;      Locals:         0       0       0       0       0       0       0       0       0       0       0       0       
      +0       0       0       0
  5487 ;;      Temps:          0       0       0       0       0       0       0       0       0       0       0       0       
      +0       0       0       0
  5488 ;;      Totals:         0       0       0       0       0       0       0       0       0       0       0       0       
      +0       0       0       0
  5489 ;;Total ram usage:        0 bytes
  5490 ;; Hardware stack levels used: 1
  5491 ;; Hardware stack levels required when called: 5
  5492 ;; This function calls:
  5493 ;;		Nothing
  5494 ;; This function is called by:
  5495 ;;		_SYSTEM_Initialize
  5496 ;; This function uses a non-reentrant model
  5497 ;;
  5498                           
  5499                           	psect	text37
  5500   002D90                     __ptext37:
  5501                           	callstack 0
  5502   002D90                     _ADC_Initialize:
  5503                           	callstack 24
  5504   002D90                     
  5505                           ;mcc_generated_files/adc.c: 67:     ADCON0 = 0x01;
  5506   002D90  0E01               	movlw	1
  5507   002D92  6EC2               	movwf	194,c	;volatile
  5508                           
  5509                           ;mcc_generated_files/adc.c: 70:     ADCON1 = 0x00;
  5510   002D94  0E00               	movlw	0
  5511   002D96  6EC1               	movwf	193,c	;volatile
  5512                           
  5513                           ;mcc_generated_files/adc.c: 73:     ADCON2 = 0xB0;
  5514   002D98  0EB0               	movlw	176
  5515   002D9A  6EC0               	movwf	192,c	;volatile
  5516                           
  5517                           ;mcc_generated_files/adc.c: 76:     ADRESH = 0x00;
  5518   002D9C  0E00               	movlw	0
  5519   002D9E  6EC4               	movwf	196,c	;volatile
  5520                           
  5521                           ;mcc_generated_files/adc.c: 79:     ADRESL = 0x00;
  5522   002DA0  0E00               	movlw	0
  5523   002DA2  6EC3               	movwf	195,c	;volatile
  5524   002DA4  0012               	return		;funcret
  5525   002DA6                     __end_of_ADC_Initialize:
  5526                           	callstack 0
  5527                           
  5528 ;; *************** function _CAN_transmit *****************
  5529 ;; Defined at:
  5530 ;;		line 171 in file "mcc_generated_files/ecan.c"
  5531 ;; Parameters:    Size  Location     Type
  5532 ;;  tempCanMsg      2   18[BANK0 ] PTR struct .
  5533 ;;		 -> Lux_INT_Tx(14), 
  5534 ;; Auto vars:     Size  Location     Type
  5535 ;;  tempSIDL        1   23[BANK0 ] unsigned char 
  5536 ;;  tempSIDH        1   22[BANK0 ] unsigned char 
  5537 ;;  tempEIDL        1   21[BANK0 ] unsigned char 
  5538 ;;  tempEIDH        1   20[BANK0 ] unsigned char 
  5539 ;;  returnValue     1    0        unsigned char 
  5540 ;; Return value:  Size  Location     Type
  5541 ;;                  1    wreg      unsigned char 
  5542 ;; Registers used:
  5543 ;;		wreg, fsr2l, fsr2h, status,2, status,0, cstack
  5544 ;; Tracked objects:
  5545 ;;		On entry : 0/0
  5546 ;;		On exit  : 0/0
  5547 ;;		Unchanged: 0/0
  5548 ;; Data sizes:     COMRAM   BANK0   BANK1   BANK2   BANK3   BANK4   BANK5   BANK6   BANK7   BANK8   BANK9  BANK10  BANK1
      +1  BANK12  BANK13  BANK14
  5549 ;;      Params:         0       2       0       0       0       0       0       0       0       0       0       0       
      +0       0       0       0
  5550 ;;      Locals:         0       4       0       0       0       0       0       0       0       0       0       0       
      +0       0       0       0
  5551 ;;      Temps:          0       0       0       0       0       0       0       0       0       0       0       0       
      +0       0       0       0
  5552 ;;      Totals:         0       6       0       0       0       0       0       0       0       0       0       0       
      +0       0       0       0
  5553 ;;Total ram usage:        6 bytes
  5554 ;; Hardware stack levels used: 1
  5555 ;; Hardware stack levels required when called: 6
  5556 ;; This function calls:
  5557 ;;		_convertCANid2Reg
  5558 ;; This function is called by:
  5559 ;;		_main
  5560 ;; This function uses a non-reentrant model
  5561 ;;
  5562                           
  5563                           	psect	text38
  5564   0010B2                     __ptext38:
  5565                           	callstack 0
  5566   0010B2                     _CAN_transmit:
  5567                           	callstack 24
  5568   0010B2                     
  5569                           ;mcc_generated_files/ecan.c: 172:     uint8_t tempEIDH = 0;
  5570   0010B2  0E00               	movlw	0
  5571   0010B4  0100               	movlb	0	; () banked
  5572   0010B6  6F74               	movwf	CAN_transmit@tempEIDH& (0+255),b
  5573                           
  5574                           ;mcc_generated_files/ecan.c: 173:     uint8_t tempEIDL = 0;
  5575   0010B8  0E00               	movlw	0
  5576   0010BA  6F75               	movwf	CAN_transmit@tempEIDL& (0+255),b
  5577                           
  5578                           ;mcc_generated_files/ecan.c: 174:     uint8_t tempSIDH = 0;
  5579   0010BC  0E00               	movlw	0
  5580   0010BE  6F76               	movwf	CAN_transmit@tempSIDH& (0+255),b
  5581                           
  5582                           ;mcc_generated_files/ecan.c: 175:     uint8_t tempSIDL = 0;
  5583   0010C0  0E00               	movlw	0
  5584   0010C2  6F77               	movwf	CAN_transmit@tempSIDL& (0+255),b
  5585   0010C4                     
  5586                           ; BSR set to: 0
  5587                           ;mcc_generated_files/ecan.c: 179:     if (TXB0CONbits.TXREQ != 1)
  5588   0010C4  010F               	movlb	15	; () banked
  5589   0010C6  B720               	btfsc	32,3,b	;volatile
  5590   0010C8  EF68  F008         	goto	u2661
  5591   0010CC  EF6A  F008         	goto	u2660
  5592   0010D0                     u2661:
  5593   0010D0  EFF6  F008         	goto	l458
  5594   0010D4                     u2660:
  5595   0010D4                     
  5596                           ; BSR set to: 15
  5597                           ;mcc_generated_files/ecan.c: 180:     {;mcc_generated_files/ecan.c: 181:         convert
      +                          CANid2Reg(tempCanMsg->frame.id, tempCanMsg->frame.idType, &tempEIDH, &tempEIDL, &tempSID
      +                          H, &tempSIDL);
  5598   0010D4  0100               	movlb	0	; () banked
  5599   0010D6  EE20 F001          	lfsr	2,1
  5600   0010DA  5172               	movf	CAN_transmit@tempCanMsg& (0+255),w,b
  5601   0010DC  26D9               	addwf	fsr2l,f,c
  5602   0010DE  5173               	movf	(CAN_transmit@tempCanMsg+1)& (0+255),w,b
  5603   0010E0  22DA               	addwfc	fsr2h,f,c
  5604   0010E2  CFDE F060          	movff	postinc2,convertCANid2Reg@tempPassedInID
  5605   0010E6  CFDE F061          	movff	postinc2,convertCANid2Reg@tempPassedInID+1
  5606   0010EA  CFDE F062          	movff	postinc2,convertCANid2Reg@tempPassedInID+2
  5607   0010EE  CFDE F063          	movff	postinc2,convertCANid2Reg@tempPassedInID+3
  5608   0010F2  C072  FFD9         	movff	CAN_transmit@tempCanMsg,fsr2l
  5609   0010F6  C073  FFDA         	movff	CAN_transmit@tempCanMsg+1,fsr2h
  5610   0010FA  50DF               	movf	indf2,w,c
  5611   0010FC  6F64               	movwf	convertCANid2Reg@canIdType& (0+255),b
  5612   0010FE  0E74               	movlw	low CAN_transmit@tempEIDH
  5613   001100  6F65               	movwf	convertCANid2Reg@passedInEIDH& (0+255),b
  5614   001102  0E00               	movlw	high CAN_transmit@tempEIDH
  5615   001104  6F66               	movwf	(convertCANid2Reg@passedInEIDH+1)& (0+255),b
  5616   001106  0E75               	movlw	low CAN_transmit@tempEIDL
  5617   001108  6F67               	movwf	convertCANid2Reg@passedInEIDL& (0+255),b
  5618   00110A  0E00               	movlw	high CAN_transmit@tempEIDL
  5619   00110C  6F68               	movwf	(convertCANid2Reg@passedInEIDL+1)& (0+255),b
  5620   00110E  0E76               	movlw	low CAN_transmit@tempSIDH
  5621   001110  6F69               	movwf	convertCANid2Reg@passedInSIDH& (0+255),b
  5622   001112  0E00               	movlw	high CAN_transmit@tempSIDH
  5623   001114  6F6A               	movwf	(convertCANid2Reg@passedInSIDH+1)& (0+255),b
  5624   001116  0E77               	movlw	low CAN_transmit@tempSIDL
  5625   001118  6F6B               	movwf	convertCANid2Reg@passedInSIDL& (0+255),b
  5626   00111A  0E00               	movlw	high CAN_transmit@tempSIDL
  5627   00111C  6F6C               	movwf	(convertCANid2Reg@passedInSIDL+1)& (0+255),b
  5628   00111E  EC95  F00F         	call	_convertCANid2Reg	;wreg free
  5629   001122                     
  5630                           ;mcc_generated_files/ecan.c: 183:         TXB0EIDH = tempEIDH;
  5631   001122  C074  FF23         	movff	CAN_transmit@tempEIDH,3875	;volatile
  5632   001126                     
  5633                           ;mcc_generated_files/ecan.c: 184:         TXB0EIDL = tempEIDL;
  5634   001126  C075  FF24         	movff	CAN_transmit@tempEIDL,3876	;volatile
  5635   00112A                     
  5636                           ;mcc_generated_files/ecan.c: 185:         TXB0SIDH = tempSIDH;
  5637   00112A  C076  FF21         	movff	CAN_transmit@tempSIDH,3873	;volatile
  5638   00112E                     
  5639                           ;mcc_generated_files/ecan.c: 186:         TXB0SIDL = tempSIDL;
  5640   00112E  C077  FF22         	movff	CAN_transmit@tempSIDL,3874	;volatile
  5641   001132                     
  5642                           ;mcc_generated_files/ecan.c: 187:         TXB0DLC = tempCanMsg->frame.dlc;
  5643   001132  0100               	movlb	0	; () banked
  5644   001134  EE20 F005          	lfsr	2,5
  5645   001138  5172               	movf	CAN_transmit@tempCanMsg& (0+255),w,b
  5646   00113A  26D9               	addwf	fsr2l,f,c
  5647   00113C  5173               	movf	(CAN_transmit@tempCanMsg+1)& (0+255),w,b
  5648   00113E  22DA               	addwfc	fsr2h,f,c
  5649   001140  50DF               	movf	indf2,w,c
  5650   001142  010F               	movlb	15	; () banked
  5651   001144  6F25               	movwf	37,b	;volatile
  5652   001146                     
  5653                           ; BSR set to: 15
  5654                           ;mcc_generated_files/ecan.c: 188:         TXB0D0 = tempCanMsg->frame.data0;
  5655   001146  0100               	movlb	0	; () banked
  5656   001148  EE20 F006          	lfsr	2,6
  5657   00114C  5172               	movf	CAN_transmit@tempCanMsg& (0+255),w,b
  5658   00114E  26D9               	addwf	fsr2l,f,c
  5659   001150  5173               	movf	(CAN_transmit@tempCanMsg+1)& (0+255),w,b
  5660   001152  22DA               	addwfc	fsr2h,f,c
  5661   001154  50DF               	movf	indf2,w,c
  5662   001156  010F               	movlb	15	; () banked
  5663   001158  6F26               	movwf	38,b	;volatile
  5664   00115A                     
  5665                           ; BSR set to: 15
  5666                           ;mcc_generated_files/ecan.c: 189:         TXB0D1 = tempCanMsg->frame.data1;
  5667   00115A  0100               	movlb	0	; () banked
  5668   00115C  EE20 F007          	lfsr	2,7
  5669   001160  5172               	movf	CAN_transmit@tempCanMsg& (0+255),w,b
  5670   001162  26D9               	addwf	fsr2l,f,c
  5671   001164  5173               	movf	(CAN_transmit@tempCanMsg+1)& (0+255),w,b
  5672   001166  22DA               	addwfc	fsr2h,f,c
  5673   001168  50DF               	movf	indf2,w,c
  5674   00116A  010F               	movlb	15	; () banked
  5675   00116C  6F27               	movwf	39,b	;volatile
  5676   00116E                     
  5677                           ; BSR set to: 15
  5678                           ;mcc_generated_files/ecan.c: 190:         TXB0D2 = tempCanMsg->frame.data2;
  5679   00116E  0100               	movlb	0	; () banked
  5680   001170  EE20 F008          	lfsr	2,8
  5681   001174  5172               	movf	CAN_transmit@tempCanMsg& (0+255),w,b
  5682   001176  26D9               	addwf	fsr2l,f,c
  5683   001178  5173               	movf	(CAN_transmit@tempCanMsg+1)& (0+255),w,b
  5684   00117A  22DA               	addwfc	fsr2h,f,c
  5685   00117C  50DF               	movf	indf2,w,c
  5686   00117E  010F               	movlb	15	; () banked
  5687   001180  6F28               	movwf	40,b	;volatile
  5688   001182                     
  5689                           ; BSR set to: 15
  5690                           ;mcc_generated_files/ecan.c: 191:         TXB0D3 = tempCanMsg->frame.data3;
  5691   001182  0100               	movlb	0	; () banked
  5692   001184  EE20 F009          	lfsr	2,9
  5693   001188  5172               	movf	CAN_transmit@tempCanMsg& (0+255),w,b
  5694   00118A  26D9               	addwf	fsr2l,f,c
  5695   00118C  5173               	movf	(CAN_transmit@tempCanMsg+1)& (0+255),w,b
  5696   00118E  22DA               	addwfc	fsr2h,f,c
  5697   001190  50DF               	movf	indf2,w,c
  5698   001192  010F               	movlb	15	; () banked
  5699   001194  6F29               	movwf	41,b	;volatile
  5700   001196                     
  5701                           ; BSR set to: 15
  5702                           ;mcc_generated_files/ecan.c: 192:         TXB0D4 = tempCanMsg->frame.data4;
  5703   001196  0100               	movlb	0	; () banked
  5704   001198  EE20 F00A          	lfsr	2,10
  5705   00119C  5172               	movf	CAN_transmit@tempCanMsg& (0+255),w,b
  5706   00119E  26D9               	addwf	fsr2l,f,c
  5707   0011A0  5173               	movf	(CAN_transmit@tempCanMsg+1)& (0+255),w,b
  5708   0011A2  22DA               	addwfc	fsr2h,f,c
  5709   0011A4  50DF               	movf	indf2,w,c
  5710   0011A6  010F               	movlb	15	; () banked
  5711   0011A8  6F2A               	movwf	42,b	;volatile
  5712   0011AA                     
  5713                           ; BSR set to: 15
  5714                           ;mcc_generated_files/ecan.c: 193:         TXB0D5 = tempCanMsg->frame.data5;
  5715   0011AA  0100               	movlb	0	; () banked
  5716   0011AC  EE20 F00B          	lfsr	2,11
  5717   0011B0  5172               	movf	CAN_transmit@tempCanMsg& (0+255),w,b
  5718   0011B2  26D9               	addwf	fsr2l,f,c
  5719   0011B4  5173               	movf	(CAN_transmit@tempCanMsg+1)& (0+255),w,b
  5720   0011B6  22DA               	addwfc	fsr2h,f,c
  5721   0011B8  50DF               	movf	indf2,w,c
  5722   0011BA  010F               	movlb	15	; () banked
  5723   0011BC  6F2B               	movwf	43,b	;volatile
  5724   0011BE                     
  5725                           ; BSR set to: 15
  5726                           ;mcc_generated_files/ecan.c: 194:         TXB0D6 = tempCanMsg->frame.data6;
  5727   0011BE  0100               	movlb	0	; () banked
  5728   0011C0  EE20 F00C          	lfsr	2,12
  5729   0011C4  5172               	movf	CAN_transmit@tempCanMsg& (0+255),w,b
  5730   0011C6  26D9               	addwf	fsr2l,f,c
  5731   0011C8  5173               	movf	(CAN_transmit@tempCanMsg+1)& (0+255),w,b
  5732   0011CA  22DA               	addwfc	fsr2h,f,c
  5733   0011CC  50DF               	movf	indf2,w,c
  5734   0011CE  010F               	movlb	15	; () banked
  5735   0011D0  6F2C               	movwf	44,b	;volatile
  5736   0011D2                     
  5737                           ; BSR set to: 15
  5738                           ;mcc_generated_files/ecan.c: 195:         TXB0D7 = tempCanMsg->frame.data7;
  5739   0011D2  0100               	movlb	0	; () banked
  5740   0011D4  EE20 F00D          	lfsr	2,13
  5741   0011D8  5172               	movf	CAN_transmit@tempCanMsg& (0+255),w,b
  5742   0011DA  26D9               	addwf	fsr2l,f,c
  5743   0011DC  5173               	movf	(CAN_transmit@tempCanMsg+1)& (0+255),w,b
  5744   0011DE  22DA               	addwfc	fsr2h,f,c
  5745   0011E0  50DF               	movf	indf2,w,c
  5746   0011E2  010F               	movlb	15	; () banked
  5747   0011E4  6F2D               	movwf	45,b	;volatile
  5748   0011E6                     
  5749                           ; BSR set to: 15
  5750                           ;mcc_generated_files/ecan.c: 197:         TXB0CONbits.TXREQ = 1;
  5751   0011E6  8720               	bsf	32,3,b	;volatile
  5752   0011E8                     l4601:
  5753                           
  5754                           ; BSR set to: 15
  5755                           ;mcc_generated_files/ecan.c: 200:     }
  5756   0011E8  EF1C  F00A         	goto	l463
  5757   0011EC                     l458:
  5758                           
  5759                           ; BSR set to: 15
  5760   0011EC  B710               	btfsc	16,3,b	;volatile
  5761   0011EE  EFFB  F008         	goto	u2671
  5762   0011F2  EFFD  F008         	goto	u2670
  5763   0011F6                     u2671:
  5764   0011F6  EF89  F009         	goto	l460
  5765   0011FA                     u2670:
  5766   0011FA                     
  5767                           ; BSR set to: 15
  5768                           ;mcc_generated_files/ecan.c: 202:     {;mcc_generated_files/ecan.c: 204:         convert
      +                          CANid2Reg(tempCanMsg->frame.id, tempCanMsg->frame.idType, &tempEIDH, &tempEIDL, &tempSID
      +                          H, &tempSIDL);
  5769   0011FA  0100               	movlb	0	; () banked
  5770   0011FC  EE20 F001          	lfsr	2,1
  5771   001200  5172               	movf	CAN_transmit@tempCanMsg& (0+255),w,b
  5772   001202  26D9               	addwf	fsr2l,f,c
  5773   001204  5173               	movf	(CAN_transmit@tempCanMsg+1)& (0+255),w,b
  5774   001206  22DA               	addwfc	fsr2h,f,c
  5775   001208  CFDE F060          	movff	postinc2,convertCANid2Reg@tempPassedInID
  5776   00120C  CFDE F061          	movff	postinc2,convertCANid2Reg@tempPassedInID+1
  5777   001210  CFDE F062          	movff	postinc2,convertCANid2Reg@tempPassedInID+2
  5778   001214  CFDE F063          	movff	postinc2,convertCANid2Reg@tempPassedInID+3
  5779   001218  C072  FFD9         	movff	CAN_transmit@tempCanMsg,fsr2l
  5780   00121C  C073  FFDA         	movff	CAN_transmit@tempCanMsg+1,fsr2h
  5781   001220  50DF               	movf	indf2,w,c
  5782   001222  6F64               	movwf	convertCANid2Reg@canIdType& (0+255),b
  5783   001224  0E74               	movlw	low CAN_transmit@tempEIDH
  5784   001226  6F65               	movwf	convertCANid2Reg@passedInEIDH& (0+255),b
  5785   001228  0E00               	movlw	high CAN_transmit@tempEIDH
  5786   00122A  6F66               	movwf	(convertCANid2Reg@passedInEIDH+1)& (0+255),b
  5787   00122C  0E75               	movlw	low CAN_transmit@tempEIDL
  5788   00122E  6F67               	movwf	convertCANid2Reg@passedInEIDL& (0+255),b
  5789   001230  0E00               	movlw	high CAN_transmit@tempEIDL
  5790   001232  6F68               	movwf	(convertCANid2Reg@passedInEIDL+1)& (0+255),b
  5791   001234  0E76               	movlw	low CAN_transmit@tempSIDH
  5792   001236  6F69               	movwf	convertCANid2Reg@passedInSIDH& (0+255),b
  5793   001238  0E00               	movlw	high CAN_transmit@tempSIDH
  5794   00123A  6F6A               	movwf	(convertCANid2Reg@passedInSIDH+1)& (0+255),b
  5795   00123C  0E77               	movlw	low CAN_transmit@tempSIDL
  5796   00123E  6F6B               	movwf	convertCANid2Reg@passedInSIDL& (0+255),b
  5797   001240  0E00               	movlw	high CAN_transmit@tempSIDL
  5798   001242  6F6C               	movwf	(convertCANid2Reg@passedInSIDL+1)& (0+255),b
  5799   001244  EC95  F00F         	call	_convertCANid2Reg	;wreg free
  5800   001248                     
  5801                           ;mcc_generated_files/ecan.c: 206:         TXB1EIDH = tempEIDH;
  5802   001248  C074  FF13         	movff	CAN_transmit@tempEIDH,3859	;volatile
  5803   00124C                     
  5804                           ;mcc_generated_files/ecan.c: 207:         TXB1EIDL = tempEIDL;
  5805   00124C  C075  FF14         	movff	CAN_transmit@tempEIDL,3860	;volatile
  5806   001250                     
  5807                           ;mcc_generated_files/ecan.c: 208:         TXB1SIDH = tempSIDH;
  5808   001250  C076  FF11         	movff	CAN_transmit@tempSIDH,3857	;volatile
  5809   001254                     
  5810                           ;mcc_generated_files/ecan.c: 209:         TXB1SIDL = tempSIDL;
  5811   001254  C077  FF12         	movff	CAN_transmit@tempSIDL,3858	;volatile
  5812   001258                     
  5813                           ;mcc_generated_files/ecan.c: 210:         TXB1DLC = tempCanMsg->frame.dlc;
  5814   001258  0100               	movlb	0	; () banked
  5815   00125A  EE20 F005          	lfsr	2,5
  5816   00125E  5172               	movf	CAN_transmit@tempCanMsg& (0+255),w,b
  5817   001260  26D9               	addwf	fsr2l,f,c
  5818   001262  5173               	movf	(CAN_transmit@tempCanMsg+1)& (0+255),w,b
  5819   001264  22DA               	addwfc	fsr2h,f,c
  5820   001266  50DF               	movf	indf2,w,c
  5821   001268  010F               	movlb	15	; () banked
  5822   00126A  6F15               	movwf	21,b	;volatile
  5823   00126C                     
  5824                           ; BSR set to: 15
  5825                           ;mcc_generated_files/ecan.c: 211:         TXB1D0 = tempCanMsg->frame.data0;
  5826   00126C  0100               	movlb	0	; () banked
  5827   00126E  EE20 F006          	lfsr	2,6
  5828   001272  5172               	movf	CAN_transmit@tempCanMsg& (0+255),w,b
  5829   001274  26D9               	addwf	fsr2l,f,c
  5830   001276  5173               	movf	(CAN_transmit@tempCanMsg+1)& (0+255),w,b
  5831   001278  22DA               	addwfc	fsr2h,f,c
  5832   00127A  50DF               	movf	indf2,w,c
  5833   00127C  010F               	movlb	15	; () banked
  5834   00127E  6F16               	movwf	22,b	;volatile
  5835   001280                     
  5836                           ; BSR set to: 15
  5837                           ;mcc_generated_files/ecan.c: 212:         TXB1D1 = tempCanMsg->frame.data1;
  5838   001280  0100               	movlb	0	; () banked
  5839   001282  EE20 F007          	lfsr	2,7
  5840   001286  5172               	movf	CAN_transmit@tempCanMsg& (0+255),w,b
  5841   001288  26D9               	addwf	fsr2l,f,c
  5842   00128A  5173               	movf	(CAN_transmit@tempCanMsg+1)& (0+255),w,b
  5843   00128C  22DA               	addwfc	fsr2h,f,c
  5844   00128E  50DF               	movf	indf2,w,c
  5845   001290  010F               	movlb	15	; () banked
  5846   001292  6F17               	movwf	23,b	;volatile
  5847   001294                     
  5848                           ; BSR set to: 15
  5849                           ;mcc_generated_files/ecan.c: 213:         TXB1D2 = tempCanMsg->frame.data2;
  5850   001294  0100               	movlb	0	; () banked
  5851   001296  EE20 F008          	lfsr	2,8
  5852   00129A  5172               	movf	CAN_transmit@tempCanMsg& (0+255),w,b
  5853   00129C  26D9               	addwf	fsr2l,f,c
  5854   00129E  5173               	movf	(CAN_transmit@tempCanMsg+1)& (0+255),w,b
  5855   0012A0  22DA               	addwfc	fsr2h,f,c
  5856   0012A2  50DF               	movf	indf2,w,c
  5857   0012A4  010F               	movlb	15	; () banked
  5858   0012A6  6F18               	movwf	24,b	;volatile
  5859   0012A8                     
  5860                           ; BSR set to: 15
  5861                           ;mcc_generated_files/ecan.c: 214:         TXB1D3 = tempCanMsg->frame.data3;
  5862   0012A8  0100               	movlb	0	; () banked
  5863   0012AA  EE20 F009          	lfsr	2,9
  5864   0012AE  5172               	movf	CAN_transmit@tempCanMsg& (0+255),w,b
  5865   0012B0  26D9               	addwf	fsr2l,f,c
  5866   0012B2  5173               	movf	(CAN_transmit@tempCanMsg+1)& (0+255),w,b
  5867   0012B4  22DA               	addwfc	fsr2h,f,c
  5868   0012B6  50DF               	movf	indf2,w,c
  5869   0012B8  010F               	movlb	15	; () banked
  5870   0012BA  6F19               	movwf	25,b	;volatile
  5871   0012BC                     
  5872                           ; BSR set to: 15
  5873                           ;mcc_generated_files/ecan.c: 215:         TXB1D4 = tempCanMsg->frame.data4;
  5874   0012BC  0100               	movlb	0	; () banked
  5875   0012BE  EE20 F00A          	lfsr	2,10
  5876   0012C2  5172               	movf	CAN_transmit@tempCanMsg& (0+255),w,b
  5877   0012C4  26D9               	addwf	fsr2l,f,c
  5878   0012C6  5173               	movf	(CAN_transmit@tempCanMsg+1)& (0+255),w,b
  5879   0012C8  22DA               	addwfc	fsr2h,f,c
  5880   0012CA  50DF               	movf	indf2,w,c
  5881   0012CC  010F               	movlb	15	; () banked
  5882   0012CE  6F1A               	movwf	26,b	;volatile
  5883   0012D0                     
  5884                           ; BSR set to: 15
  5885                           ;mcc_generated_files/ecan.c: 216:         TXB1D5 = tempCanMsg->frame.data5;
  5886   0012D0  0100               	movlb	0	; () banked
  5887   0012D2  EE20 F00B          	lfsr	2,11
  5888   0012D6  5172               	movf	CAN_transmit@tempCanMsg& (0+255),w,b
  5889   0012D8  26D9               	addwf	fsr2l,f,c
  5890   0012DA  5173               	movf	(CAN_transmit@tempCanMsg+1)& (0+255),w,b
  5891   0012DC  22DA               	addwfc	fsr2h,f,c
  5892   0012DE  50DF               	movf	indf2,w,c
  5893   0012E0  010F               	movlb	15	; () banked
  5894   0012E2  6F1B               	movwf	27,b	;volatile
  5895   0012E4                     
  5896                           ; BSR set to: 15
  5897                           ;mcc_generated_files/ecan.c: 217:         TXB1D6 = tempCanMsg->frame.data6;
  5898   0012E4  0100               	movlb	0	; () banked
  5899   0012E6  EE20 F00C          	lfsr	2,12
  5900   0012EA  5172               	movf	CAN_transmit@tempCanMsg& (0+255),w,b
  5901   0012EC  26D9               	addwf	fsr2l,f,c
  5902   0012EE  5173               	movf	(CAN_transmit@tempCanMsg+1)& (0+255),w,b
  5903   0012F0  22DA               	addwfc	fsr2h,f,c
  5904   0012F2  50DF               	movf	indf2,w,c
  5905   0012F4  010F               	movlb	15	; () banked
  5906   0012F6  6F1C               	movwf	28,b	;volatile
  5907   0012F8                     
  5908                           ; BSR set to: 15
  5909                           ;mcc_generated_files/ecan.c: 218:         TXB1D7 = tempCanMsg->frame.data7;
  5910   0012F8  0100               	movlb	0	; () banked
  5911   0012FA  EE20 F00D          	lfsr	2,13
  5912   0012FE  5172               	movf	CAN_transmit@tempCanMsg& (0+255),w,b
  5913   001300  26D9               	addwf	fsr2l,f,c
  5914   001302  5173               	movf	(CAN_transmit@tempCanMsg+1)& (0+255),w,b
  5915   001304  22DA               	addwfc	fsr2h,f,c
  5916   001306  50DF               	movf	indf2,w,c
  5917   001308  010F               	movlb	15	; () banked
  5918   00130A  6F1D               	movwf	29,b	;volatile
  5919   00130C                     
  5920                           ; BSR set to: 15
  5921                           ;mcc_generated_files/ecan.c: 220:         TXB1CONbits.TXREQ = 1;
  5922   00130C  8710               	bsf	16,3,b	;volatile
  5923   00130E  EFF4  F008         	goto	l4601
  5924   001312                     l460:
  5925                           
  5926                           ; BSR set to: 15
  5927   001312  B700               	btfsc	0,3,b	;volatile
  5928   001314  EF8E  F009         	goto	u2681
  5929   001318  EF90  F009         	goto	u2680
  5930   00131C                     u2681:
  5931   00131C  EF1C  F00A         	goto	l459
  5932   001320                     u2680:
  5933   001320                     
  5934                           ; BSR set to: 15
  5935                           ;mcc_generated_files/ecan.c: 224:     {;mcc_generated_files/ecan.c: 226:         convert
      +                          CANid2Reg(tempCanMsg->frame.id, tempCanMsg->frame.idType, &tempEIDH, &tempEIDL, &tempSID
      +                          H, &tempSIDL);
  5936   001320  0100               	movlb	0	; () banked
  5937   001322  EE20 F001          	lfsr	2,1
  5938   001326  5172               	movf	CAN_transmit@tempCanMsg& (0+255),w,b
  5939   001328  26D9               	addwf	fsr2l,f,c
  5940   00132A  5173               	movf	(CAN_transmit@tempCanMsg+1)& (0+255),w,b
  5941   00132C  22DA               	addwfc	fsr2h,f,c
  5942   00132E  CFDE F060          	movff	postinc2,convertCANid2Reg@tempPassedInID
  5943   001332  CFDE F061          	movff	postinc2,convertCANid2Reg@tempPassedInID+1
  5944   001336  CFDE F062          	movff	postinc2,convertCANid2Reg@tempPassedInID+2
  5945   00133A  CFDE F063          	movff	postinc2,convertCANid2Reg@tempPassedInID+3
  5946   00133E  C072  FFD9         	movff	CAN_transmit@tempCanMsg,fsr2l
  5947   001342  C073  FFDA         	movff	CAN_transmit@tempCanMsg+1,fsr2h
  5948   001346  50DF               	movf	indf2,w,c
  5949   001348  6F64               	movwf	convertCANid2Reg@canIdType& (0+255),b
  5950   00134A  0E74               	movlw	low CAN_transmit@tempEIDH
  5951   00134C  6F65               	movwf	convertCANid2Reg@passedInEIDH& (0+255),b
  5952   00134E  0E00               	movlw	high CAN_transmit@tempEIDH
  5953   001350  6F66               	movwf	(convertCANid2Reg@passedInEIDH+1)& (0+255),b
  5954   001352  0E75               	movlw	low CAN_transmit@tempEIDL
  5955   001354  6F67               	movwf	convertCANid2Reg@passedInEIDL& (0+255),b
  5956   001356  0E00               	movlw	high CAN_transmit@tempEIDL
  5957   001358  6F68               	movwf	(convertCANid2Reg@passedInEIDL+1)& (0+255),b
  5958   00135A  0E76               	movlw	low CAN_transmit@tempSIDH
  5959   00135C  6F69               	movwf	convertCANid2Reg@passedInSIDH& (0+255),b
  5960   00135E  0E00               	movlw	high CAN_transmit@tempSIDH
  5961   001360  6F6A               	movwf	(convertCANid2Reg@passedInSIDH+1)& (0+255),b
  5962   001362  0E77               	movlw	low CAN_transmit@tempSIDL
  5963   001364  6F6B               	movwf	convertCANid2Reg@passedInSIDL& (0+255),b
  5964   001366  0E00               	movlw	high CAN_transmit@tempSIDL
  5965   001368  6F6C               	movwf	(convertCANid2Reg@passedInSIDL+1)& (0+255),b
  5966   00136A  EC95  F00F         	call	_convertCANid2Reg	;wreg free
  5967   00136E                     
  5968                           ;mcc_generated_files/ecan.c: 228:         TXB2EIDH = tempEIDH;
  5969   00136E  C074  FF03         	movff	CAN_transmit@tempEIDH,3843	;volatile
  5970   001372                     
  5971                           ;mcc_generated_files/ecan.c: 229:         TXB2EIDL = tempEIDL;
  5972   001372  C075  FF04         	movff	CAN_transmit@tempEIDL,3844	;volatile
  5973   001376                     
  5974                           ;mcc_generated_files/ecan.c: 230:         TXB2SIDH = tempSIDH;
  5975   001376  C076  FF01         	movff	CAN_transmit@tempSIDH,3841	;volatile
  5976   00137A                     
  5977                           ;mcc_generated_files/ecan.c: 231:         TXB2SIDL = tempSIDL;
  5978   00137A  C077  FF02         	movff	CAN_transmit@tempSIDL,3842	;volatile
  5979   00137E                     
  5980                           ;mcc_generated_files/ecan.c: 232:         TXB2DLC = tempCanMsg->frame.dlc;
  5981   00137E  0100               	movlb	0	; () banked
  5982   001380  EE20 F005          	lfsr	2,5
  5983   001384  5172               	movf	CAN_transmit@tempCanMsg& (0+255),w,b
  5984   001386  26D9               	addwf	fsr2l,f,c
  5985   001388  5173               	movf	(CAN_transmit@tempCanMsg+1)& (0+255),w,b
  5986   00138A  22DA               	addwfc	fsr2h,f,c
  5987   00138C  50DF               	movf	indf2,w,c
  5988   00138E  010F               	movlb	15	; () banked
  5989   001390  6F05               	movwf	5,b	;volatile
  5990   001392                     
  5991                           ; BSR set to: 15
  5992                           ;mcc_generated_files/ecan.c: 233:         TXB2D0 = tempCanMsg->frame.data0;
  5993   001392  0100               	movlb	0	; () banked
  5994   001394  EE20 F006          	lfsr	2,6
  5995   001398  5172               	movf	CAN_transmit@tempCanMsg& (0+255),w,b
  5996   00139A  26D9               	addwf	fsr2l,f,c
  5997   00139C  5173               	movf	(CAN_transmit@tempCanMsg+1)& (0+255),w,b
  5998   00139E  22DA               	addwfc	fsr2h,f,c
  5999   0013A0  50DF               	movf	indf2,w,c
  6000   0013A2  010F               	movlb	15	; () banked
  6001   0013A4  6F06               	movwf	6,b	;volatile
  6002   0013A6                     
  6003                           ; BSR set to: 15
  6004                           ;mcc_generated_files/ecan.c: 234:         TXB2D1 = tempCanMsg->frame.data1;
  6005   0013A6  0100               	movlb	0	; () banked
  6006   0013A8  EE20 F007          	lfsr	2,7
  6007   0013AC  5172               	movf	CAN_transmit@tempCanMsg& (0+255),w,b
  6008   0013AE  26D9               	addwf	fsr2l,f,c
  6009   0013B0  5173               	movf	(CAN_transmit@tempCanMsg+1)& (0+255),w,b
  6010   0013B2  22DA               	addwfc	fsr2h,f,c
  6011   0013B4  50DF               	movf	indf2,w,c
  6012   0013B6  010F               	movlb	15	; () banked
  6013   0013B8  6F07               	movwf	7,b	;volatile
  6014   0013BA                     
  6015                           ; BSR set to: 15
  6016                           ;mcc_generated_files/ecan.c: 235:         TXB2D2 = tempCanMsg->frame.data2;
  6017   0013BA  0100               	movlb	0	; () banked
  6018   0013BC  EE20 F008          	lfsr	2,8
  6019   0013C0  5172               	movf	CAN_transmit@tempCanMsg& (0+255),w,b
  6020   0013C2  26D9               	addwf	fsr2l,f,c
  6021   0013C4  5173               	movf	(CAN_transmit@tempCanMsg+1)& (0+255),w,b
  6022   0013C6  22DA               	addwfc	fsr2h,f,c
  6023   0013C8  50DF               	movf	indf2,w,c
  6024   0013CA  010F               	movlb	15	; () banked
  6025   0013CC  6F08               	movwf	8,b	;volatile
  6026   0013CE                     
  6027                           ; BSR set to: 15
  6028                           ;mcc_generated_files/ecan.c: 236:         TXB2D3 = tempCanMsg->frame.data3;
  6029   0013CE  0100               	movlb	0	; () banked
  6030   0013D0  EE20 F009          	lfsr	2,9
  6031   0013D4  5172               	movf	CAN_transmit@tempCanMsg& (0+255),w,b
  6032   0013D6  26D9               	addwf	fsr2l,f,c
  6033   0013D8  5173               	movf	(CAN_transmit@tempCanMsg+1)& (0+255),w,b
  6034   0013DA  22DA               	addwfc	fsr2h,f,c
  6035   0013DC  50DF               	movf	indf2,w,c
  6036   0013DE  010F               	movlb	15	; () banked
  6037   0013E0  6F09               	movwf	9,b	;volatile
  6038   0013E2                     
  6039                           ; BSR set to: 15
  6040                           ;mcc_generated_files/ecan.c: 237:         TXB2D4 = tempCanMsg->frame.data4;
  6041   0013E2  0100               	movlb	0	; () banked
  6042   0013E4  EE20 F00A          	lfsr	2,10
  6043   0013E8  5172               	movf	CAN_transmit@tempCanMsg& (0+255),w,b
  6044   0013EA  26D9               	addwf	fsr2l,f,c
  6045   0013EC  5173               	movf	(CAN_transmit@tempCanMsg+1)& (0+255),w,b
  6046   0013EE  22DA               	addwfc	fsr2h,f,c
  6047   0013F0  50DF               	movf	indf2,w,c
  6048   0013F2  010F               	movlb	15	; () banked
  6049   0013F4  6F0A               	movwf	10,b	;volatile
  6050   0013F6                     
  6051                           ; BSR set to: 15
  6052                           ;mcc_generated_files/ecan.c: 238:         TXB2D5 = tempCanMsg->frame.data5;
  6053   0013F6  0100               	movlb	0	; () banked
  6054   0013F8  EE20 F00B          	lfsr	2,11
  6055   0013FC  5172               	movf	CAN_transmit@tempCanMsg& (0+255),w,b
  6056   0013FE  26D9               	addwf	fsr2l,f,c
  6057   001400  5173               	movf	(CAN_transmit@tempCanMsg+1)& (0+255),w,b
  6058   001402  22DA               	addwfc	fsr2h,f,c
  6059   001404  50DF               	movf	indf2,w,c
  6060   001406  010F               	movlb	15	; () banked
  6061   001408  6F0B               	movwf	11,b	;volatile
  6062   00140A                     
  6063                           ; BSR set to: 15
  6064                           ;mcc_generated_files/ecan.c: 239:         TXB2D6 = tempCanMsg->frame.data6;
  6065   00140A  0100               	movlb	0	; () banked
  6066   00140C  EE20 F00C          	lfsr	2,12
  6067   001410  5172               	movf	CAN_transmit@tempCanMsg& (0+255),w,b
  6068   001412  26D9               	addwf	fsr2l,f,c
  6069   001414  5173               	movf	(CAN_transmit@tempCanMsg+1)& (0+255),w,b
  6070   001416  22DA               	addwfc	fsr2h,f,c
  6071   001418  50DF               	movf	indf2,w,c
  6072   00141A  010F               	movlb	15	; () banked
  6073   00141C  6F0C               	movwf	12,b	;volatile
  6074   00141E                     
  6075                           ; BSR set to: 15
  6076                           ;mcc_generated_files/ecan.c: 240:         TXB2D7 = tempCanMsg->frame.data7;
  6077   00141E  0100               	movlb	0	; () banked
  6078   001420  EE20 F00D          	lfsr	2,13
  6079   001424  5172               	movf	CAN_transmit@tempCanMsg& (0+255),w,b
  6080   001426  26D9               	addwf	fsr2l,f,c
  6081   001428  5173               	movf	(CAN_transmit@tempCanMsg+1)& (0+255),w,b
  6082   00142A  22DA               	addwfc	fsr2h,f,c
  6083   00142C  50DF               	movf	indf2,w,c
  6084   00142E  010F               	movlb	15	; () banked
  6085   001430  6F0D               	movwf	13,b	;volatile
  6086   001432                     
  6087                           ; BSR set to: 15
  6088                           ;mcc_generated_files/ecan.c: 242:         TXB2CONbits.TXREQ = 1;
  6089   001432  8700               	bsf	0,3,b	;volatile
  6090   001434  EFF4  F008         	goto	l4601
  6091   001438                     l459:
  6092   001438                     l463:
  6093                           
  6094                           ; BSR set to: 15
  6095   001438  0012               	return		;funcret
  6096   00143A                     __end_of_CAN_transmit:
  6097                           	callstack 0
  6098                           
  6099 ;; *************** function _convertCANid2Reg *****************
  6100 ;; Defined at:
  6101 ;;		line 408 in file "mcc_generated_files/ecan.c"
  6102 ;; Parameters:    Size  Location     Type
  6103 ;;  tempPassedIn    4    0[BANK0 ] unsigned long 
  6104 ;;  canIdType       1    4[BANK0 ] unsigned char 
  6105 ;;  passedInEIDH    2    5[BANK0 ] PTR unsigned char 
  6106 ;;		 -> CAN_transmit@tempEIDH(1), 
  6107 ;;  passedInEIDL    2    7[BANK0 ] PTR unsigned char 
  6108 ;;		 -> CAN_transmit@tempEIDL(1), 
  6109 ;;  passedInSIDH    2    9[BANK0 ] PTR unsigned char 
  6110 ;;		 -> CAN_transmit@tempSIDH(1), 
  6111 ;;  passedInSIDL    2   11[BANK0 ] PTR unsigned char 
  6112 ;;		 -> CAN_transmit@tempSIDL(1), 
  6113 ;; Auto vars:     Size  Location     Type
  6114 ;;  wipSIDL         1   17[BANK0 ] unsigned char 
  6115 ;; Return value:  Size  Location     Type
  6116 ;;                  1    wreg      void 
  6117 ;; Registers used:
  6118 ;;		wreg, fsr2l, fsr2h, status,2, status,0
  6119 ;; Tracked objects:
  6120 ;;		On entry : 0/0
  6121 ;;		On exit  : 0/0
  6122 ;;		Unchanged: 0/0
  6123 ;; Data sizes:     COMRAM   BANK0   BANK1   BANK2   BANK3   BANK4   BANK5   BANK6   BANK7   BANK8   BANK9  BANK10  BANK1
      +1  BANK12  BANK13  BANK14
  6124 ;;      Params:         0      13       0       0       0       0       0       0       0       0       0       0       
      +0       0       0       0
  6125 ;;      Locals:         0       1       0       0       0       0       0       0       0       0       0       0       
      +0       0       0       0
  6126 ;;      Temps:          0       4       0       0       0       0       0       0       0       0       0       0       
      +0       0       0       0
  6127 ;;      Totals:         0      18       0       0       0       0       0       0       0       0       0       0       
      +0       0       0       0
  6128 ;;Total ram usage:       18 bytes
  6129 ;; Hardware stack levels used: 1
  6130 ;; Hardware stack levels required when called: 5
  6131 ;; This function calls:
  6132 ;;		Nothing
  6133 ;; This function is called by:
  6134 ;;		_CAN_transmit
  6135 ;; This function uses a non-reentrant model
  6136 ;;
  6137                           
  6138                           	psect	text39
  6139   001F2A                     __ptext39:
  6140                           	callstack 0
  6141   001F2A                     _convertCANid2Reg:
  6142                           	callstack 24
  6143   001F2A                     
  6144                           ;mcc_generated_files/ecan.c: 412:     if (canIdType == 2) {
  6145   001F2A  0E02               	movlw	2
  6146   001F2C  0100               	movlb	0	; () banked
  6147   001F2E  1964               	xorwf	convertCANid2Reg@canIdType& (0+255),w,b
  6148   001F30  A4D8               	btfss	status,2,c
  6149   001F32  EF9D  F00F         	goto	u2621
  6150   001F36  EF9F  F00F         	goto	u2620
  6151   001F3A                     u2621:
  6152   001F3A  EF22  F010         	goto	l4523
  6153   001F3E                     u2620:
  6154   001F3E                     
  6155                           ; BSR set to: 0
  6156                           ;mcc_generated_files/ecan.c: 415:         *passedInEIDL = 0xFF & tempPassedInID;
  6157   001F3E  C067  FFD9         	movff	convertCANid2Reg@passedInEIDL,fsr2l
  6158   001F42  C068  FFDA         	movff	convertCANid2Reg@passedInEIDL+1,fsr2h
  6159   001F46  C060  FFDF         	movff	convertCANid2Reg@tempPassedInID,indf2
  6160   001F4A                     
  6161                           ; BSR set to: 0
  6162                           ;mcc_generated_files/ecan.c: 416:         tempPassedInID = tempPassedInID >> 8;
  6163   001F4A  C060  F06D         	movff	convertCANid2Reg@tempPassedInID,??_convertCANid2Reg
  6164   001F4E  C061  F06E         	movff	convertCANid2Reg@tempPassedInID+1,??_convertCANid2Reg+1
  6165   001F52  C062  F06F         	movff	convertCANid2Reg@tempPassedInID+2,??_convertCANid2Reg+2
  6166   001F56  C063  F070         	movff	convertCANid2Reg@tempPassedInID+3,??_convertCANid2Reg+3
  6167   001F5A  C06E  F06D         	movff	??_convertCANid2Reg+1,??_convertCANid2Reg
  6168   001F5E  C06F  F06E         	movff	??_convertCANid2Reg+2,??_convertCANid2Reg+1
  6169   001F62  C070  F06F         	movff	??_convertCANid2Reg+3,??_convertCANid2Reg+2
  6170   001F66  6B70               	clrf	(??_convertCANid2Reg+3)& (0+255),b
  6171   001F68  C06D  F060         	movff	??_convertCANid2Reg,convertCANid2Reg@tempPassedInID
  6172   001F6C  C06E  F061         	movff	??_convertCANid2Reg+1,convertCANid2Reg@tempPassedInID+1
  6173   001F70  C06F  F062         	movff	??_convertCANid2Reg+2,convertCANid2Reg@tempPassedInID+2
  6174   001F74  C070  F063         	movff	??_convertCANid2Reg+3,convertCANid2Reg@tempPassedInID+3
  6175   001F78                     
  6176                           ; BSR set to: 0
  6177                           ;mcc_generated_files/ecan.c: 419:         *passedInEIDH = 0xFF & tempPassedInID;
  6178   001F78  C065  FFD9         	movff	convertCANid2Reg@passedInEIDH,fsr2l
  6179   001F7C  C066  FFDA         	movff	convertCANid2Reg@passedInEIDH+1,fsr2h
  6180   001F80  C060  FFDF         	movff	convertCANid2Reg@tempPassedInID,indf2
  6181                           
  6182                           ;mcc_generated_files/ecan.c: 420:         tempPassedInID = tempPassedInID >> 8;
  6183   001F84  C060  F06D         	movff	convertCANid2Reg@tempPassedInID,??_convertCANid2Reg
  6184   001F88  C061  F06E         	movff	convertCANid2Reg@tempPassedInID+1,??_convertCANid2Reg+1
  6185   001F8C  C062  F06F         	movff	convertCANid2Reg@tempPassedInID+2,??_convertCANid2Reg+2
  6186   001F90  C063  F070         	movff	convertCANid2Reg@tempPassedInID+3,??_convertCANid2Reg+3
  6187   001F94  C06E  F06D         	movff	??_convertCANid2Reg+1,??_convertCANid2Reg
  6188   001F98  C06F  F06E         	movff	??_convertCANid2Reg+2,??_convertCANid2Reg+1
  6189   001F9C  C070  F06F         	movff	??_convertCANid2Reg+3,??_convertCANid2Reg+2
  6190   001FA0  6B70               	clrf	(??_convertCANid2Reg+3)& (0+255),b
  6191   001FA2  C06D  F060         	movff	??_convertCANid2Reg,convertCANid2Reg@tempPassedInID
  6192   001FA6  C06E  F061         	movff	??_convertCANid2Reg+1,convertCANid2Reg@tempPassedInID+1
  6193   001FAA  C06F  F062         	movff	??_convertCANid2Reg+2,convertCANid2Reg@tempPassedInID+2
  6194   001FAE  C070  F063         	movff	??_convertCANid2Reg+3,convertCANid2Reg@tempPassedInID+3
  6195   001FB2                     
  6196                           ; BSR set to: 0
  6197                           ;mcc_generated_files/ecan.c: 424:         wipSIDL = 0x03 & tempPassedInID;
  6198   001FB2  5160               	movf	convertCANid2Reg@tempPassedInID& (0+255),w,b
  6199   001FB4  0B03               	andlw	3
  6200   001FB6  6F71               	movwf	convertCANid2Reg@wipSIDL& (0+255),b
  6201   001FB8                     
  6202                           ; BSR set to: 0
  6203                           ;mcc_generated_files/ecan.c: 425:         tempPassedInID = tempPassedInID << 3;
  6204   001FB8  C060  F06D         	movff	convertCANid2Reg@tempPassedInID,??_convertCANid2Reg
  6205   001FBC  C061  F06E         	movff	convertCANid2Reg@tempPassedInID+1,??_convertCANid2Reg+1
  6206   001FC0  C062  F06F         	movff	convertCANid2Reg@tempPassedInID+2,??_convertCANid2Reg+2
  6207   001FC4  C063  F070         	movff	convertCANid2Reg@tempPassedInID+3,??_convertCANid2Reg+3
  6208   001FC8  0E03               	movlw	3
  6209   001FCA                     u2635:
  6210   001FCA  90D8               	bcf	status,0,c
  6211   001FCC  376D               	rlcf	??_convertCANid2Reg& (0+255),f,b
  6212   001FCE  376E               	rlcf	(??_convertCANid2Reg+1)& (0+255),f,b
  6213   001FD0  376F               	rlcf	(??_convertCANid2Reg+2)& (0+255),f,b
  6214   001FD2  3770               	rlcf	(??_convertCANid2Reg+3)& (0+255),f,b
  6215   001FD4  2EE8               	decfsz	wreg,f,c
  6216   001FD6  EFE5  F00F         	goto	u2635
  6217   001FDA  C06D  F060         	movff	??_convertCANid2Reg,convertCANid2Reg@tempPassedInID
  6218   001FDE  C06E  F061         	movff	??_convertCANid2Reg+1,convertCANid2Reg@tempPassedInID+1
  6219   001FE2  C06F  F062         	movff	??_convertCANid2Reg+2,convertCANid2Reg@tempPassedInID+2
  6220   001FE6  C070  F063         	movff	??_convertCANid2Reg+3,convertCANid2Reg@tempPassedInID+3
  6221   001FEA                     
  6222                           ; BSR set to: 0
  6223                           ;mcc_generated_files/ecan.c: 426:         wipSIDL = (0xE0 & tempPassedInID) + wipSIDL;
  6224   001FEA  5160               	movf	convertCANid2Reg@tempPassedInID& (0+255),w,b
  6225   001FEC  0BE0               	andlw	224
  6226   001FEE  2571               	addwf	convertCANid2Reg@wipSIDL& (0+255),w,b
  6227   001FF0  6F71               	movwf	convertCANid2Reg@wipSIDL& (0+255),b
  6228   001FF2                     
  6229                           ; BSR set to: 0
  6230                           ;mcc_generated_files/ecan.c: 427:         wipSIDL = (uint8_t)(wipSIDL + 0x08);
  6231   001FF2  5171               	movf	convertCANid2Reg@wipSIDL& (0+255),w,b
  6232   001FF4  0F08               	addlw	8
  6233   001FF6  6F71               	movwf	convertCANid2Reg@wipSIDL& (0+255),b
  6234   001FF8                     
  6235                           ; BSR set to: 0
  6236                           ;mcc_generated_files/ecan.c: 428:         *passedInSIDL = (uint8_t)(0xEB & wipSIDL);
  6237   001FF8  5171               	movf	convertCANid2Reg@wipSIDL& (0+255),w,b
  6238   001FFA  0BEB               	andlw	235
  6239   001FFC  C06B  FFD9         	movff	convertCANid2Reg@passedInSIDL,fsr2l
  6240   002000  C06C  FFDA         	movff	convertCANid2Reg@passedInSIDL+1,fsr2h
  6241   002004  6EDF               	movwf	indf2,c
  6242   002006                     l4519:
  6243                           
  6244                           ; BSR set to: 0
  6245                           ;mcc_generated_files/ecan.c: 431:         tempPassedInID = tempPassedInID >> 8;
  6246   002006  C060  F06D         	movff	convertCANid2Reg@tempPassedInID,??_convertCANid2Reg
  6247   00200A  C061  F06E         	movff	convertCANid2Reg@tempPassedInID+1,??_convertCANid2Reg+1
  6248   00200E  C062  F06F         	movff	convertCANid2Reg@tempPassedInID+2,??_convertCANid2Reg+2
  6249   002012  C063  F070         	movff	convertCANid2Reg@tempPassedInID+3,??_convertCANid2Reg+3
  6250   002016  C06E  F06D         	movff	??_convertCANid2Reg+1,??_convertCANid2Reg
  6251   00201A  C06F  F06E         	movff	??_convertCANid2Reg+2,??_convertCANid2Reg+1
  6252   00201E  C070  F06F         	movff	??_convertCANid2Reg+3,??_convertCANid2Reg+2
  6253   002022  6B70               	clrf	(??_convertCANid2Reg+3)& (0+255),b
  6254   002024  C06D  F060         	movff	??_convertCANid2Reg,convertCANid2Reg@tempPassedInID
  6255   002028  C06E  F061         	movff	??_convertCANid2Reg+1,convertCANid2Reg@tempPassedInID+1
  6256   00202C  C06F  F062         	movff	??_convertCANid2Reg+2,convertCANid2Reg@tempPassedInID+2
  6257   002030  C070  F063         	movff	??_convertCANid2Reg+3,convertCANid2Reg@tempPassedInID+3
  6258   002034                     
  6259                           ; BSR set to: 0
  6260                           ;mcc_generated_files/ecan.c: 432:         *passedInSIDH = 0xFF & tempPassedInID;
  6261   002034  C069  FFD9         	movff	convertCANid2Reg@passedInSIDH,fsr2l
  6262   002038  C06A  FFDA         	movff	convertCANid2Reg@passedInSIDH+1,fsr2h
  6263   00203C  C060  FFDF         	movff	convertCANid2Reg@tempPassedInID,indf2
  6264                           
  6265                           ;mcc_generated_files/ecan.c: 433:     }
  6266   002040  EF4F  F010         	goto	l501
  6267   002044                     l4523:
  6268                           
  6269                           ; BSR set to: 0
  6270                           ;mcc_generated_files/ecan.c: 435:     {;mcc_generated_files/ecan.c: 436:         *passed
      +                          InEIDH = 0;
  6271   002044  C065  FFD9         	movff	convertCANid2Reg@passedInEIDH,fsr2l
  6272   002048  C066  FFDA         	movff	convertCANid2Reg@passedInEIDH+1,fsr2h
  6273   00204C  0E00               	movlw	0
  6274   00204E  6EDF               	movwf	indf2,c
  6275                           
  6276                           ;mcc_generated_files/ecan.c: 437:         *passedInEIDL = 0;
  6277   002050  C067  FFD9         	movff	convertCANid2Reg@passedInEIDL,fsr2l
  6278   002054  C068  FFDA         	movff	convertCANid2Reg@passedInEIDL+1,fsr2h
  6279   002058  0E00               	movlw	0
  6280   00205A  6EDF               	movwf	indf2,c
  6281   00205C                     
  6282                           ; BSR set to: 0
  6283                           ;mcc_generated_files/ecan.c: 438:         tempPassedInID = tempPassedInID << 5;
  6284   00205C  C060  F06D         	movff	convertCANid2Reg@tempPassedInID,??_convertCANid2Reg
  6285   002060  C061  F06E         	movff	convertCANid2Reg@tempPassedInID+1,??_convertCANid2Reg+1
  6286   002064  C062  F06F         	movff	convertCANid2Reg@tempPassedInID+2,??_convertCANid2Reg+2
  6287   002068  C063  F070         	movff	convertCANid2Reg@tempPassedInID+3,??_convertCANid2Reg+3
  6288   00206C  0E05               	movlw	5
  6289   00206E                     u2645:
  6290   00206E  90D8               	bcf	status,0,c
  6291   002070  376D               	rlcf	??_convertCANid2Reg& (0+255),f,b
  6292   002072  376E               	rlcf	(??_convertCANid2Reg+1)& (0+255),f,b
  6293   002074  376F               	rlcf	(??_convertCANid2Reg+2)& (0+255),f,b
  6294   002076  3770               	rlcf	(??_convertCANid2Reg+3)& (0+255),f,b
  6295   002078  2EE8               	decfsz	wreg,f,c
  6296   00207A  EF37  F010         	goto	u2645
  6297   00207E  C06D  F060         	movff	??_convertCANid2Reg,convertCANid2Reg@tempPassedInID
  6298   002082  C06E  F061         	movff	??_convertCANid2Reg+1,convertCANid2Reg@tempPassedInID+1
  6299   002086  C06F  F062         	movff	??_convertCANid2Reg+2,convertCANid2Reg@tempPassedInID+2
  6300   00208A  C070  F063         	movff	??_convertCANid2Reg+3,convertCANid2Reg@tempPassedInID+3
  6301   00208E                     
  6302                           ; BSR set to: 0
  6303                           ;mcc_generated_files/ecan.c: 439:         *passedInSIDL = 0xFF & tempPassedInID;
  6304   00208E  C06B  FFD9         	movff	convertCANid2Reg@passedInSIDL,fsr2l
  6305   002092  C06C  FFDA         	movff	convertCANid2Reg@passedInSIDL+1,fsr2h
  6306   002096  C060  FFDF         	movff	convertCANid2Reg@tempPassedInID,indf2
  6307   00209A  EF03  F010         	goto	l4519
  6308   00209E                     l501:
  6309                           
  6310                           ; BSR set to: 0
  6311   00209E  0012               	return		;funcret
  6312   0020A0                     __end_of_convertCANid2Reg:
  6313                           	callstack 0
  6314                           
  6315 ;; *************** function _INTERRUPT_InterruptManager *****************
  6316 ;; Defined at:
  6317 ;;		line 58 in file "mcc_generated_files/interrupt_manager.c"
  6318 ;; Parameters:    Size  Location     Type
  6319 ;;		None
  6320 ;; Auto vars:     Size  Location     Type
  6321 ;;		None
  6322 ;; Return value:  Size  Location     Type
  6323 ;;                  1    wreg      void 
  6324 ;; Registers used:
  6325 ;;		wreg, fsr1l, fsr1h, fsr2l, fsr2h, status,2, status,0, pcl, pclath, pclatu, tosl, cstack
  6326 ;; Tracked objects:
  6327 ;;		On entry : 0/0
  6328 ;;		On exit  : 0/0
  6329 ;;		Unchanged: 0/0
  6330 ;; Data sizes:     COMRAM   BANK0   BANK1   BANK2   BANK3   BANK4   BANK5   BANK6   BANK7   BANK8   BANK9  BANK10  BANK1
      +1  BANK12  BANK13  BANK14
  6331 ;;      Params:         0       0       0       0       0       0       0       0       0       0       0       0       
      +0       0       0       0
  6332 ;;      Locals:         0       0       0       0       0       0       0       0       0       0       0       0       
      +0       0       0       0
  6333 ;;      Temps:          6       0       0       0       0       0       0       0       0       0       0       0       
      +0       0       0       0
  6334 ;;      Totals:         6       0       0       0       0       0       0       0       0       0       0       0       
      +0       0       0       0
  6335 ;;Total ram usage:        6 bytes
  6336 ;; Hardware stack levels used: 1
  6337 ;; Hardware stack levels required when called: 4
  6338 ;; This function calls:
  6339 ;;		_ECAN_RXB0I_ISR
  6340 ;;		_ECAN_WAKI_ISR
  6341 ;;		_TMR0_ISR
  6342 ;;		_TMR1_ISR
  6343 ;;		_TMR2_ISR
  6344 ;; This function is called by:
  6345 ;;		Interrupt level 2
  6346 ;; This function uses a non-reentrant model
  6347 ;;
  6348                           
  6349                           	psect	intcode
  6350   000008                     __pintcode:
  6351                           	callstack 0
  6352   000008                     _INTERRUPT_InterruptManager:
  6353                           	callstack 16
  6354                           
  6355                           ; BSR set to: 0
  6356                           ;incstack = 0
  6357   000008  8248               	bsf	int$flags,1,c	;set compiler interrupt flag (level 2)
  6358   00000A  CFFA F025          	movff	pclath,??_INTERRUPT_InterruptManager
  6359   00000E  CFFB F026          	movff	pclatu,??_INTERRUPT_InterruptManager+1
  6360   000012  CFE1 F027          	movff	fsr1l,??_INTERRUPT_InterruptManager+2
  6361   000016  CFE2 F028          	movff	fsr1h,??_INTERRUPT_InterruptManager+3
  6362   00001A  CFD9 F029          	movff	fsr2l,??_INTERRUPT_InterruptManager+4
  6363   00001E  CFDA F02A          	movff	fsr2h,??_INTERRUPT_InterruptManager+5
  6364   000022                     
  6365                           ;mcc_generated_files/interrupt_manager.c: 61:     if(INTCONbits.TMR0IE == 1 && INTCONbit
      +                          s.TMR0IF == 1)
  6366   000022  AAF2               	btfss	242,5,c	;volatile
  6367   000024  EF16  F000         	goto	i2u191_41
  6368   000028  EF18  F000         	goto	i2u191_40
  6369   00002C                     i2u191_41:
  6370   00002C  EF23  F000         	goto	i2l62
  6371   000030                     i2u191_40:
  6372   000030  A4F2               	btfss	242,2,c	;volatile
  6373   000032  EF1D  F000         	goto	i2u192_41
  6374   000036  EF1F  F000         	goto	i2u192_40
  6375   00003A                     i2u192_41:
  6376   00003A  EF23  F000         	goto	i2l62
  6377   00003E                     i2u192_40:
  6378   00003E                     
  6379                           ;mcc_generated_files/interrupt_manager.c: 62:     {;mcc_generated_files/interrupt_manage
      +                          r.c: 63:         TMR0_ISR();
  6380   00003E  ECD5  F015         	call	_TMR0_ISR	;wreg free
  6381                           
  6382                           ;mcc_generated_files/interrupt_manager.c: 64:     }
  6383   000042  EF72  F000         	goto	i2l74
  6384   000046                     i2l62:
  6385   000046  ACF2               	btfss	242,6,c	;volatile
  6386   000048  EF28  F000         	goto	i2u193_41
  6387   00004C  EF2A  F000         	goto	i2u193_40
  6388   000050                     i2u193_41:
  6389   000050  EF72  F000         	goto	i2l74
  6390   000054                     i2u193_40:
  6391   000054                     
  6392                           ;mcc_generated_files/interrupt_manager.c: 66:     {;mcc_generated_files/interrupt_manage
      +                          r.c: 67:         if(PIE5bits.WAKIE == 1 && PIR5bits.WAKIF == 1)
  6393   000054  AC76               	btfss	118,6,c	;volatile
  6394   000056  EF2F  F000         	goto	i2u194_41
  6395   00005A  EF31  F000         	goto	i2u194_40
  6396   00005E                     i2u194_41:
  6397   00005E  EF3C  F000         	goto	i2l65
  6398   000062                     i2u194_40:
  6399   000062  AC77               	btfss	119,6,c	;volatile
  6400   000064  EF36  F000         	goto	i2u195_41
  6401   000068  EF38  F000         	goto	i2u195_40
  6402   00006C                     i2u195_41:
  6403   00006C  EF3C  F000         	goto	i2l65
  6404   000070                     i2u195_40:
  6405   000070                     
  6406                           ;mcc_generated_files/interrupt_manager.c: 68:         {;mcc_generated_files/interrupt_ma
      +                          nager.c: 69:             ECAN_WAKI_ISR();
  6407   000070  EC9E  F016         	call	_ECAN_WAKI_ISR	;wreg free
  6408                           
  6409                           ;mcc_generated_files/interrupt_manager.c: 70:         }
  6410   000074  EF72  F000         	goto	i2l74
  6411   000078                     i2l65:
  6412   000078  A076               	btfss	118,0,c	;volatile
  6413   00007A  EF41  F000         	goto	i2u196_41
  6414   00007E  EF43  F000         	goto	i2u196_40
  6415   000082                     i2u196_41:
  6416   000082  EF4E  F000         	goto	i2l67
  6417   000086                     i2u196_40:
  6418   000086  A077               	btfss	119,0,c	;volatile
  6419   000088  EF48  F000         	goto	i2u197_41
  6420   00008C  EF4A  F000         	goto	i2u197_40
  6421   000090                     i2u197_41:
  6422   000090  EF4E  F000         	goto	i2l67
  6423   000094                     i2u197_40:
  6424   000094                     
  6425                           ;mcc_generated_files/interrupt_manager.c: 72:         {;mcc_generated_files/interrupt_ma
      +                          nager.c: 73:             ECAN_RXB0I_ISR();
  6426   000094  ECAD  F016         	call	_ECAN_RXB0I_ISR	;wreg free
  6427                           
  6428                           ;mcc_generated_files/interrupt_manager.c: 74:         }
  6429   000098  EF72  F000         	goto	i2l74
  6430   00009C                     i2l67:
  6431   00009C  A29D               	btfss	157,1,c	;volatile
  6432   00009E  EF53  F000         	goto	i2u198_41
  6433   0000A2  EF55  F000         	goto	i2u198_40
  6434   0000A6                     i2u198_41:
  6435   0000A6  EF60  F000         	goto	i2l69
  6436   0000AA                     i2u198_40:
  6437   0000AA  A29E               	btfss	158,1,c	;volatile
  6438   0000AC  EF5A  F000         	goto	i2u199_41
  6439   0000B0  EF5C  F000         	goto	i2u199_40
  6440   0000B4                     i2u199_41:
  6441   0000B4  EF60  F000         	goto	i2l69
  6442   0000B8                     i2u199_40:
  6443   0000B8                     
  6444                           ;mcc_generated_files/interrupt_manager.c: 76:         {;mcc_generated_files/interrupt_ma
      +                          nager.c: 77:             TMR2_ISR();
  6445   0000B8  EC18  F016         	call	_TMR2_ISR	;wreg free
  6446                           
  6447                           ;mcc_generated_files/interrupt_manager.c: 78:         }
  6448   0000BC  EF72  F000         	goto	i2l74
  6449   0000C0                     i2l69:
  6450   0000C0  A09D               	btfss	157,0,c	;volatile
  6451   0000C2  EF65  F000         	goto	i2u200_41
  6452   0000C6  EF67  F000         	goto	i2u200_40
  6453   0000CA                     i2u200_41:
  6454   0000CA  EF72  F000         	goto	i2l68
  6455   0000CE                     i2u200_40:
  6456   0000CE  A09E               	btfss	158,0,c	;volatile
  6457   0000D0  EF6C  F000         	goto	i2u201_41
  6458   0000D4  EF6E  F000         	goto	i2u201_40
  6459   0000D8                     i2u201_41:
  6460   0000D8  EF72  F000         	goto	i2l68
  6461   0000DC                     i2u201_40:
  6462   0000DC                     
  6463                           ;mcc_generated_files/interrupt_manager.c: 80:         {;mcc_generated_files/interrupt_ma
      +                          nager.c: 81:             TMR1_ISR();
  6464   0000DC  ECD3  F016         	call	_TMR1_ISR	;wreg free
  6465                           
  6466                           ;mcc_generated_files/interrupt_manager.c: 82:         }
  6467   0000E0  EF72  F000         	goto	i2l74
  6468   0000E4                     i2l68:
  6469   0000E4                     i2l74:
  6470   0000E4  C02A  FFDA         	movff	??_INTERRUPT_InterruptManager+5,fsr2h
  6471   0000E8  C029  FFD9         	movff	??_INTERRUPT_InterruptManager+4,fsr2l
  6472   0000EC  C028  FFE2         	movff	??_INTERRUPT_InterruptManager+3,fsr1h
  6473   0000F0  C027  FFE1         	movff	??_INTERRUPT_InterruptManager+2,fsr1l
  6474   0000F4  C026  FFFB         	movff	??_INTERRUPT_InterruptManager+1,pclatu
  6475   0000F8  C025  FFFA         	movff	??_INTERRUPT_InterruptManager,pclath
  6476   0000FC  9248               	bcf	int$flags,1,c	;clear compiler interrupt flag (level 2)
  6477   0000FE  0011               	retfie		f
  6478   000100                     __end_of_INTERRUPT_InterruptManager:
  6479                           	callstack 0
  6480                           
  6481 ;; *************** function _TMR2_ISR *****************
  6482 ;; Defined at:
  6483 ;;		line 119 in file "mcc_generated_files/tmr2.c"
  6484 ;; Parameters:    Size  Location     Type
  6485 ;;		None
  6486 ;; Auto vars:     Size  Location     Type
  6487 ;;		None
  6488 ;; Return value:  Size  Location     Type
  6489 ;;                  1    wreg      void 
  6490 ;; Registers used:
  6491 ;;		wreg, status,2, status,0, pcl, pclath, pclatu, tosl, cstack
  6492 ;; Tracked objects:
  6493 ;;		On entry : 0/0
  6494 ;;		On exit  : 0/0
  6495 ;;		Unchanged: 0/0
  6496 ;; Data sizes:     COMRAM   BANK0   BANK1   BANK2   BANK3   BANK4   BANK5   BANK6   BANK7   BANK8   BANK9  BANK10  BANK1
      +1  BANK12  BANK13  BANK14
  6497 ;;      Params:         0       0       0       0       0       0       0       0       0       0       0       0       
      +0       0       0       0
  6498 ;;      Locals:         0       0       0       0       0       0       0       0       0       0       0       0       
      +0       0       0       0
  6499 ;;      Temps:          0       0       0       0       0       0       0       0       0       0       0       0       
      +0       0       0       0
  6500 ;;      Totals:         0       0       0       0       0       0       0       0       0       0       0       0       
      +0       0       0       0
  6501 ;;Total ram usage:        0 bytes
  6502 ;; Hardware stack levels used: 1
  6503 ;; Hardware stack levels required when called: 2
  6504 ;; This function calls:
  6505 ;;		_TMR2_CallBack
  6506 ;; This function is called by:
  6507 ;;		_INTERRUPT_InterruptManager
  6508 ;; This function uses a non-reentrant model
  6509 ;;
  6510                           
  6511                           	psect	text41
  6512   002C30                     __ptext41:
  6513                           	callstack 0
  6514   002C30                     _TMR2_ISR:
  6515                           	callstack 17
  6516   002C30                     
  6517                           ;mcc_generated_files/tmr2.c: 121:     static volatile unsigned int CountCallBack = 0;;mc
      +                          c_generated_files/tmr2.c: 124:     PIR1bits.TMR2IF = 0;
  6518   002C30  929E               	bcf	158,1,c	;volatile
  6519   002C32                     
  6520                           ;mcc_generated_files/tmr2.c: 127:     if (++CountCallBack >= 3000)
  6521   002C32  4A3A               	infsnz	TMR2_ISR@CountCallBack^0,f,c	;volatile
  6522   002C34  2A3B               	incf	(TMR2_ISR@CountCallBack+1)^0,f,c	;volatile
  6523   002C36  0EB8               	movlw	184
  6524   002C38  5C3A               	subwf	TMR2_ISR@CountCallBack^0,w,c	;volatile
  6525   002C3A  0E0B               	movlw	11
  6526   002C3C  583B               	subwfb	(TMR2_ISR@CountCallBack+1)^0,w,c	;volatile
  6527   002C3E  A0D8               	btfss	status,0,c
  6528   002C40  EF24  F016         	goto	i2u183_41
  6529   002C44  EF26  F016         	goto	i2u183_40
  6530   002C48                     i2u183_41:
  6531   002C48  EF2C  F016         	goto	i2l882
  6532   002C4C                     i2u183_40:
  6533   002C4C                     
  6534                           ;mcc_generated_files/tmr2.c: 128:     {;mcc_generated_files/tmr2.c: 130:         TMR2_Ca
      +                          llBack();
  6535   002C4C  ECA7  F015         	call	_TMR2_CallBack	;wreg free
  6536   002C50                     
  6537                           ;mcc_generated_files/tmr2.c: 133:         CountCallBack = 0;
  6538   002C50  0E00               	movlw	0
  6539   002C52  6E3B               	movwf	(TMR2_ISR@CountCallBack+1)^0,c	;volatile
  6540   002C54  0E00               	movlw	0
  6541   002C56  6E3A               	movwf	TMR2_ISR@CountCallBack^0,c	;volatile
  6542   002C58                     i2l882:
  6543   002C58  0012               	return		;funcret
  6544   002C5A                     __end_of_TMR2_ISR:
  6545                           	callstack 0
  6546                           
  6547 ;; *************** function _TMR2_CallBack *****************
  6548 ;; Defined at:
  6549 ;;		line 137 in file "mcc_generated_files/tmr2.c"
  6550 ;; Parameters:    Size  Location     Type
  6551 ;;		None
  6552 ;; Auto vars:     Size  Location     Type
  6553 ;;		None
  6554 ;; Return value:  Size  Location     Type
  6555 ;;                  1    wreg      void 
  6556 ;; Registers used:
  6557 ;;		wreg, status,2, status,0, pcl, pclath, pclatu, tosl, cstack
  6558 ;; Tracked objects:
  6559 ;;		On entry : 0/0
  6560 ;;		On exit  : 0/0
  6561 ;;		Unchanged: 0/0
  6562 ;; Data sizes:     COMRAM   BANK0   BANK1   BANK2   BANK3   BANK4   BANK5   BANK6   BANK7   BANK8   BANK9  BANK10  BANK1
      +1  BANK12  BANK13  BANK14
  6563 ;;      Params:         0       0       0       0       0       0       0       0       0       0       0       0       
      +0       0       0       0
  6564 ;;      Locals:         0       0       0       0       0       0       0       0       0       0       0       0       
      +0       0       0       0
  6565 ;;      Temps:          0       0       0       0       0       0       0       0       0       0       0       0       
      +0       0       0       0
  6566 ;;      Totals:         0       0       0       0       0       0       0       0       0       0       0       0       
      +0       0       0       0
  6567 ;;Total ram usage:        0 bytes
  6568 ;; Hardware stack levels used: 1
  6569 ;; Hardware stack levels required when called: 1
  6570 ;; This function calls:
  6571 ;;		Absolute function
  6572 ;;		_TMR2_DefaultInterruptHandler
  6573 ;;		_gestion_compteur
  6574 ;; This function is called by:
  6575 ;;		_TMR2_ISR
  6576 ;; This function uses a non-reentrant model
  6577 ;;
  6578                           
  6579                           	psect	text42
  6580   002B4E                     __ptext42:
  6581                           	callstack 0
  6582   002B4E                     _TMR2_CallBack:
  6583                           	callstack 17
  6584   002B4E                     
  6585                           ;mcc_generated_files/tmr2.c: 141:     if(TMR2_InterruptHandler)
  6586   002B4E  502B               	movf	_TMR2_InterruptHandler^0,w,c
  6587   002B50  102C               	iorwf	(_TMR2_InterruptHandler+1)^0,w,c
  6588   002B52  B4D8               	btfsc	status,2,c
  6589   002B54  EFAE  F015         	goto	i2u180_41
  6590   002B58  EFB0  F015         	goto	i2u180_40
  6591   002B5C                     i2u180_41:
  6592   002B5C  EFBD  F015         	goto	i2l886
  6593   002B60                     i2u180_40:
  6594   002B60                     
  6595                           ;mcc_generated_files/tmr2.c: 142:     {;mcc_generated_files/tmr2.c: 143:         TMR2_In
      +                          terruptHandler();
  6596   002B60  D802               	call	i2u181_48
  6597   002B62  EFBD  F015         	goto	i2u181_49
  6598   002B66                     i2u181_48:
  6599   002B66  0005               	push	
  6600   002B68  6EFA               	movwf	pclath,c
  6601   002B6A  502B               	movf	_TMR2_InterruptHandler^0,w,c
  6602   002B6C  6EFD               	movwf	tosl,c
  6603   002B6E  502C               	movf	(_TMR2_InterruptHandler+1)^0,w,c
  6604   002B70  6EFE               	movwf	tosh,c
  6605   002B72  50F8               	movf	tblptru,w,c
  6606   002B74  6EFF               	movwf	tosu,c
  6607   002B76  50FA               	movf	pclath,w,c
  6608   002B78  0012               	return		;indir
  6609   002B7A                     i2u181_49:
  6610   002B7A                     i2l886:
  6611   002B7A  0012               	return		;funcret
  6612   002B7C                     __end_of_TMR2_CallBack:
  6613                           	callstack 0
  6614                           
  6615 ;; *************** function _TMR2_DefaultInterruptHandler *****************
  6616 ;; Defined at:
  6617 ;;		line 151 in file "mcc_generated_files/tmr2.c"
  6618 ;; Parameters:    Size  Location     Type
  6619 ;;		None
  6620 ;; Auto vars:     Size  Location     Type
  6621 ;;		None
  6622 ;; Return value:  Size  Location     Type
  6623 ;;                  1    wreg      void 
  6624 ;; Registers used:
  6625 ;;		None
  6626 ;; Tracked objects:
  6627 ;;		On entry : 0/0
  6628 ;;		On exit  : 0/0
  6629 ;;		Unchanged: 0/0
  6630 ;; Data sizes:     COMRAM   BANK0   BANK1   BANK2   BANK3   BANK4   BANK5   BANK6   BANK7   BANK8   BANK9  BANK10  BANK1
      +1  BANK12  BANK13  BANK14
  6631 ;;      Params:         0       0       0       0       0       0       0       0       0       0       0       0       
      +0       0       0       0
  6632 ;;      Locals:         0       0       0       0       0       0       0       0       0       0       0       0       
      +0       0       0       0
  6633 ;;      Temps:          0       0       0       0       0       0       0       0       0       0       0       0       
      +0       0       0       0
  6634 ;;      Totals:         0       0       0       0       0       0       0       0       0       0       0       0       
      +0       0       0       0
  6635 ;;Total ram usage:        0 bytes
  6636 ;; Hardware stack levels used: 1
  6637 ;; This function calls:
  6638 ;;		Nothing
  6639 ;; This function is called by:
  6640 ;;		_TMR2_Initialize
  6641 ;;		_TMR2_CallBack
  6642 ;; This function uses a non-reentrant model
  6643 ;;
  6644                           
  6645                           	psect	text43
  6646   002E6E                     __ptext43:
  6647                           	callstack 0
  6648   002E6E                     _TMR2_DefaultInterruptHandler:
  6649                           	callstack 17
  6650   002E6E  0012               	return		;funcret
  6651   002E70                     __end_of_TMR2_DefaultInterruptHandler:
  6652                           	callstack 0
  6653                           
  6654 ;; *************** function _gestion_compteur *****************
  6655 ;; Defined at:
  6656 ;;		line 243 in file "main.c"
  6657 ;; Parameters:    Size  Location     Type
  6658 ;;		None
  6659 ;; Auto vars:     Size  Location     Type
  6660 ;;		None
  6661 ;; Return value:  Size  Location     Type
  6662 ;;                  1    wreg      void 
  6663 ;; Registers used:
  6664 ;;		status,2, status,0
  6665 ;; Tracked objects:
  6666 ;;		On entry : 0/0
  6667 ;;		On exit  : 0/0
  6668 ;;		Unchanged: 0/0
  6669 ;; Data sizes:     COMRAM   BANK0   BANK1   BANK2   BANK3   BANK4   BANK5   BANK6   BANK7   BANK8   BANK9  BANK10  BANK1
      +1  BANK12  BANK13  BANK14
  6670 ;;      Params:         0       0       0       0       0       0       0       0       0       0       0       0       
      +0       0       0       0
  6671 ;;      Locals:         0       0       0       0       0       0       0       0       0       0       0       0       
      +0       0       0       0
  6672 ;;      Temps:          0       0       0       0       0       0       0       0       0       0       0       0       
      +0       0       0       0
  6673 ;;      Totals:         0       0       0       0       0       0       0       0       0       0       0       0       
      +0       0       0       0
  6674 ;;Total ram usage:        0 bytes
  6675 ;; Hardware stack levels used: 1
  6676 ;; This function calls:
  6677 ;;		Nothing
  6678 ;; This function is called by:
  6679 ;;		_main
  6680 ;;		_TMR2_CallBack
  6681 ;; This function uses a non-reentrant model
  6682 ;;
  6683                           
  6684                           	psect	text44
  6685   002E4C                     __ptext44:
  6686                           	callstack 0
  6687   002E4C                     _gestion_compteur:
  6688                           	callstack 17
  6689   002E4C                     
  6690                           ;main.c: 244:     compteur++;
  6691   002E4C  0100               	movlb	0	; () banked
  6692   002E4E  4BD9               	infsnz	_compteur& (0+255),f,b
  6693   002E50  2BDA               	incf	(_compteur+1)& (0+255),f,b
  6694   002E52                     
  6695                           ; BSR set to: 0
  6696   002E52  0012               	return		;funcret
  6697   002E54                     __end_of_gestion_compteur:
  6698                           	callstack 0
  6699                           
  6700 ;; *************** function _TMR1_ISR *****************
  6701 ;; Defined at:
  6702 ;;		line 157 in file "mcc_generated_files/tmr1.c"
  6703 ;; Parameters:    Size  Location     Type
  6704 ;;		None
  6705 ;; Auto vars:     Size  Location     Type
  6706 ;;		None
  6707 ;; Return value:  Size  Location     Type
  6708 ;;                  1    wreg      void 
  6709 ;; Registers used:
  6710 ;;		wreg, status,2, status,0, pcl, pclath, pclatu, tosl, cstack
  6711 ;; Tracked objects:
  6712 ;;		On entry : 0/0
  6713 ;;		On exit  : 0/0
  6714 ;;		Unchanged: 0/0
  6715 ;; Data sizes:     COMRAM   BANK0   BANK1   BANK2   BANK3   BANK4   BANK5   BANK6   BANK7   BANK8   BANK9  BANK10  BANK1
      +1  BANK12  BANK13  BANK14
  6716 ;;      Params:         0       0       0       0       0       0       0       0       0       0       0       0       
      +0       0       0       0
  6717 ;;      Locals:         0       0       0       0       0       0       0       0       0       0       0       0       
      +0       0       0       0
  6718 ;;      Temps:          0       0       0       0       0       0       0       0       0       0       0       0       
      +0       0       0       0
  6719 ;;      Totals:         0       0       0       0       0       0       0       0       0       0       0       0       
      +0       0       0       0
  6720 ;;Total ram usage:        0 bytes
  6721 ;; Hardware stack levels used: 1
  6722 ;; Hardware stack levels required when called: 2
  6723 ;; This function calls:
  6724 ;;		_TMR1_CallBack
  6725 ;;		_TMR1_WriteTimer
  6726 ;; This function is called by:
  6727 ;;		_INTERRUPT_InterruptManager
  6728 ;; This function uses a non-reentrant model
  6729 ;;
  6730                           
  6731                           	psect	text45
  6732   002DA6                     __ptext45:
  6733                           	callstack 0
  6734   002DA6                     _TMR1_ISR:
  6735                           	callstack 17
  6736   002DA6                     
  6737                           ;mcc_generated_files/tmr1.c: 161:     PIR1bits.TMR1IF = 0;
  6738   002DA6  909E               	bcf	158,0,c	;volatile
  6739   002DA8                     
  6740                           ;mcc_generated_files/tmr1.c: 162:     TMR1_WriteTimer(timer1ReloadVal);
  6741   002DA8  C031  F001         	movff	_timer1ReloadVal,TMR1_WriteTimer@timerVal	;volatile
  6742   002DAC  C032  F002         	movff	_timer1ReloadVal+1,TMR1_WriteTimer@timerVal+1	;volatile
  6743   002DB0  EC55  F016         	call	_TMR1_WriteTimer	;wreg free
  6744   002DB4                     
  6745                           ;mcc_generated_files/tmr1.c: 166:     TMR1_CallBack();
  6746   002DB4  ECBE  F015         	call	_TMR1_CallBack	;wreg free
  6747   002DB8  0012               	return		;funcret
  6748   002DBA                     __end_of_TMR1_ISR:
  6749                           	callstack 0
  6750                           
  6751 ;; *************** function _TMR1_CallBack *****************
  6752 ;; Defined at:
  6753 ;;		line 169 in file "mcc_generated_files/tmr1.c"
  6754 ;; Parameters:    Size  Location     Type
  6755 ;;		None
  6756 ;; Auto vars:     Size  Location     Type
  6757 ;;		None
  6758 ;; Return value:  Size  Location     Type
  6759 ;;                  1    wreg      void 
  6760 ;; Registers used:
  6761 ;;		wreg, status,2, status,0, pcl, pclath, pclatu, tosl, cstack
  6762 ;; Tracked objects:
  6763 ;;		On entry : 0/0
  6764 ;;		On exit  : 0/0
  6765 ;;		Unchanged: 0/0
  6766 ;; Data sizes:     COMRAM   BANK0   BANK1   BANK2   BANK3   BANK4   BANK5   BANK6   BANK7   BANK8   BANK9  BANK10  BANK1
      +1  BANK12  BANK13  BANK14
  6767 ;;      Params:         0       0       0       0       0       0       0       0       0       0       0       0       
      +0       0       0       0
  6768 ;;      Locals:         0       0       0       0       0       0       0       0       0       0       0       0       
      +0       0       0       0
  6769 ;;      Temps:          0       0       0       0       0       0       0       0       0       0       0       0       
      +0       0       0       0
  6770 ;;      Totals:         0       0       0       0       0       0       0       0       0       0       0       0       
      +0       0       0       0
  6771 ;;Total ram usage:        0 bytes
  6772 ;; Hardware stack levels used: 1
  6773 ;; Hardware stack levels required when called: 1
  6774 ;; This function calls:
  6775 ;;		Absolute function
  6776 ;;		_TMR1_DefaultInterruptHandler
  6777 ;;		_compteurTT
  6778 ;; This function is called by:
  6779 ;;		_TMR1_ISR
  6780 ;; This function uses a non-reentrant model
  6781 ;;
  6782                           
  6783                           	psect	text46
  6784   002B7C                     __ptext46:
  6785                           	callstack 0
  6786   002B7C                     _TMR1_CallBack:
  6787                           	callstack 17
  6788   002B7C                     
  6789                           ;mcc_generated_files/tmr1.c: 172:     if(TMR1_InterruptHandler)
  6790   002B7C  502F               	movf	_TMR1_InterruptHandler^0,w,c
  6791   002B7E  1030               	iorwf	(_TMR1_InterruptHandler+1)^0,w,c
  6792   002B80  B4D8               	btfsc	status,2,c
  6793   002B82  EFC5  F015         	goto	i2u175_41
  6794   002B86  EFC7  F015         	goto	i2u175_40
  6795   002B8A                     i2u175_41:
  6796   002B8A  EFD4  F015         	goto	i2l609
  6797   002B8E                     i2u175_40:
  6798   002B8E                     
  6799                           ;mcc_generated_files/tmr1.c: 173:     {;mcc_generated_files/tmr1.c: 174:         TMR1_In
      +                          terruptHandler();
  6800   002B8E  D802               	call	i2u176_48
  6801   002B90  EFD4  F015         	goto	i2u176_49
  6802   002B94                     i2u176_48:
  6803   002B94  0005               	push	
  6804   002B96  6EFA               	movwf	pclath,c
  6805   002B98  502F               	movf	_TMR1_InterruptHandler^0,w,c
  6806   002B9A  6EFD               	movwf	tosl,c
  6807   002B9C  5030               	movf	(_TMR1_InterruptHandler+1)^0,w,c
  6808   002B9E  6EFE               	movwf	tosh,c
  6809   002BA0  50F8               	movf	tblptru,w,c
  6810   002BA2  6EFF               	movwf	tosu,c
  6811   002BA4  50FA               	movf	pclath,w,c
  6812   002BA6  0012               	return		;indir
  6813   002BA8                     i2u176_49:
  6814   002BA8                     i2l609:
  6815   002BA8  0012               	return		;funcret
  6816   002BAA                     __end_of_TMR1_CallBack:
  6817                           	callstack 0
  6818                           
  6819 ;; *************** function _TMR1_DefaultInterruptHandler *****************
  6820 ;; Defined at:
  6821 ;;		line 182 in file "mcc_generated_files/tmr1.c"
  6822 ;; Parameters:    Size  Location     Type
  6823 ;;		None
  6824 ;; Auto vars:     Size  Location     Type
  6825 ;;		None
  6826 ;; Return value:  Size  Location     Type
  6827 ;;                  1    wreg      void 
  6828 ;; Registers used:
  6829 ;;		None
  6830 ;; Tracked objects:
  6831 ;;		On entry : 0/0
  6832 ;;		On exit  : 0/0
  6833 ;;		Unchanged: 0/0
  6834 ;; Data sizes:     COMRAM   BANK0   BANK1   BANK2   BANK3   BANK4   BANK5   BANK6   BANK7   BANK8   BANK9  BANK10  BANK1
      +1  BANK12  BANK13  BANK14
  6835 ;;      Params:         0       0       0       0       0       0       0       0       0       0       0       0       
      +0       0       0       0
  6836 ;;      Locals:         0       0       0       0       0       0       0       0       0       0       0       0       
      +0       0       0       0
  6837 ;;      Temps:          0       0       0       0       0       0       0       0       0       0       0       0       
      +0       0       0       0
  6838 ;;      Totals:         0       0       0       0       0       0       0       0       0       0       0       0       
      +0       0       0       0
  6839 ;;Total ram usage:        0 bytes
  6840 ;; Hardware stack levels used: 1
  6841 ;; This function calls:
  6842 ;;		Nothing
  6843 ;; This function is called by:
  6844 ;;		_TMR1_Initialize
  6845 ;;		_TMR1_CallBack
  6846 ;; This function uses a non-reentrant model
  6847 ;;
  6848                           
  6849                           	psect	text47
  6850   002E70                     __ptext47:
  6851                           	callstack 0
  6852   002E70                     _TMR1_DefaultInterruptHandler:
  6853                           	callstack 17
  6854   002E70  0012               	return		;funcret
  6855   002E72                     __end_of_TMR1_DefaultInterruptHandler:
  6856                           	callstack 0
  6857                           
  6858 ;; *************** function _compteurTT *****************
  6859 ;; Defined at:
  6860 ;;		line 264 in file "main.c"
  6861 ;; Parameters:    Size  Location     Type
  6862 ;;		None
  6863 ;; Auto vars:     Size  Location     Type
  6864 ;;		None
  6865 ;; Return value:  Size  Location     Type
  6866 ;;                  1    wreg      void 
  6867 ;; Registers used:
  6868 ;;		status,2, status,0
  6869 ;; Tracked objects:
  6870 ;;		On entry : 0/0
  6871 ;;		On exit  : 0/0
  6872 ;;		Unchanged: 0/0
  6873 ;; Data sizes:     COMRAM   BANK0   BANK1   BANK2   BANK3   BANK4   BANK5   BANK6   BANK7   BANK8   BANK9  BANK10  BANK1
      +1  BANK12  BANK13  BANK14
  6874 ;;      Params:         0       0       0       0       0       0       0       0       0       0       0       0       
      +0       0       0       0
  6875 ;;      Locals:         0       0       0       0       0       0       0       0       0       0       0       0       
      +0       0       0       0
  6876 ;;      Temps:          0       0       0       0       0       0       0       0       0       0       0       0       
      +0       0       0       0
  6877 ;;      Totals:         0       0       0       0       0       0       0       0       0       0       0       0       
      +0       0       0       0
  6878 ;;Total ram usage:        0 bytes
  6879 ;; Hardware stack levels used: 1
  6880 ;; This function calls:
  6881 ;;		Nothing
  6882 ;; This function is called by:
  6883 ;;		_main
  6884 ;;		_TMR1_CallBack
  6885 ;; This function uses a non-reentrant model
  6886 ;;
  6887                           
  6888                           	psect	text48
  6889   002E54                     __ptext48:
  6890                           	callstack 0
  6891   002E54                     _compteurTT:
  6892                           	callstack 17
  6893   002E54                     
  6894                           ;main.c: 265:     compteurTTCAN++;
  6895   002E54  0100               	movlb	0	; () banked
  6896   002E56  4BDF               	infsnz	_compteurTTCAN& (0+255),f,b
  6897   002E58  2BE0               	incf	(_compteurTTCAN+1)& (0+255),f,b
  6898   002E5A                     
  6899                           ; BSR set to: 0
  6900   002E5A  0012               	return		;funcret
  6901   002E5C                     __end_of_compteurTT:
  6902                           	callstack 0
  6903                           
  6904 ;; *************** function _TMR0_ISR *****************
  6905 ;; Defined at:
  6906 ;;		line 129 in file "mcc_generated_files/tmr0.c"
  6907 ;; Parameters:    Size  Location     Type
  6908 ;;		None
  6909 ;; Auto vars:     Size  Location     Type
  6910 ;;		None
  6911 ;; Return value:  Size  Location     Type
  6912 ;;                  1    wreg      void 
  6913 ;; Registers used:
  6914 ;;		wreg, status,2, status,0, pcl, pclath, pclatu, tosl, cstack
  6915 ;; Tracked objects:
  6916 ;;		On entry : 0/0
  6917 ;;		On exit  : 0/0
  6918 ;;		Unchanged: 0/0
  6919 ;; Data sizes:     COMRAM   BANK0   BANK1   BANK2   BANK3   BANK4   BANK5   BANK6   BANK7   BANK8   BANK9  BANK10  BANK1
      +1  BANK12  BANK13  BANK14
  6920 ;;      Params:         0       0       0       0       0       0       0       0       0       0       0       0       
      +0       0       0       0
  6921 ;;      Locals:         0       0       0       0       0       0       0       0       0       0       0       0       
      +0       0       0       0
  6922 ;;      Temps:          0       0       0       0       0       0       0       0       0       0       0       0       
      +0       0       0       0
  6923 ;;      Totals:         0       0       0       0       0       0       0       0       0       0       0       0       
      +0       0       0       0
  6924 ;;Total ram usage:        0 bytes
  6925 ;; Hardware stack levels used: 1
  6926 ;; Hardware stack levels required when called: 3
  6927 ;; This function calls:
  6928 ;;		_TMR0_CallBack
  6929 ;; This function is called by:
  6930 ;;		_INTERRUPT_InterruptManager
  6931 ;; This function uses a non-reentrant model
  6932 ;;
  6933                           
  6934                           	psect	text49
  6935   002BAA                     __ptext49:
  6936                           	callstack 0
  6937   002BAA                     _TMR0_ISR:
  6938                           	callstack 16
  6939   002BAA                     
  6940                           ;mcc_generated_files/tmr0.c: 131:     static volatile uint16_t CountCallBack = 0;;mcc_ge
      +                          nerated_files/tmr0.c: 134:     INTCONbits.TMR0IF = 0;
  6941   002BAA  94F2               	bcf	242,2,c	;volatile
  6942                           
  6943                           ;mcc_generated_files/tmr0.c: 137:     TMR0L = timer0ReloadVal;
  6944   002BAC  C039  FFD6         	movff	_timer0ReloadVal,4054	;volatile
  6945   002BB0                     
  6946                           ;mcc_generated_files/tmr0.c: 140:     if (++CountCallBack >= 4)
  6947   002BB0  4A3E               	infsnz	TMR0_ISR@CountCallBack^0,f,c	;volatile
  6948   002BB2  2A3F               	incf	(TMR0_ISR@CountCallBack+1)^0,f,c	;volatile
  6949   002BB4  503F               	movf	(TMR0_ISR@CountCallBack+1)^0,w,c	;volatile
  6950   002BB6  E109               	bnz	i2u72_40
  6951   002BB8  0E04               	movlw	4
  6952   002BBA  5C3E               	subwf	TMR0_ISR@CountCallBack^0,w,c	;volatile
  6953   002BBC  A0D8               	btfss	status,0,c
  6954   002BBE  EFE3  F015         	goto	i2u72_41
  6955   002BC2  EFE5  F015         	goto	i2u72_40
  6956   002BC6                     i2u72_41:
  6957   002BC6  EFEB  F015         	goto	i2l659
  6958   002BCA                     i2u72_40:
  6959   002BCA                     
  6960                           ;mcc_generated_files/tmr0.c: 141:     {;mcc_generated_files/tmr0.c: 143:         TMR0_Ca
      +                          llBack();
  6961   002BCA  ECEC  F015         	call	_TMR0_CallBack	;wreg free
  6962   002BCE                     
  6963                           ;mcc_generated_files/tmr0.c: 146:         CountCallBack = 0;
  6964   002BCE  0E00               	movlw	0
  6965   002BD0  6E3F               	movwf	(TMR0_ISR@CountCallBack+1)^0,c	;volatile
  6966   002BD2  0E00               	movlw	0
  6967   002BD4  6E3E               	movwf	TMR0_ISR@CountCallBack^0,c	;volatile
  6968   002BD6                     i2l659:
  6969   002BD6  0012               	return		;funcret
  6970   002BD8                     __end_of_TMR0_ISR:
  6971                           	callstack 0
  6972                           
  6973 ;; *************** function _TMR0_CallBack *****************
  6974 ;; Defined at:
  6975 ;;		line 152 in file "mcc_generated_files/tmr0.c"
  6976 ;; Parameters:    Size  Location     Type
  6977 ;;		None
  6978 ;; Auto vars:     Size  Location     Type
  6979 ;;		None
  6980 ;; Return value:  Size  Location     Type
  6981 ;;                  1    wreg      void 
  6982 ;; Registers used:
  6983 ;;		wreg, status,2, status,0, pcl, pclath, pclatu, tosl, cstack
  6984 ;; Tracked objects:
  6985 ;;		On entry : 0/0
  6986 ;;		On exit  : 0/0
  6987 ;;		Unchanged: 0/0
  6988 ;; Data sizes:     COMRAM   BANK0   BANK1   BANK2   BANK3   BANK4   BANK5   BANK6   BANK7   BANK8   BANK9  BANK10  BANK1
      +1  BANK12  BANK13  BANK14
  6989 ;;      Params:         0       0       0       0       0       0       0       0       0       0       0       0       
      +0       0       0       0
  6990 ;;      Locals:         0       0       0       0       0       0       0       0       0       0       0       0       
      +0       0       0       0
  6991 ;;      Temps:          0       0       0       0       0       0       0       0       0       0       0       0       
      +0       0       0       0
  6992 ;;      Totals:         0       0       0       0       0       0       0       0       0       0       0       0       
      +0       0       0       0
  6993 ;;Total ram usage:        0 bytes
  6994 ;; Hardware stack levels used: 1
  6995 ;; Hardware stack levels required when called: 2
  6996 ;; This function calls:
  6997 ;;		Absolute function
  6998 ;;		_TMR0_DefaultInterruptHandler
  6999 ;;		_actif
  7000 ;; This function is called by:
  7001 ;;		_TMR0_ISR
  7002 ;; This function uses a non-reentrant model
  7003 ;;
  7004                           
  7005                           	psect	text50
  7006   002BD8                     __ptext50:
  7007                           	callstack 0
  7008   002BD8                     _TMR0_CallBack:
  7009                           	callstack 16
  7010   002BD8                     
  7011                           ;mcc_generated_files/tmr0.c: 156:     if(TMR0_InterruptHandler)
  7012   002BD8  502D               	movf	_TMR0_InterruptHandler^0,w,c
  7013   002BDA  102E               	iorwf	(_TMR0_InterruptHandler+1)^0,w,c
  7014   002BDC  B4D8               	btfsc	status,2,c
  7015   002BDE  EFF3  F015         	goto	i2u65_41
  7016   002BE2  EFF5  F015         	goto	i2u65_40
  7017   002BE6                     i2u65_41:
  7018   002BE6  EF02  F016         	goto	i2l663
  7019   002BEA                     i2u65_40:
  7020   002BEA                     
  7021                           ;mcc_generated_files/tmr0.c: 157:     {;mcc_generated_files/tmr0.c: 158:         TMR0_In
      +                          terruptHandler();
  7022   002BEA  D802               	call	i2u66_48
  7023   002BEC  EF02  F016         	goto	i2u66_49
  7024   002BF0                     i2u66_48:
  7025   002BF0  0005               	push	
  7026   002BF2  6EFA               	movwf	pclath,c
  7027   002BF4  502D               	movf	_TMR0_InterruptHandler^0,w,c
  7028   002BF6  6EFD               	movwf	tosl,c
  7029   002BF8  502E               	movf	(_TMR0_InterruptHandler+1)^0,w,c
  7030   002BFA  6EFE               	movwf	tosh,c
  7031   002BFC  50F8               	movf	tblptru,w,c
  7032   002BFE  6EFF               	movwf	tosu,c
  7033   002C00  50FA               	movf	pclath,w,c
  7034   002C02  0012               	return		;indir
  7035   002C04                     i2u66_49:
  7036   002C04                     i2l663:
  7037   002C04  0012               	return		;funcret
  7038   002C06                     __end_of_TMR0_CallBack:
  7039                           	callstack 0
  7040                           
  7041 ;; *************** function _TMR0_DefaultInterruptHandler *****************
  7042 ;; Defined at:
  7043 ;;		line 166 in file "mcc_generated_files/tmr0.c"
  7044 ;; Parameters:    Size  Location     Type
  7045 ;;		None
  7046 ;; Auto vars:     Size  Location     Type
  7047 ;;		None
  7048 ;; Return value:  Size  Location     Type
  7049 ;;                  1    wreg      void 
  7050 ;; Registers used:
  7051 ;;		None
  7052 ;; Tracked objects:
  7053 ;;		On entry : 0/0
  7054 ;;		On exit  : 0/0
  7055 ;;		Unchanged: 0/0
  7056 ;; Data sizes:     COMRAM   BANK0   BANK1   BANK2   BANK3   BANK4   BANK5   BANK6   BANK7   BANK8   BANK9  BANK10  BANK1
      +1  BANK12  BANK13  BANK14
  7057 ;;      Params:         0       0       0       0       0       0       0       0       0       0       0       0       
      +0       0       0       0
  7058 ;;      Locals:         0       0       0       0       0       0       0       0       0       0       0       0       
      +0       0       0       0
  7059 ;;      Temps:          0       0       0       0       0       0       0       0       0       0       0       0       
      +0       0       0       0
  7060 ;;      Totals:         0       0       0       0       0       0       0       0       0       0       0       0       
      +0       0       0       0
  7061 ;;Total ram usage:        0 bytes
  7062 ;; Hardware stack levels used: 1
  7063 ;; This function calls:
  7064 ;;		Nothing
  7065 ;; This function is called by:
  7066 ;;		_TMR0_Initialize
  7067 ;;		_TMR0_CallBack
  7068 ;; This function uses a non-reentrant model
  7069 ;;
  7070                           
  7071                           	psect	text51
  7072   002E72                     __ptext51:
  7073                           	callstack 0
  7074   002E72                     _TMR0_DefaultInterruptHandler:
  7075                           	callstack 17
  7076   002E72  0012               	return		;funcret
  7077   002E74                     __end_of_TMR0_DefaultInterruptHandler:
  7078                           	callstack 0
  7079                           
  7080 ;; *************** function _actif *****************
  7081 ;; Defined at:
  7082 ;;		line 234 in file "main.c"
  7083 ;; Parameters:    Size  Location     Type
  7084 ;;		None
  7085 ;; Auto vars:     Size  Location     Type
  7086 ;;		None
  7087 ;; Return value:  Size  Location     Type
  7088 ;;                  1    wreg      void 
  7089 ;; Registers used:
  7090 ;;		wreg, status,2, cstack
  7091 ;; Tracked objects:
  7092 ;;		On entry : 0/0
  7093 ;;		On exit  : 0/0
  7094 ;;		Unchanged: 0/0
  7095 ;; Data sizes:     COMRAM   BANK0   BANK1   BANK2   BANK3   BANK4   BANK5   BANK6   BANK7   BANK8   BANK9  BANK10  BANK1
      +1  BANK12  BANK13  BANK14
  7096 ;;      Params:         0       0       0       0       0       0       0       0       0       0       0       0       
      +0       0       0       0
  7097 ;;      Locals:         0       0       0       0       0       0       0       0       0       0       0       0       
      +0       0       0       0
  7098 ;;      Temps:          0       0       0       0       0       0       0       0       0       0       0       0       
      +0       0       0       0
  7099 ;;      Totals:         0       0       0       0       0       0       0       0       0       0       0       0       
      +0       0       0       0
  7100 ;;Total ram usage:        0 bytes
  7101 ;; Hardware stack levels used: 1
  7102 ;; Hardware stack levels required when called: 1
  7103 ;; This function calls:
  7104 ;;		_TMR0_StopTimer
  7105 ;;		_TMR0_WriteTimer
  7106 ;; This function is called by:
  7107 ;;		_main
  7108 ;;		_TMR0_CallBack
  7109 ;; This function uses a non-reentrant model
  7110 ;;
  7111                           
  7112                           	psect	text52
  7113   002DBA                     __ptext52:
  7114                           	callstack 0
  7115   002DBA                     _actif:
  7116                           	callstack 16
  7117   002DBA                     
  7118                           ;main.c: 236:     activation = 0;
  7119   002DBA  0E00               	movlw	0
  7120   002DBC  6E46               	movwf	_activation^0,c
  7121   002DBE  9489               	bcf	137,2,c	;volatile
  7122   002DC0  9689               	bcf	137,3,c	;volatile
  7123   002DC2                     
  7124                           ;main.c: 239:     TMR0_StopTimer();
  7125   002DC2  EC34  F017         	call	_TMR0_StopTimer	;wreg free
  7126   002DC6                     
  7127                           ;main.c: 240:     TMR0_WriteTimer(0);
  7128   002DC6  0E00               	movlw	0
  7129   002DC8  EC2E  F017         	call	_TMR0_WriteTimer
  7130   002DCC  0012               	return		;funcret
  7131   002DCE                     __end_of_actif:
  7132                           	callstack 0
  7133                           
  7134 ;; *************** function _TMR0_WriteTimer *****************
  7135 ;; Defined at:
  7136 ;;		line 116 in file "mcc_generated_files/tmr0.c"
  7137 ;; Parameters:    Size  Location     Type
  7138 ;;  timerVal        1    wreg     unsigned char 
  7139 ;; Auto vars:     Size  Location     Type
  7140 ;;  timerVal        1    0[COMRAM] unsigned char 
  7141 ;; Return value:  Size  Location     Type
  7142 ;;                  1    wreg      void 
  7143 ;; Registers used:
  7144 ;;		wreg
  7145 ;; Tracked objects:
  7146 ;;		On entry : 0/0
  7147 ;;		On exit  : 0/0
  7148 ;;		Unchanged: 0/0
  7149 ;; Data sizes:     COMRAM   BANK0   BANK1   BANK2   BANK3   BANK4   BANK5   BANK6   BANK7   BANK8   BANK9  BANK10  BANK1
      +1  BANK12  BANK13  BANK14
  7150 ;;      Params:         0       0       0       0       0       0       0       0       0       0       0       0       
      +0       0       0       0
  7151 ;;      Locals:         1       0       0       0       0       0       0       0       0       0       0       0       
      +0       0       0       0
  7152 ;;      Temps:          0       0       0       0       0       0       0       0       0       0       0       0       
      +0       0       0       0
  7153 ;;      Totals:         1       0       0       0       0       0       0       0       0       0       0       0       
      +0       0       0       0
  7154 ;;Total ram usage:        1 bytes
  7155 ;; Hardware stack levels used: 1
  7156 ;; This function calls:
  7157 ;;		Nothing
  7158 ;; This function is called by:
  7159 ;;		_actif
  7160 ;; This function uses a non-reentrant model
  7161 ;;
  7162                           
  7163                           	psect	text53
  7164   002E5C                     __ptext53:
  7165                           	callstack 0
  7166   002E5C                     _TMR0_WriteTimer:
  7167                           	callstack 16
  7168                           
  7169                           ;incstack = 0
  7170                           ;TMR0_WriteTimer@timerVal stored from wreg
  7171   002E5C  6E01               	movwf	TMR0_WriteTimer@timerVal^0,c
  7172   002E5E                     
  7173                           ;mcc_generated_files/tmr0.c: 116: void TMR0_WriteTimer(uint8_t timerVal);mcc_generated_f
      +                          iles/tmr0.c: 117: {;mcc_generated_files/tmr0.c: 119:     TMR0L = timerVal;
  7174   002E5E  C001  FFD6         	movff	TMR0_WriteTimer@timerVal,4054	;volatile
  7175   002E62  0012               	return		;funcret
  7176   002E64                     __end_of_TMR0_WriteTimer:
  7177                           	callstack 0
  7178                           
  7179 ;; *************** function _TMR0_StopTimer *****************
  7180 ;; Defined at:
  7181 ;;		line 100 in file "mcc_generated_files/tmr0.c"
  7182 ;; Parameters:    Size  Location     Type
  7183 ;;		None
  7184 ;; Auto vars:     Size  Location     Type
  7185 ;;		None
  7186 ;; Return value:  Size  Location     Type
  7187 ;;                  1    wreg      void 
  7188 ;; Registers used:
  7189 ;;		None
  7190 ;; Tracked objects:
  7191 ;;		On entry : 0/0
  7192 ;;		On exit  : 0/0
  7193 ;;		Unchanged: 0/0
  7194 ;; Data sizes:     COMRAM   BANK0   BANK1   BANK2   BANK3   BANK4   BANK5   BANK6   BANK7   BANK8   BANK9  BANK10  BANK1
      +1  BANK12  BANK13  BANK14
  7195 ;;      Params:         0       0       0       0       0       0       0       0       0       0       0       0       
      +0       0       0       0
  7196 ;;      Locals:         0       0       0       0       0       0       0       0       0       0       0       0       
      +0       0       0       0
  7197 ;;      Temps:          0       0       0       0       0       0       0       0       0       0       0       0       
      +0       0       0       0
  7198 ;;      Totals:         0       0       0       0       0       0       0       0       0       0       0       0       
      +0       0       0       0
  7199 ;;Total ram usage:        0 bytes
  7200 ;; Hardware stack levels used: 1
  7201 ;; This function calls:
  7202 ;;		Nothing
  7203 ;; This function is called by:
  7204 ;;		_actif
  7205 ;; This function uses a non-reentrant model
  7206 ;;
  7207                           
  7208                           	psect	text54
  7209   002E68                     __ptext54:
  7210                           	callstack 0
  7211   002E68                     _TMR0_StopTimer:
  7212                           	callstack 16
  7213   002E68                     
  7214                           ;mcc_generated_files/tmr0.c: 103:     T0CONbits.TMR0ON = 0;
  7215   002E68  9ED5               	bcf	213,7,c	;volatile
  7216   002E6A  0012               	return		;funcret
  7217   002E6C                     __end_of_TMR0_StopTimer:
  7218                           	callstack 0
  7219                           
  7220 ;; *************** function _ECAN_WAKI_ISR *****************
  7221 ;; Defined at:
  7222 ;;		line 461 in file "mcc_generated_files/ecan.c"
  7223 ;; Parameters:    Size  Location     Type
  7224 ;;		None
  7225 ;; Auto vars:     Size  Location     Type
  7226 ;;		None
  7227 ;; Return value:  Size  Location     Type
  7228 ;;                  1    wreg      void 
  7229 ;; Registers used:
  7230 ;;		wreg, pcl, pclath, pclatu, tosl, cstack
  7231 ;; Tracked objects:
  7232 ;;		On entry : 0/0
  7233 ;;		On exit  : 0/0
  7234 ;;		Unchanged: 0/0
  7235 ;; Data sizes:     COMRAM   BANK0   BANK1   BANK2   BANK3   BANK4   BANK5   BANK6   BANK7   BANK8   BANK9  BANK10  BANK1
      +1  BANK12  BANK13  BANK14
  7236 ;;      Params:         0       0       0       0       0       0       0       0       0       0       0       0       
      +0       0       0       0
  7237 ;;      Locals:         0       0       0       0       0       0       0       0       0       0       0       0       
      +0       0       0       0
  7238 ;;      Temps:          0       0       0       0       0       0       0       0       0       0       0       0       
      +0       0       0       0
  7239 ;;      Totals:         0       0       0       0       0       0       0       0       0       0       0       0       
      +0       0       0       0
  7240 ;;Total ram usage:        0 bytes
  7241 ;; Hardware stack levels used: 1
  7242 ;; Hardware stack levels required when called: 1
  7243 ;; This function calls:
  7244 ;;		Absolute function
  7245 ;;		_WakeUpDefaultInterruptHandler
  7246 ;; This function is called by:
  7247 ;;		_INTERRUPT_InterruptManager
  7248 ;; This function uses a non-reentrant model
  7249 ;;
  7250                           
  7251                           	psect	text55
  7252   002D3C                     __ptext55:
  7253                           	callstack 0
  7254   002D3C                     _ECAN_WAKI_ISR:
  7255                           	callstack 18
  7256   002D3C                     
  7257                           ;mcc_generated_files/ecan.c: 463:     WakeUpInterruptHandler();
  7258   002D3C  D802               	call	i2u73_48
  7259   002D3E  EFAB  F016         	goto	i2u73_49
  7260   002D42                     i2u73_48:
  7261   002D42  0005               	push	
  7262   002D44  6EFA               	movwf	pclath,c
  7263   002D46  5042               	movf	_WakeUpInterruptHandler^0,w,c
  7264   002D48  6EFD               	movwf	tosl,c
  7265   002D4A  5043               	movf	(_WakeUpInterruptHandler+1)^0,w,c
  7266   002D4C  6EFE               	movwf	tosh,c
  7267   002D4E  50F8               	movf	tblptru,w,c
  7268   002D50  6EFF               	movwf	tosu,c
  7269   002D52  50FA               	movf	pclath,w,c
  7270   002D54  0012               	return		;indir
  7271   002D56                     i2u73_49:
  7272   002D56                     
  7273                           ;mcc_generated_files/ecan.c: 464:     PIR5bits.WAKIF = 0;
  7274   002D56  9C77               	bcf	119,6,c	;volatile
  7275   002D58  0012               	return		;funcret
  7276   002D5A                     __end_of_ECAN_WAKI_ISR:
  7277                           	callstack 0
  7278                           
  7279 ;; *************** function _WakeUpDefaultInterruptHandler *****************
  7280 ;; Defined at:
  7281 ;;		line 65 in file "mcc_generated_files/ecan.c"
  7282 ;; Parameters:    Size  Location     Type
  7283 ;;		None
  7284 ;; Auto vars:     Size  Location     Type
  7285 ;;		None
  7286 ;; Return value:  Size  Location     Type
  7287 ;;                  1    wreg      void 
  7288 ;; Registers used:
  7289 ;;		None
  7290 ;; Tracked objects:
  7291 ;;		On entry : 0/0
  7292 ;;		On exit  : 0/0
  7293 ;;		Unchanged: 0/0
  7294 ;; Data sizes:     COMRAM   BANK0   BANK1   BANK2   BANK3   BANK4   BANK5   BANK6   BANK7   BANK8   BANK9  BANK10  BANK1
      +1  BANK12  BANK13  BANK14
  7295 ;;      Params:         0       0       0       0       0       0       0       0       0       0       0       0       
      +0       0       0       0
  7296 ;;      Locals:         0       0       0       0       0       0       0       0       0       0       0       0       
      +0       0       0       0
  7297 ;;      Temps:          0       0       0       0       0       0       0       0       0       0       0       0       
      +0       0       0       0
  7298 ;;      Totals:         0       0       0       0       0       0       0       0       0       0       0       0       
      +0       0       0       0
  7299 ;;Total ram usage:        0 bytes
  7300 ;; Hardware stack levels used: 1
  7301 ;; This function calls:
  7302 ;;		Nothing
  7303 ;; This function is called by:
  7304 ;;		_ECAN_Initialize
  7305 ;;		_ECAN_WAKI_ISR
  7306 ;; This function uses a non-reentrant model
  7307 ;;
  7308                           
  7309                           	psect	text56
  7310   002E74                     __ptext56:
  7311                           	callstack 0
  7312   002E74                     _WakeUpDefaultInterruptHandler:
  7313                           	callstack 18
  7314   002E74  0012               	return		;funcret
  7315   002E76                     __end_of_WakeUpDefaultInterruptHandler:
  7316                           	callstack 0
  7317                           
  7318 ;; *************** function _ECAN_RXB0I_ISR *****************
  7319 ;; Defined at:
  7320 ;;		line 450 in file "mcc_generated_files/ecan.c"
  7321 ;; Parameters:    Size  Location     Type
  7322 ;;		None
  7323 ;; Auto vars:     Size  Location     Type
  7324 ;;		None
  7325 ;; Return value:  Size  Location     Type
  7326 ;;                  1    wreg      void 
  7327 ;; Registers used:
  7328 ;;		wreg, fsr1l, fsr1h, fsr2l, fsr2h, status,2, status,0, pcl, pclath, pclatu, tosl, cstack
  7329 ;; Tracked objects:
  7330 ;;		On entry : 0/0
  7331 ;;		On exit  : 0/0
  7332 ;;		Unchanged: 0/0
  7333 ;; Data sizes:     COMRAM   BANK0   BANK1   BANK2   BANK3   BANK4   BANK5   BANK6   BANK7   BANK8   BANK9  BANK10  BANK1
      +1  BANK12  BANK13  BANK14
  7334 ;;      Params:         0       0       0       0       0       0       0       0       0       0       0       0       
      +0       0       0       0
  7335 ;;      Locals:         0       0       0       0       0       0       0       0       0       0       0       0       
      +0       0       0       0
  7336 ;;      Temps:          0       0       0       0       0       0       0       0       0       0       0       0       
      +0       0       0       0
  7337 ;;      Totals:         0       0       0       0       0       0       0       0       0       0       0       0       
      +0       0       0       0
  7338 ;;Total ram usage:        0 bytes
  7339 ;; Hardware stack levels used: 1
  7340 ;; Hardware stack levels required when called: 3
  7341 ;; This function calls:
  7342 ;;		Absolute function
  7343 ;;		_RXB0DefaultInterruptHandler
  7344 ;;		_receptionTTCAN
  7345 ;; This function is called by:
  7346 ;;		_INTERRUPT_InterruptManager
  7347 ;; This function uses a non-reentrant model
  7348 ;;
  7349                           
  7350                           	psect	text57
  7351   002D5A                     __ptext57:
  7352                           	callstack 0
  7353   002D5A                     _ECAN_RXB0I_ISR:
  7354                           	callstack 16
  7355   002D5A                     
  7356                           ;mcc_generated_files/ecan.c: 452:     RXB0InterruptHandler();
  7357   002D5A  D802               	call	i2u182_48
  7358   002D5C  EFBA  F016         	goto	i2u182_49
  7359   002D60                     i2u182_48:
  7360   002D60  0005               	push	
  7361   002D62  6EFA               	movwf	pclath,c
  7362   002D64  5044               	movf	_RXB0InterruptHandler^0,w,c
  7363   002D66  6EFD               	movwf	tosl,c
  7364   002D68  5045               	movf	(_RXB0InterruptHandler+1)^0,w,c
  7365   002D6A  6EFE               	movwf	tosh,c
  7366   002D6C  50F8               	movf	tblptru,w,c
  7367   002D6E  6EFF               	movwf	tosu,c
  7368   002D70  50FA               	movf	pclath,w,c
  7369   002D72  0012               	return		;indir
  7370   002D74                     i2u182_49:
  7371   002D74                     
  7372                           ;mcc_generated_files/ecan.c: 453:     PIR5bits.RXB0IF = 0;
  7373   002D74  9077               	bcf	119,0,c	;volatile
  7374   002D76  0012               	return		;funcret
  7375   002D78                     __end_of_ECAN_RXB0I_ISR:
  7376                           	callstack 0
  7377                           
  7378 ;; *************** function _RXB0DefaultInterruptHandler *****************
  7379 ;; Defined at:
  7380 ;;		line 64 in file "mcc_generated_files/ecan.c"
  7381 ;; Parameters:    Size  Location     Type
  7382 ;;		None
  7383 ;; Auto vars:     Size  Location     Type
  7384 ;;		None
  7385 ;; Return value:  Size  Location     Type
  7386 ;;                  1    wreg      void 
  7387 ;; Registers used:
  7388 ;;		None
  7389 ;; Tracked objects:
  7390 ;;		On entry : 0/0
  7391 ;;		On exit  : 0/0
  7392 ;;		Unchanged: 0/0
  7393 ;; Data sizes:     COMRAM   BANK0   BANK1   BANK2   BANK3   BANK4   BANK5   BANK6   BANK7   BANK8   BANK9  BANK10  BANK1
      +1  BANK12  BANK13  BANK14
  7394 ;;      Params:         0       0       0       0       0       0       0       0       0       0       0       0       
      +0       0       0       0
  7395 ;;      Locals:         0       0       0       0       0       0       0       0       0       0       0       0       
      +0       0       0       0
  7396 ;;      Temps:          0       0       0       0       0       0       0       0       0       0       0       0       
      +0       0       0       0
  7397 ;;      Totals:         0       0       0       0       0       0       0       0       0       0       0       0       
      +0       0       0       0
  7398 ;;Total ram usage:        0 bytes
  7399 ;; Hardware stack levels used: 1
  7400 ;; This function calls:
  7401 ;;		Nothing
  7402 ;; This function is called by:
  7403 ;;		_ECAN_Initialize
  7404 ;;		_ECAN_RXB0I_ISR
  7405 ;; This function uses a non-reentrant model
  7406 ;;
  7407                           
  7408                           	psect	text58
  7409   002E76                     __ptext58:
  7410                           	callstack 0
  7411   002E76                     _RXB0DefaultInterruptHandler:
  7412                           	callstack 18
  7413   002E76  0012               	return		;funcret
  7414   002E78                     __end_of_RXB0DefaultInterruptHandler:
  7415                           	callstack 0
  7416                           
  7417 ;; *************** function _receptionTTCAN *****************
  7418 ;; Defined at:
  7419 ;;		line 251 in file "main.c"
  7420 ;; Parameters:    Size  Location     Type
  7421 ;;		None
  7422 ;; Auto vars:     Size  Location     Type
  7423 ;;  Message_recu   14   22[COMRAM] struct .
  7424 ;; Return value:  Size  Location     Type
  7425 ;;                  1    wreg      void 
  7426 ;; Registers used:
  7427 ;;		wreg, fsr1l, fsr1h, fsr2l, fsr2h, status,2, status,0, cstack
  7428 ;; Tracked objects:
  7429 ;;		On entry : 0/0
  7430 ;;		On exit  : 0/0
  7431 ;;		Unchanged: 0/0
  7432 ;; Data sizes:     COMRAM   BANK0   BANK1   BANK2   BANK3   BANK4   BANK5   BANK6   BANK7   BANK8   BANK9  BANK10  BANK1
      +1  BANK12  BANK13  BANK14
  7433 ;;      Params:         0       0       0       0       0       0       0       0       0       0       0       0       
      +0       0       0       0
  7434 ;;      Locals:        14       0       0       0       0       0       0       0       0       0       0       0       
      +0       0       0       0
  7435 ;;      Temps:          1       0       0       0       0       0       0       0       0       0       0       0       
      +0       0       0       0
  7436 ;;      Totals:        15       0       0       0       0       0       0       0       0       0       0       0       
      +0       0       0       0
  7437 ;;Total ram usage:       15 bytes
  7438 ;; Hardware stack levels used: 1
  7439 ;; Hardware stack levels required when called: 2
  7440 ;; This function calls:
  7441 ;;		_CAN_receive
  7442 ;;		_TMR1_Reload
  7443 ;; This function is called by:
  7444 ;;		_main
  7445 ;;		_ECAN_RXB0I_ISR
  7446 ;; This function uses a non-reentrant model
  7447 ;;
  7448                           
  7449                           	psect	text59
  7450   002826                     __ptext59:
  7451                           	callstack 0
  7452   002826                     _receptionTTCAN:
  7453                           	callstack 16
  7454   002826                     
  7455                           ;main.c: 252:     uCAN_MSG Message_recu;;main.c: 253:     CAN_receive(&Message_recu);
  7456   002826  0E17               	movlw	low receptionTTCAN@Message_recu
  7457   002828  6E14               	movwf	CAN_receive@tempCanMsg^0,c
  7458   00282A  0E00               	movlw	high receptionTTCAN@Message_recu
  7459   00282C  6E15               	movwf	(CAN_receive@tempCanMsg+1)^0,c
  7460   00282E  EC94  F00C         	call	_CAN_receive	;wreg free
  7461   002832                     
  7462                           ;main.c: 255:     if (Message_recu.frame.id == 0x00) {
  7463   002832  5018               	movf	(receptionTTCAN@Message_recu+1)^0,w,c
  7464   002834  1019               	iorwf	(receptionTTCAN@Message_recu+2)^0,w,c
  7465   002836  101A               	iorwf	(receptionTTCAN@Message_recu+3)^0,w,c
  7466   002838  101B               	iorwf	(receptionTTCAN@Message_recu+4)^0,w,c
  7467   00283A  A4D8               	btfss	status,2,c
  7468   00283C  EF22  F014         	goto	i2u177_41
  7469   002840  EF24  F014         	goto	i2u177_40
  7470   002844                     i2u177_41:
  7471   002844  EF2D  F014         	goto	i2l3509
  7472   002848                     i2u177_40:
  7473   002848                     
  7474                           ;main.c: 256:         TMR1_Reload();
  7475   002848  ECF7  F016         	call	_TMR1_Reload	;wreg free
  7476   00284C                     
  7477                           ;main.c: 257:         compteurTTCAN = 0;
  7478   00284C  0E00               	movlw	0
  7479   00284E  0100               	movlb	0	; () banked
  7480   002850  6FE0               	movwf	(_compteurTTCAN+1)& (0+255),b
  7481   002852  0E00               	movlw	0
  7482   002854  6FDF               	movwf	_compteurTTCAN& (0+255),b
  7483                           
  7484                           ;main.c: 258:     } else {
  7485   002856  EF48  F014         	goto	i2l835
  7486   00285A                     i2l3509:
  7487                           
  7488                           ;main.c: 259:         Lux_INT_Rx = Message_recu;
  7489   00285A  EE20  F017         	lfsr	2,receptionTTCAN@Message_recu
  7490   00285E  EE10  F0C7         	lfsr	1,_Lux_INT_Rx
  7491   002862  0E0D               	movlw	13
  7492   002864                     i2u178_41:
  7493   002864  CFDB FFE3          	movff	plusw2,plusw1
  7494   002868  06E8               	decf	wreg,f,c
  7495   00286A  E2FC               	bc	i2u178_41
  7496   00286C  BA89               	btfsc	137,5,c	;volatile
  7497   00286E  EF3B  F014         	goto	i2u179_41
  7498   002872  EF3E  F014         	goto	i2u179_40
  7499   002876                     i2u179_41:
  7500   002876  0E01               	movlw	1
  7501   002878  EF3F  F014         	goto	i2u179_46
  7502   00287C                     i2u179_40:
  7503   00287C  0E00               	movlw	0
  7504   00287E                     i2u179_46:
  7505   00287E  0AFF               	xorlw	255
  7506   002880  6E16               	movwf	??_receptionTTCAN^0,c
  7507   002882  3A16               	swapf	??_receptionTTCAN^0,f,c
  7508   002884  4616               	rlncf	??_receptionTTCAN^0,f,c
  7509   002886  5089               	movf	137,w,c	;volatile
  7510   002888  1816               	xorwf	??_receptionTTCAN^0,w,c
  7511   00288A  0BDF               	andlw	-33
  7512   00288C  1816               	xorwf	??_receptionTTCAN^0,w,c
  7513   00288E  6E89               	movwf	137,c	;volatile
  7514   002890                     i2l835:
  7515   002890  0012               	return		;funcret
  7516   002892                     __end_of_receptionTTCAN:
  7517                           	callstack 0
  7518                           
  7519 ;; *************** function _TMR1_Reload *****************
  7520 ;; Defined at:
  7521 ;;		line 142 in file "mcc_generated_files/tmr1.c"
  7522 ;; Parameters:    Size  Location     Type
  7523 ;;		None
  7524 ;; Auto vars:     Size  Location     Type
  7525 ;;		None
  7526 ;; Return value:  Size  Location     Type
  7527 ;;                  1    wreg      void 
  7528 ;; Registers used:
  7529 ;;		wreg, status,2, cstack
  7530 ;; Tracked objects:
  7531 ;;		On entry : 0/0
  7532 ;;		On exit  : 0/0
  7533 ;;		Unchanged: 0/0
  7534 ;; Data sizes:     COMRAM   BANK0   BANK1   BANK2   BANK3   BANK4   BANK5   BANK6   BANK7   BANK8   BANK9  BANK10  BANK1
      +1  BANK12  BANK13  BANK14
  7535 ;;      Params:         0       0       0       0       0       0       0       0       0       0       0       0       
      +0       0       0       0
  7536 ;;      Locals:         0       0       0       0       0       0       0       0       0       0       0       0       
      +0       0       0       0
  7537 ;;      Temps:          0       0       0       0       0       0       0       0       0       0       0       0       
      +0       0       0       0
  7538 ;;      Totals:         0       0       0       0       0       0       0       0       0       0       0       0       
      +0       0       0       0
  7539 ;;Total ram usage:        0 bytes
  7540 ;; Hardware stack levels used: 1
  7541 ;; Hardware stack levels required when called: 1
  7542 ;; This function calls:
  7543 ;;		_TMR1_WriteTimer
  7544 ;; This function is called by:
  7545 ;;		_receptionTTCAN
  7546 ;; This function uses a non-reentrant model
  7547 ;;
  7548                           
  7549                           	psect	text60
  7550   002DEE                     __ptext60:
  7551                           	callstack 0
  7552   002DEE                     _TMR1_Reload:
  7553                           	callstack 16
  7554   002DEE                     
  7555                           ;mcc_generated_files/tmr1.c: 144:     TMR1_WriteTimer(timer1ReloadVal);
  7556   002DEE  C031  F001         	movff	_timer1ReloadVal,TMR1_WriteTimer@timerVal	;volatile
  7557   002DF2  C032  F002         	movff	_timer1ReloadVal+1,TMR1_WriteTimer@timerVal+1	;volatile
  7558   002DF6  EC55  F016         	call	_TMR1_WriteTimer	;wreg free
  7559   002DFA  0012               	return		;funcret
  7560   002DFC                     __end_of_TMR1_Reload:
  7561                           	callstack 0
  7562                           
  7563 ;; *************** function _TMR1_WriteTimer *****************
  7564 ;; Defined at:
  7565 ;;		line 120 in file "mcc_generated_files/tmr1.c"
  7566 ;; Parameters:    Size  Location     Type
  7567 ;;  timerVal        2    0[COMRAM] unsigned short 
  7568 ;; Auto vars:     Size  Location     Type
  7569 ;;		None
  7570 ;; Return value:  Size  Location     Type
  7571 ;;                  1    wreg      void 
  7572 ;; Registers used:
  7573 ;;		wreg, status,2
  7574 ;; Tracked objects:
  7575 ;;		On entry : 0/0
  7576 ;;		On exit  : 0/0
  7577 ;;		Unchanged: 0/0
  7578 ;; Data sizes:     COMRAM   BANK0   BANK1   BANK2   BANK3   BANK4   BANK5   BANK6   BANK7   BANK8   BANK9  BANK10  BANK1
      +1  BANK12  BANK13  BANK14
  7579 ;;      Params:         2       0       0       0       0       0       0       0       0       0       0       0       
      +0       0       0       0
  7580 ;;      Locals:         0       0       0       0       0       0       0       0       0       0       0       0       
      +0       0       0       0
  7581 ;;      Temps:          0       0       0       0       0       0       0       0       0       0       0       0       
      +0       0       0       0
  7582 ;;      Totals:         2       0       0       0       0       0       0       0       0       0       0       0       
      +0       0       0       0
  7583 ;;Total ram usage:        2 bytes
  7584 ;; Hardware stack levels used: 1
  7585 ;; This function calls:
  7586 ;;		Nothing
  7587 ;; This function is called by:
  7588 ;;		_TMR1_Reload
  7589 ;;		_TMR1_ISR
  7590 ;; This function uses a non-reentrant model
  7591 ;;
  7592                           
  7593                           	psect	text61
  7594   002CAA                     __ptext61:
  7595                           	callstack 0
  7596   002CAA                     _TMR1_WriteTimer:
  7597                           	callstack 18
  7598   002CAA                     
  7599                           ;mcc_generated_files/tmr1.c: 120: void TMR1_WriteTimer(uint16_t timerVal);mcc_generated_
      +                          files/tmr1.c: 121: {;mcc_generated_files/tmr1.c: 122:     if (T1CONbits.nT1SYNC == 1)
  7600   002CAA  A4CD               	btfss	205,2,c	;volatile
  7601   002CAC  EF5A  F016         	goto	i2u157_41
  7602   002CB0  EF5C  F016         	goto	i2u157_40
  7603   002CB4                     i2u157_41:
  7604   002CB4  EF64  F016         	goto	i2l3223
  7605   002CB8                     i2u157_40:
  7606   002CB8                     
  7607                           ;mcc_generated_files/tmr1.c: 123:     {;mcc_generated_files/tmr1.c: 125:         T1CONbi
      +                          ts.TMR1ON = 0;
  7608   002CB8  90CD               	bcf	205,0,c	;volatile
  7609   002CBA                     
  7610                           ;mcc_generated_files/tmr1.c: 128:         TMR1H = (uint8_t)(timerVal >> 8);
  7611   002CBA  5002               	movf	(TMR1_WriteTimer@timerVal+1)^0,w,c
  7612   002CBC  6ECF               	movwf	207,c	;volatile
  7613   002CBE                     
  7614                           ;mcc_generated_files/tmr1.c: 129:         TMR1L = (uint8_t)timerVal;
  7615   002CBE  C001  FFCE         	movff	TMR1_WriteTimer@timerVal,4046	;volatile
  7616   002CC2                     
  7617                           ;mcc_generated_files/tmr1.c: 132:         T1CONbits.TMR1ON =1;
  7618   002CC2  80CD               	bsf	205,0,c	;volatile
  7619                           
  7620                           ;mcc_generated_files/tmr1.c: 133:     }
  7621   002CC4  EF68  F016         	goto	i2l593
  7622   002CC8                     i2l3223:
  7623                           
  7624                           ;mcc_generated_files/tmr1.c: 135:     {;mcc_generated_files/tmr1.c: 137:         TMR1H =
      +                           (uint8_t)(timerVal >> 8);
  7625   002CC8  5002               	movf	(TMR1_WriteTimer@timerVal+1)^0,w,c
  7626   002CCA  6ECF               	movwf	207,c	;volatile
  7627   002CCC                     
  7628                           ;mcc_generated_files/tmr1.c: 138:         TMR1L = (uint8_t)timerVal;
  7629   002CCC  C001  FFCE         	movff	TMR1_WriteTimer@timerVal,4046	;volatile
  7630   002CD0                     i2l593:
  7631   002CD0  0012               	return		;funcret
  7632   002CD2                     __end_of_TMR1_WriteTimer:
  7633                           	callstack 0
  7634                           
  7635 ;; *************** function _CAN_receive *****************
  7636 ;; Defined at:
  7637 ;;		line 249 in file "mcc_generated_files/ecan.c"
  7638 ;; Parameters:    Size  Location     Type
  7639 ;;  tempCanMsg      2   19[COMRAM] PTR struct .
  7640 ;;		 -> receptionTTCAN@Message_recu(14), 
  7641 ;; Auto vars:     Size  Location     Type
  7642 ;;  returnValue     1    0        unsigned char 
  7643 ;; Return value:  Size  Location     Type
  7644 ;;                  1    wreg      unsigned char 
  7645 ;; Registers used:
  7646 ;;		wreg, fsr2l, fsr2h, status,2, status,0, cstack
  7647 ;; Tracked objects:
  7648 ;;		On entry : 0/0
  7649 ;;		On exit  : 0/0
  7650 ;;		Unchanged: 0/0
  7651 ;; Data sizes:     COMRAM   BANK0   BANK1   BANK2   BANK3   BANK4   BANK5   BANK6   BANK7   BANK8   BANK9  BANK10  BANK1
      +1  BANK12  BANK13  BANK14
  7652 ;;      Params:         2       0       0       0       0       0       0       0       0       0       0       0       
      +0       0       0       0
  7653 ;;      Locals:         0       0       0       0       0       0       0       0       0       0       0       0       
      +0       0       0       0
  7654 ;;      Temps:          0       0       0       0       0       0       0       0       0       0       0       0       
      +0       0       0       0
  7655 ;;      Totals:         2       0       0       0       0       0       0       0       0       0       0       0       
      +0       0       0       0
  7656 ;;Total ram usage:        2 bytes
  7657 ;; Hardware stack levels used: 1
  7658 ;; Hardware stack levels required when called: 1
  7659 ;; This function calls:
  7660 ;;		_convertReg2ExtendedCANid
  7661 ;;		_convertReg2StandardCANid
  7662 ;; This function is called by:
  7663 ;;		_receptionTTCAN
  7664 ;; This function uses a non-reentrant model
  7665 ;;
  7666                           
  7667                           	psect	text62
  7668   001928                     __ptext62:
  7669                           	callstack 0
  7670   001928                     _CAN_receive:
  7671                           	callstack 16
  7672   001928                     
  7673                           ;mcc_generated_files/ecan.c: 254:     if (RXB0CONbits.RXFUL != 0)
  7674   001928  AE60               	btfss	96,7,c	;volatile
  7675   00192A  EF99  F00C         	goto	i2u164_41
  7676   00192E  EF9B  F00C         	goto	i2u164_40
  7677   001932                     i2u164_41:
  7678   001932  EF25  F00D         	goto	i2l466
  7679   001936                     i2u164_40:
  7680   001936                     
  7681                           ;mcc_generated_files/ecan.c: 255:     {;mcc_generated_files/ecan.c: 256:         if ((RX
      +                          B0SIDL & 0x08) == 0x08)
  7682   001936  A662               	btfss	98,3,c	;volatile
  7683   001938  EFA0  F00C         	goto	i2u165_41
  7684   00193C  EFA2  F00C         	goto	i2u165_40
  7685   001940                     i2u165_41:
  7686   001940  EFC1  F00C         	goto	i2l3293
  7687   001944                     i2u165_40:
  7688   001944                     
  7689                           ;mcc_generated_files/ecan.c: 257:         {;mcc_generated_files/ecan.c: 259:            
      +                           tempCanMsg->frame.idType = (uint8_t) 2;
  7690   001944  C014  FFD9         	movff	CAN_receive@tempCanMsg,fsr2l
  7691   001948  C015  FFDA         	movff	CAN_receive@tempCanMsg+1,fsr2h
  7692   00194C  0E02               	movlw	2
  7693   00194E  6EDF               	movwf	indf2,c
  7694   001950                     
  7695                           ;mcc_generated_files/ecan.c: 260:             tempCanMsg->frame.id = convertReg2Extended
      +                          CANid(RXB0EIDH, RXB0EIDL, RXB0SIDH, RXB0SIDL);
  7696   001950  CF64 F001          	movff	3940,convertReg2ExtendedCANid@tempRXBn_EIDL	;volatile
  7697   001954  CF61 F002          	movff	3937,convertReg2ExtendedCANid@tempRXBn_SIDH	;volatile
  7698   001958  CF62 F003          	movff	3938,convertReg2ExtendedCANid@tempRXBn_SIDL	;volatile
  7699   00195C  5063               	movf	99,w,c	;volatile
  7700   00195E  ECAA  F011         	call	_convertReg2ExtendedCANid
  7701   001962  EE20 F001          	lfsr	2,1
  7702   001966  5014               	movf	CAN_receive@tempCanMsg^0,w,c
  7703   001968  26D9               	addwf	fsr2l,f,c
  7704   00196A  5015               	movf	(CAN_receive@tempCanMsg+1)^0,w,c
  7705   00196C  22DA               	addwfc	fsr2h,f,c
  7706   00196E  C001  FFDE         	movff	?_convertReg2ExtendedCANid,postinc2
  7707   001972  C002  FFDE         	movff	?_convertReg2ExtendedCANid+1,postinc2
  7708   001976  C003  FFDE         	movff	?_convertReg2ExtendedCANid+2,postinc2
  7709   00197A  C004  FFDE         	movff	?_convertReg2ExtendedCANid+3,postinc2
  7710                           
  7711                           ;mcc_generated_files/ecan.c: 261:         }
  7712   00197E  EFDA  F00C         	goto	i2l3297
  7713   001982                     i2l3293:
  7714                           
  7715                           ;mcc_generated_files/ecan.c: 263:         {;mcc_generated_files/ecan.c: 265:            
      +                           tempCanMsg->frame.idType = (uint8_t) 1;
  7716   001982  C014  FFD9         	movff	CAN_receive@tempCanMsg,fsr2l
  7717   001986  C015  FFDA         	movff	CAN_receive@tempCanMsg+1,fsr2h
  7718   00198A  0E01               	movlw	1
  7719   00198C  6EDF               	movwf	indf2,c
  7720   00198E                     
  7721                           ;mcc_generated_files/ecan.c: 266:             tempCanMsg->frame.id = convertReg2Standard
      +                          CANid(RXB0SIDH, RXB0SIDL);
  7722   00198E  CF62 F001          	movff	3938,convertReg2StandardCANid@tempRXBn_SIDL	;volatile
  7723   001992  5061               	movf	97,w,c	;volatile
  7724   001994  ECD7  F013         	call	_convertReg2StandardCANid
  7725   001998  EE20 F001          	lfsr	2,1
  7726   00199C  5014               	movf	CAN_receive@tempCanMsg^0,w,c
  7727   00199E  26D9               	addwf	fsr2l,f,c
  7728   0019A0  5015               	movf	(CAN_receive@tempCanMsg+1)^0,w,c
  7729   0019A2  22DA               	addwfc	fsr2h,f,c
  7730   0019A4  C001  FFDE         	movff	?_convertReg2StandardCANid,postinc2
  7731   0019A8  C002  FFDE         	movff	?_convertReg2StandardCANid+1,postinc2
  7732   0019AC  C003  FFDE         	movff	?_convertReg2StandardCANid+2,postinc2
  7733   0019B0  C004  FFDE         	movff	?_convertReg2StandardCANid+3,postinc2
  7734   0019B4                     i2l3297:
  7735                           
  7736                           ;mcc_generated_files/ecan.c: 269:         tempCanMsg->frame.dlc = RXB0DLC;
  7737   0019B4  EE20 F005          	lfsr	2,5
  7738   0019B8  5014               	movf	CAN_receive@tempCanMsg^0,w,c
  7739   0019BA  26D9               	addwf	fsr2l,f,c
  7740   0019BC  5015               	movf	(CAN_receive@tempCanMsg+1)^0,w,c
  7741   0019BE  22DA               	addwfc	fsr2h,f,c
  7742   0019C0  CF65 FFDF          	movff	3941,indf2	;volatile
  7743   0019C4                     
  7744                           ;mcc_generated_files/ecan.c: 270:         tempCanMsg->frame.data0 = RXB0D0;
  7745   0019C4  EE20 F006          	lfsr	2,6
  7746   0019C8  5014               	movf	CAN_receive@tempCanMsg^0,w,c
  7747   0019CA  26D9               	addwf	fsr2l,f,c
  7748   0019CC  5015               	movf	(CAN_receive@tempCanMsg+1)^0,w,c
  7749   0019CE  22DA               	addwfc	fsr2h,f,c
  7750   0019D0  CF66 FFDF          	movff	3942,indf2	;volatile
  7751   0019D4                     
  7752                           ;mcc_generated_files/ecan.c: 271:         tempCanMsg->frame.data1 = RXB0D1;
  7753   0019D4  EE20 F007          	lfsr	2,7
  7754   0019D8  5014               	movf	CAN_receive@tempCanMsg^0,w,c
  7755   0019DA  26D9               	addwf	fsr2l,f,c
  7756   0019DC  5015               	movf	(CAN_receive@tempCanMsg+1)^0,w,c
  7757   0019DE  22DA               	addwfc	fsr2h,f,c
  7758   0019E0  CF67 FFDF          	movff	3943,indf2	;volatile
  7759   0019E4                     
  7760                           ;mcc_generated_files/ecan.c: 272:         tempCanMsg->frame.data2 = RXB0D2;
  7761   0019E4  EE20 F008          	lfsr	2,8
  7762   0019E8  5014               	movf	CAN_receive@tempCanMsg^0,w,c
  7763   0019EA  26D9               	addwf	fsr2l,f,c
  7764   0019EC  5015               	movf	(CAN_receive@tempCanMsg+1)^0,w,c
  7765   0019EE  22DA               	addwfc	fsr2h,f,c
  7766   0019F0  CF68 FFDF          	movff	3944,indf2	;volatile
  7767   0019F4                     
  7768                           ;mcc_generated_files/ecan.c: 273:         tempCanMsg->frame.data3 = RXB0D3;
  7769   0019F4  EE20 F009          	lfsr	2,9
  7770   0019F8  5014               	movf	CAN_receive@tempCanMsg^0,w,c
  7771   0019FA  26D9               	addwf	fsr2l,f,c
  7772   0019FC  5015               	movf	(CAN_receive@tempCanMsg+1)^0,w,c
  7773   0019FE  22DA               	addwfc	fsr2h,f,c
  7774   001A00  CF69 FFDF          	movff	3945,indf2	;volatile
  7775   001A04                     
  7776                           ;mcc_generated_files/ecan.c: 274:         tempCanMsg->frame.data4 = RXB0D4;
  7777   001A04  EE20 F00A          	lfsr	2,10
  7778   001A08  5014               	movf	CAN_receive@tempCanMsg^0,w,c
  7779   001A0A  26D9               	addwf	fsr2l,f,c
  7780   001A0C  5015               	movf	(CAN_receive@tempCanMsg+1)^0,w,c
  7781   001A0E  22DA               	addwfc	fsr2h,f,c
  7782   001A10  CF6A FFDF          	movff	3946,indf2	;volatile
  7783   001A14                     
  7784                           ;mcc_generated_files/ecan.c: 275:         tempCanMsg->frame.data5 = RXB0D5;
  7785   001A14  EE20 F00B          	lfsr	2,11
  7786   001A18  5014               	movf	CAN_receive@tempCanMsg^0,w,c
  7787   001A1A  26D9               	addwf	fsr2l,f,c
  7788   001A1C  5015               	movf	(CAN_receive@tempCanMsg+1)^0,w,c
  7789   001A1E  22DA               	addwfc	fsr2h,f,c
  7790   001A20  CF6B FFDF          	movff	3947,indf2	;volatile
  7791   001A24                     
  7792                           ;mcc_generated_files/ecan.c: 276:         tempCanMsg->frame.data6 = RXB0D6;
  7793   001A24  EE20 F00C          	lfsr	2,12
  7794   001A28  5014               	movf	CAN_receive@tempCanMsg^0,w,c
  7795   001A2A  26D9               	addwf	fsr2l,f,c
  7796   001A2C  5015               	movf	(CAN_receive@tempCanMsg+1)^0,w,c
  7797   001A2E  22DA               	addwfc	fsr2h,f,c
  7798   001A30  CF6C FFDF          	movff	3948,indf2	;volatile
  7799   001A34                     
  7800                           ;mcc_generated_files/ecan.c: 277:         tempCanMsg->frame.data7 = RXB0D7;
  7801   001A34  EE20 F00D          	lfsr	2,13
  7802   001A38  5014               	movf	CAN_receive@tempCanMsg^0,w,c
  7803   001A3A  26D9               	addwf	fsr2l,f,c
  7804   001A3C  5015               	movf	(CAN_receive@tempCanMsg+1)^0,w,c
  7805   001A3E  22DA               	addwfc	fsr2h,f,c
  7806   001A40  CF6D FFDF          	movff	3949,indf2	;volatile
  7807   001A44                     
  7808                           ;mcc_generated_files/ecan.c: 278:         RXB0CONbits.RXFUL = 0;
  7809   001A44  9E60               	bcf	96,7,c	;volatile
  7810   001A46                     i2l3317:
  7811                           
  7812                           ;mcc_generated_files/ecan.c: 280:     }
  7813   001A46  EFB8  F00D         	goto	i2l473
  7814   001A4A                     i2l466:
  7815   001A4A  010F               	movlb	15	; () banked
  7816   001A4C  AF30               	btfss	48,7,b	;volatile
  7817   001A4E  EF2B  F00D         	goto	i2u166_41
  7818   001A52  EF2D  F00D         	goto	i2u166_40
  7819   001A56                     i2u166_41:
  7820   001A56  EFB8  F00D         	goto	i2l473
  7821   001A5A                     i2u166_40:
  7822   001A5A                     
  7823                           ; BSR set to: 15
  7824                           ;mcc_generated_files/ecan.c: 282:     {;mcc_generated_files/ecan.c: 283:         if ((RX
      +                          B1SIDL & 0x08) == 0x08)
  7825   001A5A  A732               	btfss	50,3,b	;volatile
  7826   001A5C  EF32  F00D         	goto	i2u167_41
  7827   001A60  EF34  F00D         	goto	i2u167_40
  7828   001A64                     i2u167_41:
  7829   001A64  EF53  F00D         	goto	i2l3325
  7830   001A68                     i2u167_40:
  7831   001A68                     
  7832                           ; BSR set to: 15
  7833                           ;mcc_generated_files/ecan.c: 284:         {;mcc_generated_files/ecan.c: 286:            
      +                           tempCanMsg->frame.idType = (uint8_t) 2;
  7834   001A68  C014  FFD9         	movff	CAN_receive@tempCanMsg,fsr2l
  7835   001A6C  C015  FFDA         	movff	CAN_receive@tempCanMsg+1,fsr2h
  7836   001A70  0E02               	movlw	2
  7837   001A72  6EDF               	movwf	indf2,c
  7838   001A74                     
  7839                           ; BSR set to: 15
  7840                           ;mcc_generated_files/ecan.c: 287:             tempCanMsg->frame.id = convertReg2Extended
      +                          CANid(RXB1EIDH, RXB1EIDL, RXB1SIDH, RXB1SIDL);
  7841   001A74  CF34 F001          	movff	3892,convertReg2ExtendedCANid@tempRXBn_EIDL	;volatile
  7842   001A78  CF31 F002          	movff	3889,convertReg2ExtendedCANid@tempRXBn_SIDH	;volatile
  7843   001A7C  CF32 F003          	movff	3890,convertReg2ExtendedCANid@tempRXBn_SIDL	;volatile
  7844   001A80  5133               	movf	51,w,b	;volatile
  7845   001A82  ECAA  F011         	call	_convertReg2ExtendedCANid
  7846   001A86  EE20 F001          	lfsr	2,1
  7847   001A8A  5014               	movf	CAN_receive@tempCanMsg^0,w,c
  7848   001A8C  26D9               	addwf	fsr2l,f,c
  7849   001A8E  5015               	movf	(CAN_receive@tempCanMsg+1)^0,w,c
  7850   001A90  22DA               	addwfc	fsr2h,f,c
  7851   001A92  C001  FFDE         	movff	?_convertReg2ExtendedCANid,postinc2
  7852   001A96  C002  FFDE         	movff	?_convertReg2ExtendedCANid+1,postinc2
  7853   001A9A  C003  FFDE         	movff	?_convertReg2ExtendedCANid+2,postinc2
  7854   001A9E  C004  FFDE         	movff	?_convertReg2ExtendedCANid+3,postinc2
  7855                           
  7856                           ;mcc_generated_files/ecan.c: 288:         }
  7857   001AA2  EF6C  F00D         	goto	i2l3329
  7858   001AA6                     i2l3325:
  7859                           
  7860                           ; BSR set to: 15
  7861                           ;mcc_generated_files/ecan.c: 290:         {;mcc_generated_files/ecan.c: 292:            
      +                           tempCanMsg->frame.idType = (uint8_t) 1;
  7862   001AA6  C014  FFD9         	movff	CAN_receive@tempCanMsg,fsr2l
  7863   001AAA  C015  FFDA         	movff	CAN_receive@tempCanMsg+1,fsr2h
  7864   001AAE  0E01               	movlw	1
  7865   001AB0  6EDF               	movwf	indf2,c
  7866   001AB2                     
  7867                           ; BSR set to: 15
  7868                           ;mcc_generated_files/ecan.c: 293:             tempCanMsg->frame.id = convertReg2Standard
      +                          CANid(RXB1SIDH, RXB1SIDL);
  7869   001AB2  CF32 F001          	movff	3890,convertReg2StandardCANid@tempRXBn_SIDL	;volatile
  7870   001AB6  5131               	movf	49,w,b	;volatile
  7871   001AB8  ECD7  F013         	call	_convertReg2StandardCANid
  7872   001ABC  EE20 F001          	lfsr	2,1
  7873   001AC0  5014               	movf	CAN_receive@tempCanMsg^0,w,c
  7874   001AC2  26D9               	addwf	fsr2l,f,c
  7875   001AC4  5015               	movf	(CAN_receive@tempCanMsg+1)^0,w,c
  7876   001AC6  22DA               	addwfc	fsr2h,f,c
  7877   001AC8  C001  FFDE         	movff	?_convertReg2StandardCANid,postinc2
  7878   001ACC  C002  FFDE         	movff	?_convertReg2StandardCANid+1,postinc2
  7879   001AD0  C003  FFDE         	movff	?_convertReg2StandardCANid+2,postinc2
  7880   001AD4  C004  FFDE         	movff	?_convertReg2StandardCANid+3,postinc2
  7881   001AD8                     i2l3329:
  7882                           
  7883                           ;mcc_generated_files/ecan.c: 296:         tempCanMsg->frame.dlc = RXB1DLC;
  7884   001AD8  EE20 F005          	lfsr	2,5
  7885   001ADC  5014               	movf	CAN_receive@tempCanMsg^0,w,c
  7886   001ADE  26D9               	addwf	fsr2l,f,c
  7887   001AE0  5015               	movf	(CAN_receive@tempCanMsg+1)^0,w,c
  7888   001AE2  22DA               	addwfc	fsr2h,f,c
  7889   001AE4  CF35 FFDF          	movff	3893,indf2	;volatile
  7890   001AE8                     
  7891                           ;mcc_generated_files/ecan.c: 297:         tempCanMsg->frame.data0 = RXB1D0;
  7892   001AE8  EE20 F006          	lfsr	2,6
  7893   001AEC  5014               	movf	CAN_receive@tempCanMsg^0,w,c
  7894   001AEE  26D9               	addwf	fsr2l,f,c
  7895   001AF0  5015               	movf	(CAN_receive@tempCanMsg+1)^0,w,c
  7896   001AF2  22DA               	addwfc	fsr2h,f,c
  7897   001AF4  CF36 FFDF          	movff	3894,indf2	;volatile
  7898   001AF8                     
  7899                           ;mcc_generated_files/ecan.c: 298:         tempCanMsg->frame.data1 = RXB1D1;
  7900   001AF8  EE20 F007          	lfsr	2,7
  7901   001AFC  5014               	movf	CAN_receive@tempCanMsg^0,w,c
  7902   001AFE  26D9               	addwf	fsr2l,f,c
  7903   001B00  5015               	movf	(CAN_receive@tempCanMsg+1)^0,w,c
  7904   001B02  22DA               	addwfc	fsr2h,f,c
  7905   001B04  CF37 FFDF          	movff	3895,indf2	;volatile
  7906   001B08                     
  7907                           ;mcc_generated_files/ecan.c: 299:         tempCanMsg->frame.data2 = RXB1D2;
  7908   001B08  EE20 F008          	lfsr	2,8
  7909   001B0C  5014               	movf	CAN_receive@tempCanMsg^0,w,c
  7910   001B0E  26D9               	addwf	fsr2l,f,c
  7911   001B10  5015               	movf	(CAN_receive@tempCanMsg+1)^0,w,c
  7912   001B12  22DA               	addwfc	fsr2h,f,c
  7913   001B14  CF38 FFDF          	movff	3896,indf2	;volatile
  7914   001B18                     
  7915                           ;mcc_generated_files/ecan.c: 300:         tempCanMsg->frame.data3 = RXB1D3;
  7916   001B18  EE20 F009          	lfsr	2,9
  7917   001B1C  5014               	movf	CAN_receive@tempCanMsg^0,w,c
  7918   001B1E  26D9               	addwf	fsr2l,f,c
  7919   001B20  5015               	movf	(CAN_receive@tempCanMsg+1)^0,w,c
  7920   001B22  22DA               	addwfc	fsr2h,f,c
  7921   001B24  CF39 FFDF          	movff	3897,indf2	;volatile
  7922   001B28                     
  7923                           ;mcc_generated_files/ecan.c: 301:         tempCanMsg->frame.data4 = RXB1D4;
  7924   001B28  EE20 F00A          	lfsr	2,10
  7925   001B2C  5014               	movf	CAN_receive@tempCanMsg^0,w,c
  7926   001B2E  26D9               	addwf	fsr2l,f,c
  7927   001B30  5015               	movf	(CAN_receive@tempCanMsg+1)^0,w,c
  7928   001B32  22DA               	addwfc	fsr2h,f,c
  7929   001B34  CF3A FFDF          	movff	3898,indf2	;volatile
  7930   001B38                     
  7931                           ;mcc_generated_files/ecan.c: 302:         tempCanMsg->frame.data5 = RXB1D5;
  7932   001B38  EE20 F00B          	lfsr	2,11
  7933   001B3C  5014               	movf	CAN_receive@tempCanMsg^0,w,c
  7934   001B3E  26D9               	addwf	fsr2l,f,c
  7935   001B40  5015               	movf	(CAN_receive@tempCanMsg+1)^0,w,c
  7936   001B42  22DA               	addwfc	fsr2h,f,c
  7937   001B44  CF3B FFDF          	movff	3899,indf2	;volatile
  7938   001B48                     
  7939                           ;mcc_generated_files/ecan.c: 303:         tempCanMsg->frame.data6 = RXB1D6;
  7940   001B48  EE20 F00C          	lfsr	2,12
  7941   001B4C  5014               	movf	CAN_receive@tempCanMsg^0,w,c
  7942   001B4E  26D9               	addwf	fsr2l,f,c
  7943   001B50  5015               	movf	(CAN_receive@tempCanMsg+1)^0,w,c
  7944   001B52  22DA               	addwfc	fsr2h,f,c
  7945   001B54  CF3C FFDF          	movff	3900,indf2	;volatile
  7946   001B58                     
  7947                           ;mcc_generated_files/ecan.c: 304:         tempCanMsg->frame.data7 = RXB1D7;
  7948   001B58  EE20 F00D          	lfsr	2,13
  7949   001B5C  5014               	movf	CAN_receive@tempCanMsg^0,w,c
  7950   001B5E  26D9               	addwf	fsr2l,f,c
  7951   001B60  5015               	movf	(CAN_receive@tempCanMsg+1)^0,w,c
  7952   001B62  22DA               	addwfc	fsr2h,f,c
  7953   001B64  CF3D FFDF          	movff	3901,indf2	;volatile
  7954   001B68                     
  7955                           ;mcc_generated_files/ecan.c: 305:         RXB1CONbits.RXFUL = 0;
  7956   001B68  010F               	movlb	15	; () banked
  7957   001B6A  9F30               	bcf	48,7,b	;volatile
  7958   001B6C  EF23  F00D         	goto	i2l3317
  7959   001B70                     i2l473:
  7960   001B70  0012               	return		;funcret
  7961   001B72                     __end_of_CAN_receive:
  7962                           	callstack 0
  7963                           
  7964 ;; *************** function _convertReg2StandardCANid *****************
  7965 ;; Defined at:
  7966 ;;		line 395 in file "mcc_generated_files/ecan.c"
  7967 ;; Parameters:    Size  Location     Type
  7968 ;;  tempRXBn_SID    1    wreg     unsigned char 
  7969 ;;  tempRXBn_SID    1    0[COMRAM] unsigned char 
  7970 ;; Auto vars:     Size  Location     Type
  7971 ;;  tempRXBn_SID    1    6[COMRAM] unsigned char 
  7972 ;;  ConvertedID     4   11[COMRAM] unsigned long 
  7973 ;;  returnValue     4    7[COMRAM] unsigned long 
  7974 ;; Return value:  Size  Location     Type
  7975 ;;                  4    0[COMRAM] unsigned long 
  7976 ;; Registers used:
  7977 ;;		wreg, status,2, status,0
  7978 ;; Tracked objects:
  7979 ;;		On entry : 0/0
  7980 ;;		On exit  : 0/0
  7981 ;;		Unchanged: 0/0
  7982 ;; Data sizes:     COMRAM   BANK0   BANK1   BANK2   BANK3   BANK4   BANK5   BANK6   BANK7   BANK8   BANK9  BANK10  BANK1
      +1  BANK12  BANK13  BANK14
  7983 ;;      Params:         4       0       0       0       0       0       0       0       0       0       0       0       
      +0       0       0       0
  7984 ;;      Locals:         9       0       0       0       0       0       0       0       0       0       0       0       
      +0       0       0       0
  7985 ;;      Temps:          2       0       0       0       0       0       0       0       0       0       0       0       
      +0       0       0       0
  7986 ;;      Totals:        15       0       0       0       0       0       0       0       0       0       0       0       
      +0       0       0       0
  7987 ;;Total ram usage:       15 bytes
  7988 ;; Hardware stack levels used: 1
  7989 ;; This function calls:
  7990 ;;		Nothing
  7991 ;; This function is called by:
  7992 ;;		_CAN_receive
  7993 ;; This function uses a non-reentrant model
  7994 ;;
  7995                           
  7996                           	psect	text63
  7997   0027AE                     __ptext63:
  7998                           	callstack 0
  7999   0027AE                     _convertReg2StandardCANid:
  8000                           	callstack 16
  8001                           
  8002                           ;incstack = 0
  8003                           ;convertReg2StandardCANid@tempRXBn_SIDH stored from wreg
  8004   0027AE  6E07               	movwf	convertReg2StandardCANid@tempRXBn_SIDH^0,c
  8005   0027B0                     
  8006                           ;mcc_generated_files/ecan.c: 398:     uint32_t ConvertedID;;mcc_generated_files/ecan.c: 
      +                          402:     ConvertedID = (uint32_t)(tempRXBn_SIDH << 3);
  8007   0027B0  5007               	movf	convertReg2StandardCANid@tempRXBn_SIDH^0,w,c
  8008   0027B2  6E05               	movwf	??_convertReg2StandardCANid^0,c
  8009   0027B4  6A06               	clrf	(??_convertReg2StandardCANid+1)^0,c
  8010   0027B6  90D8               	bcf	status,0,c
  8011   0027B8  3605               	rlcf	??_convertReg2StandardCANid^0,f,c
  8012   0027BA  3606               	rlcf	(??_convertReg2StandardCANid+1)^0,f,c
  8013   0027BC  90D8               	bcf	status,0,c
  8014   0027BE  3605               	rlcf	??_convertReg2StandardCANid^0,f,c
  8015   0027C0  3606               	rlcf	(??_convertReg2StandardCANid+1)^0,f,c
  8016   0027C2  90D8               	bcf	status,0,c
  8017   0027C4  3605               	rlcf	??_convertReg2StandardCANid^0,f,c
  8018   0027C6  3606               	rlcf	(??_convertReg2StandardCANid+1)^0,f,c
  8019   0027C8  C005  F00C         	movff	??_convertReg2StandardCANid,convertReg2StandardCANid@ConvertedID
  8020   0027CC  C006  F00D         	movff	??_convertReg2StandardCANid+1,convertReg2StandardCANid@ConvertedID+1
  8021   0027D0  0E00               	movlw	0
  8022   0027D2  BE0D               	btfsc	(convertReg2StandardCANid@ConvertedID+1)^0,7,c
  8023   0027D4  0EFF               	movlw	-1
  8024   0027D6  6E0E               	movwf	(convertReg2StandardCANid@ConvertedID+2)^0,c
  8025   0027D8  6E0F               	movwf	(convertReg2StandardCANid@ConvertedID+3)^0,c
  8026   0027DA                     
  8027                           ;mcc_generated_files/ecan.c: 403:     ConvertedID = ConvertedID + (uint32_t)(tempRXBn_SI
      +                          DL >> 5);
  8028   0027DA  C001  F005         	movff	convertReg2StandardCANid@tempRXBn_SIDL,??_convertReg2StandardCANid
  8029   0027DE  0E05               	movlw	5
  8030   0027E0  6E06               	movwf	(??_convertReg2StandardCANid+1)^0,c
  8031   0027E2                     i2u156_45:
  8032   0027E2  90D8               	bcf	status,0,c
  8033   0027E4  3205               	rrcf	??_convertReg2StandardCANid^0,f,c
  8034   0027E6  2E06               	decfsz	(??_convertReg2StandardCANid+1)^0,f,c
  8035   0027E8  EFF1  F013         	goto	i2u156_45
  8036   0027EC  5005               	movf	??_convertReg2StandardCANid^0,w,c
  8037   0027EE  240C               	addwf	convertReg2StandardCANid@ConvertedID^0,w,c
  8038   0027F0  6E0C               	movwf	convertReg2StandardCANid@ConvertedID^0,c
  8039   0027F2  0E00               	movlw	0
  8040   0027F4  200D               	addwfc	(convertReg2StandardCANid@ConvertedID+1)^0,w,c
  8041   0027F6  6E0D               	movwf	(convertReg2StandardCANid@ConvertedID+1)^0,c
  8042   0027F8  0E00               	movlw	0
  8043   0027FA  200E               	addwfc	(convertReg2StandardCANid@ConvertedID+2)^0,w,c
  8044   0027FC  6E0E               	movwf	(convertReg2StandardCANid@ConvertedID+2)^0,c
  8045   0027FE  0E00               	movlw	0
  8046   002800  200F               	addwfc	(convertReg2StandardCANid@ConvertedID+3)^0,w,c
  8047   002802  6E0F               	movwf	(convertReg2StandardCANid@ConvertedID+3)^0,c
  8048   002804                     
  8049                           ;mcc_generated_files/ecan.c: 404:     returnValue = ConvertedID;
  8050   002804  C00C  F008         	movff	convertReg2StandardCANid@ConvertedID,convertReg2StandardCANid@returnValue
  8051   002808  C00D  F009         	movff	convertReg2StandardCANid@ConvertedID+1,convertReg2StandardCANid@returnValue+1
  8052   00280C  C00E  F00A         	movff	convertReg2StandardCANid@ConvertedID+2,convertReg2StandardCANid@returnValue+2
  8053   002810  C00F  F00B         	movff	convertReg2StandardCANid@ConvertedID+3,convertReg2StandardCANid@returnValue+3
  8054   002814                     
  8055                           ;mcc_generated_files/ecan.c: 405:     return (returnValue);
  8056   002814  C008  F001         	movff	convertReg2StandardCANid@returnValue,?_convertReg2StandardCANid
  8057   002818  C009  F002         	movff	convertReg2StandardCANid@returnValue+1,?_convertReg2StandardCANid+1
  8058   00281C  C00A  F003         	movff	convertReg2StandardCANid@returnValue+2,?_convertReg2StandardCANid+2
  8059   002820  C00B  F004         	movff	convertReg2StandardCANid@returnValue+3,?_convertReg2StandardCANid+3
  8060   002824  0012               	return		;funcret
  8061   002826                     __end_of_convertReg2StandardCANid:
  8062                           	callstack 0
  8063                           
  8064 ;; *************** function _convertReg2ExtendedCANid *****************
  8065 ;; Defined at:
  8066 ;;		line 374 in file "mcc_generated_files/ecan.c"
  8067 ;; Parameters:    Size  Location     Type
  8068 ;;  tempRXBn_EID    1    wreg     unsigned char 
  8069 ;;  tempRXBn_EID    1    0[COMRAM] unsigned char 
  8070 ;;  tempRXBn_SID    1    1[COMRAM] unsigned char 
  8071 ;;  tempRXBn_SID    1    2[COMRAM] unsigned char 
  8072 ;; Auto vars:     Size  Location     Type
  8073 ;;  tempRXBn_EID    1    8[COMRAM] unsigned char 
  8074 ;;  ConvertedID     4   15[COMRAM] unsigned long 
  8075 ;;  returnValue     4    9[COMRAM] unsigned long 
  8076 ;;  CAN_standard    1   14[COMRAM] unsigned char 
  8077 ;;  CAN_standard    1   13[COMRAM] unsigned char 
  8078 ;; Return value:  Size  Location     Type
  8079 ;;                  4    0[COMRAM] unsigned long 
  8080 ;; Registers used:
  8081 ;;		wreg, status,2, status,0
  8082 ;; Tracked objects:
  8083 ;;		On entry : 0/0
  8084 ;;		On exit  : 0/0
  8085 ;;		Unchanged: 0/0
  8086 ;; Data sizes:     COMRAM   BANK0   BANK1   BANK2   BANK3   BANK4   BANK5   BANK6   BANK7   BANK8   BANK9  BANK10  BANK1
      +1  BANK12  BANK13  BANK14
  8087 ;;      Params:         4       0       0       0       0       0       0       0       0       0       0       0       
      +0       0       0       0
  8088 ;;      Locals:        11       0       0       0       0       0       0       0       0       0       0       0       
      +0       0       0       0
  8089 ;;      Temps:          4       0       0       0       0       0       0       0       0       0       0       0       
      +0       0       0       0
  8090 ;;      Totals:        19       0       0       0       0       0       0       0       0       0       0       0       
      +0       0       0       0
  8091 ;;Total ram usage:       19 bytes
  8092 ;; Hardware stack levels used: 1
  8093 ;; This function calls:
  8094 ;;		Nothing
  8095 ;; This function is called by:
  8096 ;;		_CAN_receive
  8097 ;; This function uses a non-reentrant model
  8098 ;;
  8099                           
  8100                           	psect	text64
  8101   002354                     __ptext64:
  8102                           	callstack 0
  8103   002354                     _convertReg2ExtendedCANid:
  8104                           	callstack 16
  8105                           
  8106                           ;incstack = 0
  8107                           ;convertReg2ExtendedCANid@tempRXBn_EIDH stored from wreg
  8108   002354  6E09               	movwf	convertReg2ExtendedCANid@tempRXBn_EIDH^0,c
  8109   002356                     
  8110                           ;mcc_generated_files/ecan.c: 377:     uint32_t ConvertedID = 0;
  8111   002356  0E00               	movlw	0
  8112   002358  6E10               	movwf	convertReg2ExtendedCANid@ConvertedID^0,c
  8113   00235A  0E00               	movlw	0
  8114   00235C  6E11               	movwf	(convertReg2ExtendedCANid@ConvertedID+1)^0,c
  8115   00235E  0E00               	movlw	0
  8116   002360  6E12               	movwf	(convertReg2ExtendedCANid@ConvertedID+2)^0,c
  8117   002362  0E00               	movlw	0
  8118   002364  6E13               	movwf	(convertReg2ExtendedCANid@ConvertedID+3)^0,c
  8119   002366                     
  8120                           ;mcc_generated_files/ecan.c: 378:     uint8_t CAN_standardLo_ID_lo2bits;;mcc_generated_f
      +                          iles/ecan.c: 379:     uint8_t CAN_standardLo_ID_hi3bits;;mcc_generated_files/ecan.c: 381
      +                          :     CAN_standardLo_ID_lo2bits = (uint8_t)(tempRXBn_SIDL & 0x03);
  8121   002366  5003               	movf	convertReg2ExtendedCANid@tempRXBn_SIDL^0,w,c
  8122   002368  0B03               	andlw	3
  8123   00236A  6E0E               	movwf	convertReg2ExtendedCANid@CAN_standardLo_ID_lo2bits^0,c
  8124   00236C                     
  8125                           ;mcc_generated_files/ecan.c: 382:     CAN_standardLo_ID_hi3bits = (uint8_t)(tempRXBn_SID
      +                          L >> 5);
  8126   00236C  3803               	swapf	convertReg2ExtendedCANid@tempRXBn_SIDL^0,w,c
  8127   00236E  42E8               	rrncf	wreg,f,c
  8128   002370  0B07               	andlw	7
  8129   002372  6E0F               	movwf	convertReg2ExtendedCANid@CAN_standardLo_ID_hi3bits^0,c
  8130   002374                     
  8131                           ;mcc_generated_files/ecan.c: 383:     ConvertedID = (uint32_t)(tempRXBn_SIDH << 3);
  8132   002374  5002               	movf	convertReg2ExtendedCANid@tempRXBn_SIDH^0,w,c
  8133   002376  6E05               	movwf	??_convertReg2ExtendedCANid^0,c
  8134   002378  6A06               	clrf	(??_convertReg2ExtendedCANid+1)^0,c
  8135   00237A  90D8               	bcf	status,0,c
  8136   00237C  3605               	rlcf	??_convertReg2ExtendedCANid^0,f,c
  8137   00237E  3606               	rlcf	(??_convertReg2ExtendedCANid+1)^0,f,c
  8138   002380  90D8               	bcf	status,0,c
  8139   002382  3605               	rlcf	??_convertReg2ExtendedCANid^0,f,c
  8140   002384  3606               	rlcf	(??_convertReg2ExtendedCANid+1)^0,f,c
  8141   002386  90D8               	bcf	status,0,c
  8142   002388  3605               	rlcf	??_convertReg2ExtendedCANid^0,f,c
  8143   00238A  3606               	rlcf	(??_convertReg2ExtendedCANid+1)^0,f,c
  8144   00238C  C005  F010         	movff	??_convertReg2ExtendedCANid,convertReg2ExtendedCANid@ConvertedID
  8145   002390  C006  F011         	movff	??_convertReg2ExtendedCANid+1,convertReg2ExtendedCANid@ConvertedID+1
  8146   002394  0E00               	movlw	0
  8147   002396  BE11               	btfsc	(convertReg2ExtendedCANid@ConvertedID+1)^0,7,c
  8148   002398  0EFF               	movlw	-1
  8149   00239A  6E12               	movwf	(convertReg2ExtendedCANid@ConvertedID+2)^0,c
  8150   00239C  6E13               	movwf	(convertReg2ExtendedCANid@ConvertedID+3)^0,c
  8151   00239E                     
  8152                           ;mcc_generated_files/ecan.c: 384:     ConvertedID = ConvertedID + CAN_standardLo_ID_hi3b
      +                          its;
  8153   00239E  500F               	movf	convertReg2ExtendedCANid@CAN_standardLo_ID_hi3bits^0,w,c
  8154   0023A0  2410               	addwf	convertReg2ExtendedCANid@ConvertedID^0,w,c
  8155   0023A2  6E10               	movwf	convertReg2ExtendedCANid@ConvertedID^0,c
  8156   0023A4  0E00               	movlw	0
  8157   0023A6  2011               	addwfc	(convertReg2ExtendedCANid@ConvertedID+1)^0,w,c
  8158   0023A8  6E11               	movwf	(convertReg2ExtendedCANid@ConvertedID+1)^0,c
  8159   0023AA  0E00               	movlw	0
  8160   0023AC  2012               	addwfc	(convertReg2ExtendedCANid@ConvertedID+2)^0,w,c
  8161   0023AE  6E12               	movwf	(convertReg2ExtendedCANid@ConvertedID+2)^0,c
  8162   0023B0  0E00               	movlw	0
  8163   0023B2  2013               	addwfc	(convertReg2ExtendedCANid@ConvertedID+3)^0,w,c
  8164   0023B4  6E13               	movwf	(convertReg2ExtendedCANid@ConvertedID+3)^0,c
  8165   0023B6                     
  8166                           ;mcc_generated_files/ecan.c: 385:     ConvertedID = (ConvertedID << 2);
  8167   0023B6  C010  F005         	movff	convertReg2ExtendedCANid@ConvertedID,??_convertReg2ExtendedCANid
  8168   0023BA  C011  F006         	movff	convertReg2ExtendedCANid@ConvertedID+1,??_convertReg2ExtendedCANid+1
  8169   0023BE  C012  F007         	movff	convertReg2ExtendedCANid@ConvertedID+2,??_convertReg2ExtendedCANid+2
  8170   0023C2  C013  F008         	movff	convertReg2ExtendedCANid@ConvertedID+3,??_convertReg2ExtendedCANid+3
  8171   0023C6  0E02               	movlw	2
  8172   0023C8                     i2u155_45:
  8173   0023C8  90D8               	bcf	status,0,c
  8174   0023CA  3605               	rlcf	??_convertReg2ExtendedCANid^0,f,c
  8175   0023CC  3606               	rlcf	(??_convertReg2ExtendedCANid+1)^0,f,c
  8176   0023CE  3607               	rlcf	(??_convertReg2ExtendedCANid+2)^0,f,c
  8177   0023D0  3608               	rlcf	(??_convertReg2ExtendedCANid+3)^0,f,c
  8178   0023D2  2EE8               	decfsz	wreg,f,c
  8179   0023D4  EFE4  F011         	goto	i2u155_45
  8180   0023D8  C005  F010         	movff	??_convertReg2ExtendedCANid,convertReg2ExtendedCANid@ConvertedID
  8181   0023DC  C006  F011         	movff	??_convertReg2ExtendedCANid+1,convertReg2ExtendedCANid@ConvertedID+1
  8182   0023E0  C007  F012         	movff	??_convertReg2ExtendedCANid+2,convertReg2ExtendedCANid@ConvertedID+2
  8183   0023E4  C008  F013         	movff	??_convertReg2ExtendedCANid+3,convertReg2ExtendedCANid@ConvertedID+3
  8184   0023E8                     
  8185                           ;mcc_generated_files/ecan.c: 386:     ConvertedID = ConvertedID + CAN_standardLo_ID_lo2b
      +                          its;
  8186   0023E8  500E               	movf	convertReg2ExtendedCANid@CAN_standardLo_ID_lo2bits^0,w,c
  8187   0023EA  2410               	addwf	convertReg2ExtendedCANid@ConvertedID^0,w,c
  8188   0023EC  6E10               	movwf	convertReg2ExtendedCANid@ConvertedID^0,c
  8189   0023EE  0E00               	movlw	0
  8190   0023F0  2011               	addwfc	(convertReg2ExtendedCANid@ConvertedID+1)^0,w,c
  8191   0023F2  6E11               	movwf	(convertReg2ExtendedCANid@ConvertedID+1)^0,c
  8192   0023F4  0E00               	movlw	0
  8193   0023F6  2012               	addwfc	(convertReg2ExtendedCANid@ConvertedID+2)^0,w,c
  8194   0023F8  6E12               	movwf	(convertReg2ExtendedCANid@ConvertedID+2)^0,c
  8195   0023FA  0E00               	movlw	0
  8196   0023FC  2013               	addwfc	(convertReg2ExtendedCANid@ConvertedID+3)^0,w,c
  8197   0023FE  6E13               	movwf	(convertReg2ExtendedCANid@ConvertedID+3)^0,c
  8198                           
  8199                           ;mcc_generated_files/ecan.c: 387:     ConvertedID = (ConvertedID << 8);
  8200   002400  C010  F006         	movff	convertReg2ExtendedCANid@ConvertedID,??_convertReg2ExtendedCANid+1
  8201   002404  C011  F007         	movff	convertReg2ExtendedCANid@ConvertedID+1,??_convertReg2ExtendedCANid+2
  8202   002408  C012  F008         	movff	convertReg2ExtendedCANid@ConvertedID+2,??_convertReg2ExtendedCANid+3
  8203   00240C  6A05               	clrf	??_convertReg2ExtendedCANid^0,c
  8204   00240E  C005  F010         	movff	??_convertReg2ExtendedCANid,convertReg2ExtendedCANid@ConvertedID
  8205   002412  C006  F011         	movff	??_convertReg2ExtendedCANid+1,convertReg2ExtendedCANid@ConvertedID+1
  8206   002416  C007  F012         	movff	??_convertReg2ExtendedCANid+2,convertReg2ExtendedCANid@ConvertedID+2
  8207   00241A  C008  F013         	movff	??_convertReg2ExtendedCANid+3,convertReg2ExtendedCANid@ConvertedID+3
  8208   00241E                     
  8209                           ;mcc_generated_files/ecan.c: 388:     ConvertedID = ConvertedID + tempRXBn_EIDH;
  8210   00241E  5009               	movf	convertReg2ExtendedCANid@tempRXBn_EIDH^0,w,c
  8211   002420  2410               	addwf	convertReg2ExtendedCANid@ConvertedID^0,w,c
  8212   002422  6E10               	movwf	convertReg2ExtendedCANid@ConvertedID^0,c
  8213   002424  0E00               	movlw	0
  8214   002426  2011               	addwfc	(convertReg2ExtendedCANid@ConvertedID+1)^0,w,c
  8215   002428  6E11               	movwf	(convertReg2ExtendedCANid@ConvertedID+1)^0,c
  8216   00242A  0E00               	movlw	0
  8217   00242C  2012               	addwfc	(convertReg2ExtendedCANid@ConvertedID+2)^0,w,c
  8218   00242E  6E12               	movwf	(convertReg2ExtendedCANid@ConvertedID+2)^0,c
  8219   002430  0E00               	movlw	0
  8220   002432  2013               	addwfc	(convertReg2ExtendedCANid@ConvertedID+3)^0,w,c
  8221   002434  6E13               	movwf	(convertReg2ExtendedCANid@ConvertedID+3)^0,c
  8222   002436                     
  8223                           ;mcc_generated_files/ecan.c: 389:     ConvertedID = (ConvertedID << 8);
  8224   002436  C010  F006         	movff	convertReg2ExtendedCANid@ConvertedID,??_convertReg2ExtendedCANid+1
  8225   00243A  C011  F007         	movff	convertReg2ExtendedCANid@ConvertedID+1,??_convertReg2ExtendedCANid+2
  8226   00243E  C012  F008         	movff	convertReg2ExtendedCANid@ConvertedID+2,??_convertReg2ExtendedCANid+3
  8227   002442  6A05               	clrf	??_convertReg2ExtendedCANid^0,c
  8228   002444  C005  F010         	movff	??_convertReg2ExtendedCANid,convertReg2ExtendedCANid@ConvertedID
  8229   002448  C006  F011         	movff	??_convertReg2ExtendedCANid+1,convertReg2ExtendedCANid@ConvertedID+1
  8230   00244C  C007  F012         	movff	??_convertReg2ExtendedCANid+2,convertReg2ExtendedCANid@ConvertedID+2
  8231   002450  C008  F013         	movff	??_convertReg2ExtendedCANid+3,convertReg2ExtendedCANid@ConvertedID+3
  8232                           
  8233                           ;mcc_generated_files/ecan.c: 390:     ConvertedID = ConvertedID + tempRXBn_EIDL;
  8234   002454  5001               	movf	convertReg2ExtendedCANid@tempRXBn_EIDL^0,w,c
  8235   002456  2410               	addwf	convertReg2ExtendedCANid@ConvertedID^0,w,c
  8236   002458  6E10               	movwf	convertReg2ExtendedCANid@ConvertedID^0,c
  8237   00245A  0E00               	movlw	0
  8238   00245C  2011               	addwfc	(convertReg2ExtendedCANid@ConvertedID+1)^0,w,c
  8239   00245E  6E11               	movwf	(convertReg2ExtendedCANid@ConvertedID+1)^0,c
  8240   002460  0E00               	movlw	0
  8241   002462  2012               	addwfc	(convertReg2ExtendedCANid@ConvertedID+2)^0,w,c
  8242   002464  6E12               	movwf	(convertReg2ExtendedCANid@ConvertedID+2)^0,c
  8243   002466  0E00               	movlw	0
  8244   002468  2013               	addwfc	(convertReg2ExtendedCANid@ConvertedID+3)^0,w,c
  8245   00246A  6E13               	movwf	(convertReg2ExtendedCANid@ConvertedID+3)^0,c
  8246   00246C                     
  8247                           ;mcc_generated_files/ecan.c: 391:     returnValue = ConvertedID;
  8248   00246C  C010  F00A         	movff	convertReg2ExtendedCANid@ConvertedID,convertReg2ExtendedCANid@returnValue
  8249   002470  C011  F00B         	movff	convertReg2ExtendedCANid@ConvertedID+1,convertReg2ExtendedCANid@returnValue+1
  8250   002474  C012  F00C         	movff	convertReg2ExtendedCANid@ConvertedID+2,convertReg2ExtendedCANid@returnValue+2
  8251   002478  C013  F00D         	movff	convertReg2ExtendedCANid@ConvertedID+3,convertReg2ExtendedCANid@returnValue+3
  8252   00247C                     
  8253                           ;mcc_generated_files/ecan.c: 392:     return (returnValue);
  8254   00247C  C00A  F001         	movff	convertReg2ExtendedCANid@returnValue,?_convertReg2ExtendedCANid
  8255   002480  C00B  F002         	movff	convertReg2ExtendedCANid@returnValue+1,?_convertReg2ExtendedCANid+1
  8256   002484  C00C  F003         	movff	convertReg2ExtendedCANid@returnValue+2,?_convertReg2ExtendedCANid+2
  8257   002488  C00D  F004         	movff	convertReg2ExtendedCANid@returnValue+3,?_convertReg2ExtendedCANid+3
  8258   00248C  0012               	return		;funcret
  8259   00248E                     __end_of_convertReg2ExtendedCANid:
  8260                           	callstack 0
  8261                           
  8262                           	psect	text65
  8263   000000                     __ptext65:
  8264                           	callstack 0
  8265   000000                     
  8266                           	psect	rparam
  8267   000000                     
  8268                           	psect	temp
  8269   000048                     btemp:
  8270                           	callstack 0
  8271   000048                     	ds	1
  8272   000000                     int$flags	set	btemp
  8273   000000                     wtemp8	set	btemp+1
  8274   000000                     ttemp5	set	btemp+1
  8275   000000                     ttemp6	set	btemp+4
  8276   000000                     ttemp7	set	btemp+8
  8277                           
  8278                           	psect	idloc
  8279                           
  8280                           ;Config register IDLOC0 @ 0x200000
  8281                           ;	unspecified, using default values
  8282   200000                     	org	2097152
  8283   200000  FF                 	db	255
  8284                           
  8285                           ;Config register IDLOC1 @ 0x200001
  8286                           ;	unspecified, using default values
  8287   200001                     	org	2097153
  8288   200001  FF                 	db	255
  8289                           
  8290                           ;Config register IDLOC2 @ 0x200002
  8291                           ;	unspecified, using default values
  8292   200002                     	org	2097154
  8293   200002  FF                 	db	255
  8294                           
  8295                           ;Config register IDLOC3 @ 0x200003
  8296                           ;	unspecified, using default values
  8297   200003                     	org	2097155
  8298   200003  FF                 	db	255
  8299                           
  8300                           ;Config register IDLOC4 @ 0x200004
  8301                           ;	unspecified, using default values
  8302   200004                     	org	2097156
  8303   200004  FF                 	db	255
  8304                           
  8305                           ;Config register IDLOC5 @ 0x200005
  8306                           ;	unspecified, using default values
  8307   200005                     	org	2097157
  8308   200005  FF                 	db	255
  8309                           
  8310                           ;Config register IDLOC6 @ 0x200006
  8311                           ;	unspecified, using default values
  8312   200006                     	org	2097158
  8313   200006  FF                 	db	255
  8314                           
  8315                           ;Config register IDLOC7 @ 0x200007
  8316                           ;	unspecified, using default values
  8317   200007                     	org	2097159
  8318   200007  FF                 	db	255
  8319                           
  8320                           	psect	config
  8321                           
  8322                           ;Config register CONFIG1L @ 0x300000
  8323                           ;	VREG Sleep Enable bit
  8324                           ;	RETEN = OFF, Ultra low-power regulator is Disabled (Controlled by REGSLP bit)
  8325                           ;	LF-INTOSC Low-power Enable bit
  8326                           ;	INTOSCSEL = HIGH, LF-INTOSC in High-power mode during Sleep
  8327                           ;	SOSC Power Selection and mode Configuration bits
  8328                           ;	SOSCSEL = DIG, Digital (SCLKI) mode
  8329                           ;	Extended Instruction Set
  8330                           ;	XINST = OFF, Disabled
  8331   300000                     	org	3145728
  8332   300000  15                 	db	21
  8333                           
  8334                           ;Config register CONFIG1H @ 0x300001
  8335                           ;	Oscillator
  8336                           ;	FOSC = INTIO2, Internal RC oscillator
  8337                           ;	PLL x4 Enable bit
  8338                           ;	PLLCFG = OFF, Disabled
  8339                           ;	Fail-Safe Clock Monitor
  8340                           ;	FCMEN = OFF, Disabled
  8341                           ;	Internal External Oscillator Switch Over Mode
  8342                           ;	IESO = OFF, Disabled
  8343   300001                     	org	3145729
  8344   300001  08                 	db	8
  8345                           
  8346                           ;Config register CONFIG2L @ 0x300002
  8347                           ;	Power Up Timer
  8348                           ;	PWRTEN = OFF, Disabled
  8349                           ;	Brown Out Detect
  8350                           ;	BOREN = SBORDIS, Enabled in hardware, SBOREN disabled
  8351                           ;	Brown-out Reset Voltage bits
  8352                           ;	BORV = 3, 1.8V
  8353                           ;	BORMV Power level
  8354                           ;	BORPWR = ZPBORMV, ZPBORMV instead of BORMV is selected
  8355   300002                     	org	3145730
  8356   300002  7F                 	db	127
  8357                           
  8358                           ;Config register CONFIG2H @ 0x300003
  8359                           ;	Watchdog Timer
  8360                           ;	WDTEN = OFF, WDT disabled in hardware; SWDTEN bit disabled
  8361                           ;	Watchdog Postscaler
  8362                           ;	WDTPS = 1048576, 1:1048576
  8363   300003                     	org	3145731
  8364   300003  7C                 	db	124
  8365                           
  8366                           ; Padding undefined space
  8367   300004                     	org	3145732
  8368   300004  FF                 	db	255
  8369                           
  8370                           ;Config register CONFIG3H @ 0x300005
  8371                           ;	ECAN Mux bit
  8372                           ;	CANMX = PORTB, ECAN TX and RX pins are located on RB2 and RB3, respectively
  8373                           ;	MSSP address masking
  8374                           ;	MSSPMSK = MSK7, 7 Bit address masking mode
  8375                           ;	Master Clear Enable
  8376                           ;	MCLRE = ON, MCLR Enabled, RE3 Disabled
  8377   300005                     	org	3145733
  8378   300005  89                 	db	137
  8379                           
  8380                           ;Config register CONFIG4L @ 0x300006
  8381                           ;	Stack Overflow Reset
  8382                           ;	STVREN = ON, Enabled
  8383                           ;	Boot Block Size
  8384                           ;	BBSIZ = BB2K, 2K word Boot Block size
  8385   300006                     	org	3145734
  8386   300006  91                 	db	145
  8387                           
  8388                           ; Padding undefined space
  8389   300007                     	org	3145735
  8390   300007  FF                 	db	255
  8391                           
  8392                           ;Config register CONFIG5L @ 0x300008
  8393                           ;	Code Protect 00800-01FFF
  8394                           ;	CP0 = OFF, Disabled
  8395                           ;	Code Protect 02000-03FFF
  8396                           ;	CP1 = OFF, Disabled
  8397                           ;	Code Protect 04000-05FFF
  8398                           ;	CP2 = OFF, Disabled
  8399                           ;	Code Protect 06000-07FFF
  8400                           ;	CP3 = OFF, Disabled
  8401   300008                     	org	3145736
  8402   300008  0F                 	db	15
  8403                           
  8404                           ;Config register CONFIG5H @ 0x300009
  8405                           ;	Code Protect Boot
  8406                           ;	CPB = OFF, Disabled
  8407                           ;	Data EE Read Protect
  8408                           ;	CPD = OFF, Disabled
  8409   300009                     	org	3145737
  8410   300009  C0                 	db	192
  8411                           
  8412                           ;Config register CONFIG6L @ 0x30000A
  8413                           ;	Table Write Protect 00800-01FFF
  8414                           ;	WRT0 = OFF, Disabled
  8415                           ;	Table Write Protect 02000-03FFF
  8416                           ;	WRT1 = OFF, Disabled
  8417                           ;	Table Write Protect 04000-05FFF
  8418                           ;	WRT2 = OFF, Disabled
  8419                           ;	Table Write Protect 06000-07FFF
  8420                           ;	WRT3 = OFF, Disabled
  8421   30000A                     	org	3145738
  8422   30000A  0F                 	db	15
  8423                           
  8424                           ;Config register CONFIG6H @ 0x30000B
  8425                           ;	Config. Write Protect
  8426                           ;	WRTC = OFF, Disabled
  8427                           ;	Table Write Protect Boot
  8428                           ;	WRTB = OFF, Disabled
  8429                           ;	Data EE Write Protect
  8430                           ;	WRTD = OFF, Disabled
  8431   30000B                     	org	3145739
  8432   30000B  E0                 	db	224
  8433                           
  8434                           ;Config register CONFIG7L @ 0x30000C
  8435                           ;	Table Read Protect 00800-01FFF
  8436                           ;	EBTR0 = OFF, Disabled
  8437                           ;	Table Read Protect 02000-03FFF
  8438                           ;	EBTR1 = OFF, Disabled
  8439                           ;	Table Read Protect 04000-05FFF
  8440                           ;	EBTR2 = OFF, Disabled
  8441                           ;	Table Read Protect 06000-07FFF
  8442                           ;	EBTR3 = OFF, Disabled
  8443   30000C                     	org	3145740
  8444   30000C  0F                 	db	15
  8445                           
  8446                           ;Config register CONFIG7H @ 0x30000D
  8447                           ;	Table Read Protect Boot
  8448                           ;	EBTRB = OFF, Disabled
  8449   30000D                     	org	3145741
  8450   30000D  40                 	db	64
  8451                           tosu	equ	0xFFF
  8452                           tosh	equ	0xFFE
  8453                           tosl	equ	0xFFD
  8454                           stkptr	equ	0xFFC
  8455                           pclatu	equ	0xFFB
  8456                           pclath	equ	0xFFA
  8457                           pcl	equ	0xFF9
  8458                           tblptru	equ	0xFF8
  8459                           tblptrh	equ	0xFF7
  8460                           tblptrl	equ	0xFF6
  8461                           tablat	equ	0xFF5
  8462                           prodh	equ	0xFF4
  8463                           prodl	equ	0xFF3
  8464                           indf0	equ	0xFEF
  8465                           postinc0	equ	0xFEE
  8466                           postdec0	equ	0xFED
  8467                           preinc0	equ	0xFEC
  8468                           plusw0	equ	0xFEB
  8469                           fsr0h	equ	0xFEA
  8470                           fsr0l	equ	0xFE9
  8471                           wreg	equ	0xFE8
  8472                           indf1	equ	0xFE7
  8473                           postinc1	equ	0xFE6
  8474                           postdec1	equ	0xFE5
  8475                           preinc1	equ	0xFE4
  8476                           plusw1	equ	0xFE3
  8477                           fsr1h	equ	0xFE2
  8478                           fsr1l	equ	0xFE1
  8479                           bsr	equ	0xFE0
  8480                           indf2	equ	0xFDF
  8481                           postinc2	equ	0xFDE
  8482                           postdec2	equ	0xFDD
  8483                           preinc2	equ	0xFDC
  8484                           plusw2	equ	0xFDB
  8485                           fsr2h	equ	0xFDA
  8486                           fsr2l	equ	0xFD9
  8487                           status	equ	0xFD8

Data Sizes:
    Strings     175
    Constant    0
    Data        2
    BSS         88
    Persistent  15
    Stack       0

Auto Spaces:
    Space          Size  Autos    Used
    COMRAM           94     42      71
    BANK0           160    103     147
    BANK1           256      0      32
    BANK2           256      0       0
    BANK3           256      0       0
    BANK4           256      0       0
    BANK5           256      0       0
    BANK6           256      0       0
    BANK7           256      0       0
    BANK8           256      0       0
    BANK9           256      0       0
    BANK10          256      0       0
    BANK11          256      0       0
    BANK12          256      0       0
    BANK13          256      0       0
    BANK14           65      0       0

Pointer List with Targets:

    ADC_InterruptHandler	PTR FTN()void  size(2) Largest target is 1
		 -> Absolute function(), 

    fputs@s	PTR const unsigned char  size(2) Largest target is 32
		 -> dbuf(BANK1[32]), 

    fputs@fp	PTR struct _IO_FILE size(2) Largest target is 0
		 -> NULL(NULL[0]), 

    S2587$source	PTR const unsigned char  size(2) Largest target is 0

    fputc@fp...source	PTR const unsigned char  size(2) Largest target is 0

    S2587$buffer	PTR unsigned char  size(2) Largest target is 0

    fputc@fp...buffer	PTR unsigned char  size(2) Largest target is 0

    fputc@fp	PTR struct _IO_FILE size(2) Largest target is 0
		 -> NULL(NULL[0]), 

    atoi@s	PTR const unsigned char  size(2) Largest target is 33
		 -> STR_6(CODE[33]), STR_5(CODE[32]), STR_4(CODE[30]), STR_3(CODE[31]), 
		 -> STR_2(CODE[20]), STR_1(CODE[29]), 

    vfprintf@ap	PTR PTR void  size(2) Largest target is 2
		 -> printf@ap(BANK0[2]), 

    vfprintf@fp	PTR struct _IO_FILE size(2) Largest target is 0
		 -> NULL(NULL[0]), 

    vfprintf@fmt	PTR const unsigned char  size(2) Largest target is 33
		 -> STR_6(CODE[33]), STR_5(CODE[32]), STR_4(CODE[30]), STR_3(CODE[31]), 
		 -> STR_2(CODE[20]), STR_1(CODE[29]), 

    vfprintf@cfmt	PTR unsigned char  size(2) Largest target is 33
		 -> STR_6(CODE[33]), STR_5(CODE[32]), STR_4(CODE[30]), STR_3(CODE[31]), 
		 -> STR_2(CODE[20]), STR_1(CODE[29]), 

    vfpfcnvrt@fp	PTR struct _IO_FILE size(2) Largest target is 0
		 -> NULL(NULL[0]), 

    vfpfcnvrt@cp	PTR unsigned char  size(2) Largest target is 33
		 -> STR_6(CODE[33]), STR_5(CODE[32]), STR_4(CODE[30]), STR_3(CODE[31]), 
		 -> STR_2(CODE[20]), STR_1(CODE[29]), 

    vfpfcnvrt@ap	PTR PTR void  size(2) Largest target is 2
		 -> printf@ap(BANK0[2]), 

    vfpfcnvrt@fmt	PTR PTR unsigned char  size(2) Largest target is 2
		 -> vfprintf@cfmt(BANK0[2]), 

    S2627$vp	PTR void  size(2) Largest target is 0

    convarg.vp	PTR void  size(2) Largest target is 0

    dtoa@fp	PTR struct _IO_FILE size(2) Largest target is 0
		 -> NULL(NULL[0]), 

    pad@fp	PTR struct _IO_FILE size(2) Largest target is 0
		 -> NULL(NULL[0]), 

    pad@buf	PTR unsigned char  size(2) Largest target is 32
		 -> dbuf(BANK1[32]), 

    printf@fmt	PTR const unsigned char  size(2) Largest target is 33
		 -> STR_6(CODE[33]), STR_5(CODE[32]), STR_4(CODE[30]), STR_3(CODE[31]), 
		 -> STR_2(CODE[20]), STR_1(CODE[29]), 

    printf@ap	PTR void [1] size(2) Largest target is 2
		 -> ?_printf(BANK0[2]), 

    TMR2_SetInterruptHandler@InterruptHandler	PTR FTN()void  size(2) Largest target is 1
		 -> TMR2_DefaultInterruptHandler(), gestion_compteur(), 

    TMR2_InterruptHandler	PTR FTN()void  size(2) Largest target is 1
		 -> TMR2_DefaultInterruptHandler(), gestion_compteur(), Absolute function(), 

    TMR0_SetInterruptHandler@InterruptHandler	PTR FTN()void  size(2) Largest target is 1
		 -> actif(), TMR0_DefaultInterruptHandler(), 

    TMR0_InterruptHandler	PTR FTN()void  size(2) Largest target is 1
		 -> actif(), TMR0_DefaultInterruptHandler(), Absolute function(), 

    TMR1_SetInterruptHandler@InterruptHandler	PTR FTN()void  size(2) Largest target is 1
		 -> compteurTT(), TMR1_DefaultInterruptHandler(), 

    TMR1_InterruptHandler	PTR FTN()void  size(2) Largest target is 1
		 -> compteurTT(), Absolute function(), TMR1_DefaultInterruptHandler(), 

    ECAN_SetWakeUpInterruptHandler@handler	PTR FTN()void  size(2) Largest target is 1
		 -> WakeUpDefaultInterruptHandler(), 

    WakeUpInterruptHandler	PTR FTN()void  size(2) Largest target is 1
		 -> Absolute function(), WakeUpDefaultInterruptHandler(), 

    ECAN_SetRXB0InterruptHandler@handler	PTR FTN()void  size(2) Largest target is 1
		 -> receptionTTCAN(), RXB0DefaultInterruptHandler(), 

    RXB0InterruptHandler	PTR FTN()void  size(2) Largest target is 1
		 -> receptionTTCAN(), Absolute function(), RXB0DefaultInterruptHandler(), 

    convertCANid2Reg@passedInSIDH	PTR unsigned char  size(2) Largest target is 1
		 -> CAN_transmit@tempSIDH(BANK0[1]), 

    convertCANid2Reg@passedInSIDL	PTR unsigned char  size(2) Largest target is 1
		 -> CAN_transmit@tempSIDL(BANK0[1]), 

    convertCANid2Reg@passedInEIDH	PTR unsigned char  size(2) Largest target is 1
		 -> CAN_transmit@tempEIDH(BANK0[1]), 

    convertCANid2Reg@passedInEIDL	PTR unsigned char  size(2) Largest target is 1
		 -> CAN_transmit@tempEIDL(BANK0[1]), 

    CAN_receive@tempCanMsg	PTR struct . size(2) Largest target is 14
		 -> receptionTTCAN@Message_recu(COMRAM[14]), 

    CAN_transmit@tempCanMsg	PTR struct . size(2) Largest target is 14
		 -> Lux_INT_Tx(BANK0[14]), 

    EUSART1_SetErrorHandler@interruptHandler	PTR FTN()void  size(2) Largest target is 1
		 -> EUSART1_DefaultErrorHandler(), 

    EUSART1_ErrorHandler	PTR FTN()void  size(2) Largest target is 1
		 -> Absolute function(), EUSART1_DefaultErrorHandler(), 

    EUSART1_SetOverrunErrorHandler@interruptHandler	PTR FTN()void  size(2) Largest target is 1
		 -> EUSART1_DefaultOverrunErrorHandler(), 

    EUSART1_OverrunErrorHandler	PTR FTN()void  size(2) Largest target is 1
		 -> Absolute function(), EUSART1_DefaultOverrunErrorHandler(), 

    EUSART1_SetFramingErrorHandler@interruptHandler	PTR FTN()void  size(2) Largest target is 1
		 -> EUSART1_DefaultFramingErrorHandler(), 

    EUSART1_FramingErrorHandler	PTR FTN()void  size(2) Largest target is 1
		 -> Absolute function(), EUSART1_DefaultFramingErrorHandler(), 


Critical Paths under _main in COMRAM

    None.

Critical Paths under _INTERRUPT_InterruptManager in COMRAM

    _TMR1_ISR->_TMR1_WriteTimer
    _actif->_TMR0_WriteTimer
    _ECAN_RXB0I_ISR->_receptionTTCAN
    _receptionTTCAN->_CAN_receive
    _TMR1_Reload->_TMR1_WriteTimer
    _CAN_receive->_convertReg2ExtendedCANid

Critical Paths under _main in BANK0

    _main->_printf
    _erreur_adc->_printf
    _printf->_vfprintf
    _vfprintf->_vfpfcnvrt
    _vfpfcnvrt->_dtoa
    _dtoa->_pad
    _pad->_fputs
    _fputs->_fputc
    _fputc->_putch
    _putch->_EUSART1_Write
    _abs->___aomod
    _atoi->___wmul
    _SYSTEM_Initialize->_TMR1_Initialize
    _TMR2_Initialize->_TMR2_SetInterruptHandler
    _TMR1_Initialize->_TMR1_SetInterruptHandler
    _TMR0_Initialize->_TMR0_SetInterruptHandler
    _EUSART1_Initialize->_EUSART1_SetErrorHandler
    _EUSART1_Initialize->_EUSART1_SetFramingErrorHandler
    _EUSART1_Initialize->_EUSART1_SetOverrunErrorHandler
    _ECAN_Initialize->_ECAN_SetRXB0InterruptHandler
    _ECAN_Initialize->_ECAN_SetWakeUpInterruptHandler
    _CAN_transmit->_convertCANid2Reg

Critical Paths under _INTERRUPT_InterruptManager in BANK0

    None.

Critical Paths under _main in BANK1

    None.

Critical Paths under _INTERRUPT_InterruptManager in BANK1

    None.

Critical Paths under _main in BANK2

    None.

Critical Paths under _INTERRUPT_InterruptManager in BANK2

    None.

Critical Paths under _main in BANK3

    None.

Critical Paths under _INTERRUPT_InterruptManager in BANK3

    None.

Critical Paths under _main in BANK4

    None.

Critical Paths under _INTERRUPT_InterruptManager in BANK4

    None.

Critical Paths under _main in BANK5

    None.

Critical Paths under _INTERRUPT_InterruptManager in BANK5

    None.

Critical Paths under _main in BANK6

    None.

Critical Paths under _INTERRUPT_InterruptManager in BANK6

    None.

Critical Paths under _main in BANK7

    None.

Critical Paths under _INTERRUPT_InterruptManager in BANK7

    None.

Critical Paths under _main in BANK8

    None.

Critical Paths under _INTERRUPT_InterruptManager in BANK8

    None.

Critical Paths under _main in BANK9

    None.

Critical Paths under _INTERRUPT_InterruptManager in BANK9

    None.

Critical Paths under _main in BANK10

    None.

Critical Paths under _INTERRUPT_InterruptManager in BANK10

    None.

Critical Paths under _main in BANK11

    None.

Critical Paths under _INTERRUPT_InterruptManager in BANK11

    None.

Critical Paths under _main in BANK12

    None.

Critical Paths under _INTERRUPT_InterruptManager in BANK12

    None.

Critical Paths under _main in BANK13

    None.

Critical Paths under _INTERRUPT_InterruptManager in BANK13

    None.

Critical Paths under _main in BANK14

    None.

Critical Paths under _INTERRUPT_InterruptManager in BANK14

    None.

Call Graph Tables:

 ---------------------------------------------------------------------------------
 (Depth) Function   	        Calls       Base Space   Used Autos Params    Refs
 ---------------------------------------------------------------------------------
 (0) _main                                                 4     4      0   25718
                                             99 BANK0      4     4      0
                       _CAN_transmit
       _ECAN_SetRXB0InterruptHandler
                  _SYSTEM_Initialize
           _TMR0_SetInterruptHandler
           _TMR1_SetInterruptHandler
           _TMR2_SetInterruptHandler
                         _erreur_adc
                    _gestion_lumiere
                             _printf
 ---------------------------------------------------------------------------------
 (1) _gestion_lumiere                                      2     2      0       0
                                              0 BANK0      2     2      0
 ---------------------------------------------------------------------------------
 (1) _erreur_adc                                           0     0      0    9563
                  _ADC_GetConversion
                             _printf
 ---------------------------------------------------------------------------------
 (1) _printf                                              10     4      6    9532
                                             91 BANK0      8     2      6
                           _vfprintf
 ---------------------------------------------------------------------------------
 (2) _vfprintf                                             8     2      6    8905
                                             83 BANK0      8     2      6
                          _vfpfcnvrt
 ---------------------------------------------------------------------------------
 (3) _vfpfcnvrt                                           24    18      6    8420
                                             64 BANK0     19    13      6
                               _atoi
                               _dtoa
                              _fputc
                            _isdigit
 ---------------------------------------------------------------------------------
 (4) _dtoa                                                35    25     10    4982
                                             29 BANK0     35    25     10
                            ___aodiv
                            ___aomod
                                _abs
                                _pad
 ---------------------------------------------------------------------------------
 (5) _pad                                                 11     5      6    2713
                                             18 BANK0     11     5      6
                              _fputc
                              _fputs
 ---------------------------------------------------------------------------------
 (6) _fputs                                                7     3      4    1326
                                             11 BANK0      7     3      4
                              _fputc
 ---------------------------------------------------------------------------------
 (4) _fputc                                                9     5      4     826
                                              2 BANK0      9     5      4
                              _putch
 ---------------------------------------------------------------------------------
 (5) _putch                                                1     1      0      62
                                              1 BANK0      1     1      0
                      _EUSART1_Write
 ---------------------------------------------------------------------------------
 (6) _EUSART1_Write                                        1     1      0      31
                                              0 BANK0      1     1      0
 ---------------------------------------------------------------------------------
 (5) _abs                                                  4     2      2     183
                                             18 BANK0      4     2      2
                            ___aomod (ARG)
 ---------------------------------------------------------------------------------
 (5) ___aomod                                             18     2     16     613
                                              0 BANK0     18     2     16
 ---------------------------------------------------------------------------------
 (5) ___aodiv                                             26    10     16     625
                                              0 BANK0     26    10     16
 ---------------------------------------------------------------------------------
 (4) _atoi                                                 9     7      2    1404
                                              6 BANK0      9     7      2
                             ___wmul
                            _isdigit
                            _isspace
 ---------------------------------------------------------------------------------
 (5) _isspace                                              5     3      2     259
                                              0 BANK0      5     3      2
 ---------------------------------------------------------------------------------
 (4) _isdigit                                              4     2      2     281
                                              0 BANK0      4     2      2
 ---------------------------------------------------------------------------------
 (5) ___wmul                                               6     2      4     412
                                              0 BANK0      6     2      4
 ---------------------------------------------------------------------------------
 (2) _ADC_GetConversion                                    5     3      2      31
                                              0 BANK0      5     3      2
 ---------------------------------------------------------------------------------
 (1) _SYSTEM_Initialize                                    0     0      0    1328
                     _ADC_Initialize
                    _ECAN_Initialize
                 _EUSART1_Initialize
               _INTERRUPT_Initialize
              _OSCILLATOR_Initialize
             _PIN_MANAGER_Initialize
                    _TMR0_Initialize
                    _TMR1_Initialize
                    _TMR2_Initialize
 ---------------------------------------------------------------------------------
 (2) _TMR2_Initialize                                      0     0      0     211
           _TMR2_SetInterruptHandler
 ---------------------------------------------------------------------------------
 (1) _TMR2_SetInterruptHandler                             2     0      2     211
                                              0 BANK0      2     0      2
 ---------------------------------------------------------------------------------
 (2) _TMR1_Initialize                                      2     2      0     211
                                              2 BANK0      2     2      0
           _TMR1_SetInterruptHandler
 ---------------------------------------------------------------------------------
 (1) _TMR1_SetInterruptHandler                             2     0      2     211
                                              0 BANK0      2     0      2
 ---------------------------------------------------------------------------------
 (2) _TMR0_Initialize                                      0     0      0     211
           _TMR0_SetInterruptHandler
 ---------------------------------------------------------------------------------
 (1) _TMR0_SetInterruptHandler                             2     0      2     211
                                              0 BANK0      2     0      2
 ---------------------------------------------------------------------------------
 (2) _PIN_MANAGER_Initialize                               0     0      0       0
 ---------------------------------------------------------------------------------
 (2) _OSCILLATOR_Initialize                                0     0      0       0
 ---------------------------------------------------------------------------------
 (2) _INTERRUPT_Initialize                                 0     0      0       0
 ---------------------------------------------------------------------------------
 (2) _EUSART1_Initialize                                   0     0      0     363
            _EUSART1_SetErrorHandler
     _EUSART1_SetFramingErrorHandler
     _EUSART1_SetOverrunErrorHandler
 ---------------------------------------------------------------------------------
 (3) _EUSART1_SetOverrunErrorHandler                       2     0      2     121
                                              0 BANK0      2     0      2
 ---------------------------------------------------------------------------------
 (3) _EUSART1_SetFramingErrorHandler                       2     0      2     121
                                              0 BANK0      2     0      2
 ---------------------------------------------------------------------------------
 (3) _EUSART1_SetErrorHandler                              2     0      2     121
                                              0 BANK0      2     0      2
 ---------------------------------------------------------------------------------
 (2) _ECAN_Initialize                                      1     1      0     332
                                              2 BANK0      1     1      0
       _ECAN_SetRXB0InterruptHandler
     _ECAN_SetWakeUpInterruptHandler
 ---------------------------------------------------------------------------------
 (3) _ECAN_SetWakeUpInterruptHandler                       2     0      2     121
                                              0 BANK0      2     0      2
 ---------------------------------------------------------------------------------
 (3) _ECAN_SetRXB0InterruptHandler                         2     0      2     211
                                              0 BANK0      2     0      2
 ---------------------------------------------------------------------------------
 (2) _ADC_Initialize                                       0     0      0       0
 ---------------------------------------------------------------------------------
 (1) _CAN_transmit                                         7     5      2    4451
                                             18 BANK0      6     4      2
                   _convertCANid2Reg
 ---------------------------------------------------------------------------------
 (2) _convertCANid2Reg                                    18     5     13    2425
                                              0 BANK0     18     5     13
 ---------------------------------------------------------------------------------
 Estimated maximum stack depth 6
 ---------------------------------------------------------------------------------
 (Depth) Function   	        Calls       Base Space   Used Autos Params    Refs
 ---------------------------------------------------------------------------------
 (11) _INTERRUPT_InterruptManager                          6     6      0    2358
                                             36 COMRAM     6     6      0
                     _ECAN_RXB0I_ISR
                      _ECAN_WAKI_ISR
                           _TMR0_ISR
                           _TMR1_ISR
                           _TMR2_ISR
 ---------------------------------------------------------------------------------
 (12) _TMR2_ISR                                            0     0      0       0
                      _TMR2_CallBack
 ---------------------------------------------------------------------------------
 (13) _TMR2_CallBack                                       0     0      0       0
                   Absolute function *
       _TMR2_DefaultInterruptHandler *
                   _gestion_compteur *
 ---------------------------------------------------------------------------------
 (14) _gestion_compteur                                    0     0      0       0
 ---------------------------------------------------------------------------------
 (14) _TMR2_DefaultInterruptHandler                        0     0      0       0
 ---------------------------------------------------------------------------------
 (12) _TMR1_ISR                                            0     0      0     240
                      _TMR1_CallBack
                    _TMR1_WriteTimer
 ---------------------------------------------------------------------------------
 (13) _TMR1_CallBack                                       0     0      0       0
                   Absolute function *
       _TMR1_DefaultInterruptHandler *
                         _compteurTT *
 ---------------------------------------------------------------------------------
 (14) _compteurTT                                          0     0      0       0
 ---------------------------------------------------------------------------------
 (14) _TMR1_DefaultInterruptHandler                        0     0      0       0
 ---------------------------------------------------------------------------------
 (12) _TMR0_ISR                                            0     0      0      15
                      _TMR0_CallBack
 ---------------------------------------------------------------------------------
 (13) _TMR0_CallBack                                       0     0      0      15
                   Absolute function *
       _TMR0_DefaultInterruptHandler *
                              _actif *
 ---------------------------------------------------------------------------------
 (14) _actif                                               0     0      0      15
                     _TMR0_StopTimer
                    _TMR0_WriteTimer
 ---------------------------------------------------------------------------------
 (15) _TMR0_WriteTimer                                     1     1      0      15
                                              0 COMRAM     1     1      0
 ---------------------------------------------------------------------------------
 (15) _TMR0_StopTimer                                      0     0      0       0
 ---------------------------------------------------------------------------------
 (14) _TMR0_DefaultInterruptHandler                        0     0      0       0
 ---------------------------------------------------------------------------------
 (12) _ECAN_WAKI_ISR                                       0     0      0       0
                   Absolute function *
      _WakeUpDefaultInterruptHandler *
 ---------------------------------------------------------------------------------
 (13) _WakeUpDefaultInterruptHandler                       0     0      0       0
 ---------------------------------------------------------------------------------
 (12) _ECAN_RXB0I_ISR                                      0     0      0    2103
                   Absolute function *
        _RXB0DefaultInterruptHandler *
                     _receptionTTCAN *
 ---------------------------------------------------------------------------------
 (13) _receptionTTCAN                                     15    15      0    2103
                                             21 COMRAM    15    15      0
                        _CAN_receive
                        _TMR1_Reload
 ---------------------------------------------------------------------------------
 (14) _TMR1_Reload                                         0     0      0     240
                    _TMR1_WriteTimer
 ---------------------------------------------------------------------------------
 (13) _TMR1_WriteTimer                                     2     0      2     240
                                              0 COMRAM     2     0      2
 ---------------------------------------------------------------------------------
 (14) _CAN_receive                                         3     1      2    1744
                                             19 COMRAM     2     0      2
           _convertReg2ExtendedCANid
           _convertReg2StandardCANid
 ---------------------------------------------------------------------------------
 (15) _convertReg2StandardCANid                           15    11      4     266
                                              0 COMRAM    15    11      4
 ---------------------------------------------------------------------------------
 (15) _convertReg2ExtendedCANid                           19    15      4     821
                                              0 COMRAM    19    15      4
 ---------------------------------------------------------------------------------
 (13) _RXB0DefaultInterruptHandler                         0     0      0       0
 ---------------------------------------------------------------------------------
 (14) Absolute function(Fake)                              0     0      0       0
 ---------------------------------------------------------------------------------
 Estimated maximum stack depth 15
 ---------------------------------------------------------------------------------

 Call Graph Graphs:

 _main (ROOT)
   _CAN_transmit
     _convertCANid2Reg
   _ECAN_SetRXB0InterruptHandler
   _SYSTEM_Initialize
     _ADC_Initialize
     _ECAN_Initialize
       _ECAN_SetRXB0InterruptHandler
       _ECAN_SetWakeUpInterruptHandler
     _EUSART1_Initialize
       _EUSART1_SetErrorHandler
       _EUSART1_SetFramingErrorHandler
       _EUSART1_SetOverrunErrorHandler
     _INTERRUPT_Initialize
     _OSCILLATOR_Initialize
     _PIN_MANAGER_Initialize
     _TMR0_Initialize
       _TMR0_SetInterruptHandler
     _TMR1_Initialize
       _TMR1_SetInterruptHandler
     _TMR2_Initialize
       _TMR2_SetInterruptHandler
   _TMR0_SetInterruptHandler
   _TMR1_SetInterruptHandler
   _TMR2_SetInterruptHandler
   _erreur_adc
     _ADC_GetConversion
     _printf
       _vfprintf
         _vfpfcnvrt
           _atoi
             ___wmul
             _isdigit
             _isspace
           _dtoa
             ___aodiv
             ___aomod
             _abs
               ___aomod (ARG)
             _pad
               _fputc
                 _putch
                   _EUSART1_Write
               _fputs
                 _fputc
           _fputc
           _isdigit
   _gestion_lumiere
   _printf

 _INTERRUPT_InterruptManager (ROOT)
   _ECAN_RXB0I_ISR
     Absolute function(Fake) *
     _RXB0DefaultInterruptHandler *
     _receptionTTCAN *
       _CAN_receive
         _convertReg2ExtendedCANid
         _convertReg2StandardCANid
       _TMR1_Reload
         _TMR1_WriteTimer
   _ECAN_WAKI_ISR
     Absolute function(Fake) *
     _WakeUpDefaultInterruptHandler *
   _TMR0_ISR
     _TMR0_CallBack
       Absolute function(Fake) *
       _TMR0_DefaultInterruptHandler *
       _actif *
         _TMR0_StopTimer
         _TMR0_WriteTimer
   _TMR1_ISR
     _TMR1_CallBack
       Absolute function(Fake) *
       _TMR1_DefaultInterruptHandler *
       _compteurTT *
     _TMR1_WriteTimer
   _TMR2_ISR
     _TMR2_CallBack
       Absolute function(Fake) *
       _TMR2_DefaultInterruptHandler *
       _gestion_compteur *

 Address spaces:
Name               Size   Autos  Total    Cost      Usage
BIGRAM             E40      0       0      56        0.0%
EEDATA             400      0       0       0        0.0%
BITBANK13          100      0       0      53        0.0%
BANK13             100      0       0      23        0.0%
BITBANK12          100      0       0      21        0.0%
BANK12             100      0       0      22        0.0%
BITBANK11          100      0       0      52        0.0%
BANK11             100      0       0      20        0.0%
BITBANK10          100      0       0      51        0.0%
BANK10             100      0       0      19        0.0%
BITBANK9           100      0       0      50        0.0%
BANK9              100      0       0      18        0.0%
BITBANK8           100      0       0      49        0.0%
BANK8              100      0       0      17        0.0%
BITBANK7           100      0       0      48        0.0%
BANK7              100      0       0      16        0.0%
BITBANK6           100      0       0      47        0.0%
BANK6              100      0       0      15        0.0%
BITBANK5           100      0       0      46        0.0%
BANK5              100      0       0      14        0.0%
BITBANK4           100      0       0      12        0.0%
BANK4              100      0       0      13        0.0%
BITBANK3           100      0       0      10        0.0%
BANK3              100      0       0      11        0.0%
BITBANK2           100      0       0       8        0.0%
BANK2              100      0       0       9        0.0%
BITBANK1           100      0       0       6        0.0%
BANK1              100      0      20       7       12.5%
BITBANK0            A0      0       0       4        0.0%
BANK0               A0     67      93       5       91.9%
BITBIGSFRllllll     9A      0       0      43        0.0%
BITCOMRAM           5E      0       0       0        0.0%
COMRAM              5E     2A      47       1       75.5%
BITBANK14           41      0       0      54        0.0%
BANK14              41      0       0      55        0.0%
BITBIGSFRllllhh     1D      0       0      39        0.0%
BITBIGSFRhlh        19      0       0      25        0.0%
BITBIGSFRlhlhhh     10      0       0      29        0.0%
BITBIGSFRhh          D      0       0      24        0.0%
BITBIGSFRllhhl       B      0       0      35        0.0%
BITBIGSFRlhlhl       8      0       0      31        0.0%
BITBIGSFRllhhhl      6      0       0      34        0.0%
BITBIGSFRlhlhhh      5      0       0      28        0.0%
BITBIGSFRllhhhh      5      0       0      33        0.0%
BITBIGSFRllhl        5      0       0      36        0.0%
BITBIGSFRlllhhh      3      0       0      37        0.0%
BITBIGSFRllllhh      2      0       0      42        0.0%
BITBIGSFRllllhh      2      0       0      41        0.0%
BITBIGSFRllllhh      2      0       0      40        0.0%
BITBIGSFRlllhll      2      0       0      38        0.0%
BITBIGSFRlhlhhl      2      0       0      30        0.0%
BITBIGSFRllllll      2      0       0      44        0.0%
BITBIGSFRlhh         1      0       0      27        0.0%
BITBIGSFRlhll        1      0       0      32        0.0%
BITBIGSFRhll         1      0       0      26        0.0%
BIGSFR               0      0       0     200        0.0%
BITSFR_2             0      0       0     200        0.0%
SFR_2                0      0       0     200        0.0%
BITSFR_1             0      0       0     200        0.0%
SFR_1                0      0       0     200        0.0%
BITSFR               0      0       0     200        0.0%
SFR                  0      0       0     200        0.0%
STACK                0      0       0       2        0.0%
NULL                 0      0       0       0        0.0%
ABS                  0      0      FA      45        0.0%
DATA                 0      0      FA       3        0.0%
CODE                 0      0       0       0        0.0%


Microchip Technology PIC18 Macro Assembler V2.40 build 20220703182018 
Symbol Table                                                                                   Thu Oct 06 12:21:40 2022

                 __end_of_TMR2_SetInterruptHandler 2E06                             __end_of_receptionTTCAN 2892  
                                               l32 2DDE                                                 l29 2CF6  
                                               l57 2E66                                ___wmul@multiplicand 0062  
                                  _timer0ReloadVal 0039                                                l117 2A62  
                                              l141 2D7C                                                l150 2DEC  
                                              l144 2D8E                                                l162 2E2C  
                                              l501 209E                                                l165 2E22  
                                              l510 2E40                                                l504 2E4A  
                                              l168 2E36                                                l193 2C2E  
                                              l460 1312                                                l532 2DA4  
                                              l612 2E0E                                                l463 1438  
                                              l544 2AC2                                                l449 257C  
                                              l458 11EC                                                l802 257E  
                                              l459 1438                                                l547 2AE4  
                                              l741 1798                                                l638 2D1A  
                                              l807 2592                                                l745 1782  
                                              l666 2E18                                                l818 2664  
                                              l579 2B1E                                                l755 1814  
                                              l861 2D3A                                                l781 2898  
                                              l757 1816                                                l790 28A6  
                                              l792 28A8                                                l785 289E  
                                              l795 28AE                                                l787 28A0  
                                              l779 2896                                                l797 28B0  
                                              l895 2CA8                                                l799 28F2  
                                              l889 2E04                                                _PR2 000FCB  
            ECAN_SetWakeUpInterruptHandler@handler 0060                                    _timer1ReloadVal 0031  
                                              _abs 2A64                                                _pad 2666  
                                  _TMR2_Initialize 2D1C                                                tosl 000FFD  
                                              wreg 000FE8                                         _TXSTA1bits 000FAC  
                       ??_convertReg2StandardCANid 0005                                               l1022 2204  
                                             l1009 1F28                                               ?_abs 0072  
                                             l1600 26AE                                               l1610 14C6  
                                             l1603 26F2                                               l1612 14CE  
                                             l1605 2714                                               l1613 1514  
                                             l1703 27AC                                               l1711 29D6  
                                             l1624 16BA                                               l4201 20B4  
                                             l4121 2D8A                                               l4211 2124  
                                             l4203 20D4                                               l4123 2DE4  
                                             l4131 2746                                               l1652 2AA4  
                                             l4221 219C                                               l4213 212C  
                                             l4205 20D8                                               l4133 2764  
                                             l4125 2716                                               l4141 299E  
                                             l4301 15B0                                               l1645 2944  
                                             l1573 2C80                                               l5101 184A  
                                             l4223 21AE                                               l4215 2140  
                                             l4207 20E6                                               l4119 2D7C  
                                             l4135 279A                                               l4127 272A  
                                             l4143 29B0                                               l4311 165A  
                                             l4303 15B6                                               l1639 1D9E  
                                             l5111 1900                                               l5103 186E  
                                             l1680 2B4C                                               l4401 2E24  
                                             l4161 1DD8                                               l4153 1DA0  
                                             l4217 214E                                               l4225 21B4  
                                             l4209 2106                                               l1649 2A9C  
                                             l4129 273C                                               l4145 29B6  
                                             l4241 26A6                                               l4233 2666  
                                             l4313 1674                                               l4305 15BC  
                                             l5113 28CC                                               l5105 1858  
                                             l1674 234A                                               l4403 2E1A  
                                             l4411 2E06                                               l4147 2C82  
                                             l5115 229E                                               l4331 223C  
                                             l4323 2206                                               l4171 1E34  
                                             l4163 1DE6                                               l4155 1DA6  
                                             l4227 21C4                                               l4219 217C  
                                             l4251 2A64                                               l4139 2990  
                                             l4243 26BA                                               l4235 2676  
                                             l4315 1684                                               l4307 1620  
                                             l5107 18F2                                               l4501 1F2A  
                                             l4405 2E2E                                               l4413 2E10  
                                             l4149 2CA0                                               l4261 29DE  
                                             l1677 2352                                               l4333 2270  
                                             l4325 221C                                               l4181 1E9E  
                                             l4173 1E3C                                               l4165 1E06  
                                             l4157 1DB4                                               l4229 21E4  
                                             l4253 2A80                                               l4245 26CE  
                                             l4237 268A                                               l4317 168A  
                                             l4309 163C                                               l4421 291E  
                                             l5109 1916                                               l4511 1FB8  
                                             l4503 1F3E                                               l4407 2E42  
                                             l4431 2C2C                                               l4415 2DFC  
                                             l4255 2B20                                               l4263 29F2  
                                             l4335 2278                                               l4191 1EE8  
                                             l4183 1EBE                                               l4175 1E50  
                                             l4167 1E0A                                               l4159 1DD4  
                                             l4247 26D4                                               l4239 269A  
                                             l4319 169A                                               l4271 143A  
                                             l4423 293A                                               l1688 2A1E  
                                             l4521 2034                                               l4513 1FEA  
                                             l4505 1F4A                                               l4601 11E8  
                                             l4409 2E38                                               l4433 2DCE  
                                             l4441 2D26                                               l4265 2A14  
                                             l4345 22EC                                               l4337 2280  
                                             l4329 2220                                               l4193 1F08  
                                             l4185 1EC0                                               l4177 1E5E  
                                             l4169 1E16                                               l4249 2700  
                                             l4281 14BA                                               l4273 145A  
                                             l4361 1BB2                                               l4417 28F4  
                                             l4515 1FF2                                               l4507 1F78  
                                             l4523 2044                                               l4611 1254  
                                             l4603 11FA                                               l4435 2D90  
                                             l4427 2E64                                               l4451 2AF4  
                                             l4443 2D28                                               l4267 2A18  
                                             l4259 29D8                                               l4347 231C  
                                             l4339 22B4                                               l4187 1ED2  
                                             l4179 1E70                                               l4291 1508  
                                             l4283 14D6                                               l4275 1470  
                                             l4371 1C2C                                               l4363 1BB6  
                                             l4355 1B72                                               l4419 2900  
                                             l4525 205C                                               l4517 1FF8  
                                             l4509 1FB2                                               l4621 12A8  
                                             l4613 1258                                               l4605 1248  
                                             l4429 2C06                                               l4461 2D04  
                                             l4453 2B0C                                               l4445 2D36  
                                             l4437 2D1C                                               l4533 2AAA  
                                             l4349 232E                                               l4189 1ED8  
                                             l4197 20A0                                               l4293 1510  
                                             l4285 14E6                                               l4277 1480  
                                             l4381 1CA4                                               l4373 1C4C  
                                             l4365 1BDA                                               l4357 1B96  
                                             l4701 2658                                               ?_pad 0072  
                                             l4527 208E                                               l4519 2006  
                                             l4631 130C                                               l4623 12BC  
                                             l4615 126C                                               l4607 124C  
                                             l4471 2A34                                               l4463 2D06  
                                             l4455 2B0E                                               l4447 2AE6  
                                             l4439 2D24                                               l4551 2CD6  
                                             l4535 2ABE                                               l4199 20A6  
                                             l4295 151C                                               l4287 14EC  
                                             l4279 14A0                                               l4391 1D62  
                                             l4383 1CC0                                               l4367 1C10  
                                             l4359 1BA4                                               l4543 2C5A  
                                             l4703 2892                                               l4641 1376  
                                             l4625 12D0                                               l4617 1280  
                                             l4609 1250                                               l4481 2492  
                                             l4473 2A42                                               l4465 2D08  
                                             l4457 2B1A                                               l4449 2AF2  
                                             l4561 2CEA                                               l4553 2CDA  
                                             l4537 2AC0                                               l4297 1526  
                                             l4289 14FC                                               l4385 1CDC  
                                             l4377 1C5A                                               l4369 1C1E  
                                             l4545 2C64                                               l4721 16D2  
                                             l4651 13BA                                               l4643 137A  
                                             l4635 1320                                               l4627 12E4  
                                             l4619 1294                                               l4571 10D4  
                                             l4491 254E                                               l4483 24A6  
                                             l4475 2A50                                               l4467 2D16  
                                             l4459 2CF8                                               l4563 2CEE  
                                             l4555 2CDE                                               l4539 2AD0  
                                             l4299 152C                                               l4387 1D32  
                                             l4379 1C94                                               l4395 1D74  
                                             l4707 28B6                                               l5099 17B0  
                                             l4731 1700                                               l4723 16E0  
                                             l4715 16BC                                               l4661 141E  
                                             l4653 13CE                                               l4645 137E  
                                             l4637 136E                                               l4629 12F8  
                                             l4581 1132                                               l4573 1122  
                                             l4493 255C                                               l4485 253C  
                                             l4477 2A5E                                               l4469 2A20  
                                             l4565 2CF2                                               l4557 2CE2  
                                             l4549 2CD2                                               l4741 174E  
                                             l4733 1716                                               l4725 16EE  
                                             l4717 16C0                                               l4663 1432  
                                             l4655 13E2                                               l4647 1392  
                                             l4639 1372                                               l4591 1196  
                                             l4583 1146                                               l4575 1126  
                                             l4567 10B2                                               l4495 255E  
                                             l4487 254A                                               l4479 248E  
                                             l4559 2CE6                                               l4671 258E  
                                             l4743 1766                                               l4735 1732  
                                             l4751 1798                                               l4727 16FC  
                                             l4719 16C4                                               l4657 13F6  
                                             l4649 13A6                                               l4593 11AA  
                                             l4585 115A                                               l4577 112A  
                                             l4569 10C4                                               l4497 2564  
                                             l4489 254C                                               l4681 25D8  
                                             l4673 2590                                               l4761 17EC  
                                             l4745 1776                                               l4753 17BE  
                                             l4737 1736                                               l4729 16FE  
                                             l4499 1F2A                                               l4659 140A  
                                             l4595 11BE                                               l4587 116E  
                                             l4579 112E                                               l4691 2612  
                                             l4683 25EE                                               l4675 25A0  
                                             l4763 17F4                                               l4747 1786  
                                             l4739 1744                                               l4597 11D2  
                                             l4589 1182                                               l4693 262A  
                                             l4685 25F2                                               l4677 25A2  
                                             l4669 2580                                               l4781 18AC  
                                             l4765 1804                                               l4757 17D4  
                                             l4773 182C                                               l4599 11E6  
                                             l4695 2640                                               l4687 2602  
                                             l4679 25C0                                               l4791 18CC  
                                             l4783 18AE                                               l4767 1818  
                                             l4759 17E4                                               l4775 187C  
                                             l4697 2644                                               l4689 2606  
                                             l4785 18B4                                               l4777 188C  
                                             l4769 1824                                               l4699 2654  
                                             l4787 18C4                                               l4779 18A6  
                                             l4795 18D4                                               STR_1 107F  
                                             STR_2 109C                                               STR_3 1042  
                                             STR_4 1061                                               STR_5 1022  
                                             STR_6 1001                       ?_RXB0DefaultInterruptHandler 0001  
                                             u2110 2D8A                                               u2111 2D86  
                                             u2200 1E34                                               u2120 272A  
                                             u2201 1E30                                               u2121 2726  
                                             u2210 1E5E                                               u2130 273C  
                                             u2211 1E5A                                               u2131 2738  
                                             u2220 1E9E                                               u2140 2764  
                                             u2300 2676                                               u2221 1E9A  
                                             u2141 2760                                               u2301 2672  
                                             _LATA 000F89                                               u2230 1EE8  
                                             u2150 279A                                               u2310 269A  
                                             _LATB 000F8A                                               u2231 1EE4  
                                             u2151 2796                                               u2311 2696  
                                             _LATC 000F8B                                               u2240 20B4  
                                             u2160 29D6                                               u2320 26F2  
                                             u2400 146E                                               u2241 20B0  
                                             u2161 29D2                                               u2321 26EE  
                                             u2170 1DB4                                               u2250 20E6  
                                             u2330 2700                                               u2410 1480  
                                             u2171 1DB0                                               u2251 20E2  
                                             u2331 26FC                                               u2411 147C  
                                             u2500 226C                                               u2180 1DE6  
                                             u2260 2124                                               u2340 2A80  
                                             u2420 14BA                                               u2501 2268  
                                             u2181 1DE2                                               u2261 2120  
                                             u2341 2A7C                                               u2421 14B6  
                                             u2350 2B46                                               u2510 231C  
                                             u2270 214E                                               u2430 14E6  
                                             u2351 2B40                                               u2511 2318  
                                             u2191 1E10                                               u2271 214A  
                                             u2431 14E2                                               u2600 24A6  
                                             u2360 2B48                                               u2520 232E  
                                             u2280 217C                                               u2440 14FC  
                                             u2601 24A2                                               u2521 232A  
                                             u2281 2178                                               u2441 14F8  
                                             u2610 257C                                               u2370 29F2  
                                             u2290 21C4                                               u2450 163C  
                                             u2530 1B96                                               u2611 2578  
                                             u2371 29EE                                               u2291 21C0  
                                             u2451 1638                                               u2531 1B92  
                                             u2620 1F3E                                               u2380 2A14  
                                             u2460 165A                                               u2540 1BDA  
                                             u2700 25EE                                               u2621 1F3A  
                                             u2381 2A10                                               u2461 1656  
                                             u2541 1BD6                                               u2701 25EA  
                                             u2470 1674                                               u2390 146C  
                                             u2550 1C1E                                               u2710 262A  
                                             u2471 1670                                               u2391 1466  
                                             u2551 1C1A                                               u2711 2626  
                                             u2480 1684                                               u2560 1C94  
                                             u2720 2640                                               u2800 188C  
                                             u2481 1680                                               u2561 1C90  
                                             u2721 263C                                               u2801 1888  
                                             u2650 2AD0                                               u2490 223C  
                                             u2570 1CC0                                               u2810 18C4  
                                             u2730 1732                                               u2635 1FCA  
                                             u2651 2ACC                                               u2491 2238  
                                             u2571 1CBC                                               u2811 18C0  
                                             u2731 172E                                               u2660 10D4  
                                             u2580 1CDC                                               u2740 1766  
                                             u2645 206E                                               u2661 10D0  
                                             u2581 1CD8                                               u2741 1762  
                                             u2670 11FA                                               u2590 293A  
                                             u2750 1776                                               u2671 11F6  
                                             u2591 2936                                               u2751 1772  
                                             u2680 1320                                               u2760 17D0  
                                             u2681 131C                                               u2761 17CC  
                                             u2690 25D8                                               u2770 17E4  
                                             u2691 25D4                                               u2827 1898  
                                             u2771 17E0                                               u2780 1804  
                                             u2781 1800                                               u2790 1814  
                                             u2791 1810                                               i2l62 0046  
                                             i2l65 0078                                               i2l74 00E4  
                                             i2l67 009C                                               i2l68 00E4  
                                             i2l69 00C0                                               _TMR2 000FCC  
                                             _WPUB 000F5B                                      _EUSART1_Write 2D78  
                                    _compteurTTCAN 00DF                                               abs@a 0072  
                                             _dbuf 0100                                               _clef 00E2  
                                             _atoi 2206                                               _main 16BC  
                                             _dtoa 143A                       convertCANid2Reg@passedInEIDH 0065  
                     convertCANid2Reg@passedInEIDL 0067                                               _prec 00D7  
                                             pad@i 0079                                               pad@p 0076  
                                             fsr1h 000FE2                                               fsr2h 000FDA  
                                             indf2 000FDF                                               fsr1l 000FE1  
                                             pad@w 007B                                               fsr2l 000FD9  
                                             btemp 0048                       convertCANid2Reg@passedInSIDH 0069  
                     convertCANid2Reg@passedInSIDL 006B                                               prodh 000FF4  
                                             prodl 000FF3                                               start 0100  
                       ??_TMR1_SetInterruptHandler 0062                                       ___param_bank 000000  
                                  ?_receptionTTCAN 0001                                              ??_abs 0074  
                                            ??_pad 0078                            __end_of_TMR0_Initialize 2D1C  
                   ??_TMR0_DefaultInterruptHandler 0001                      __end_of_OSCILLATOR_Initialize 2DE0  
                                  __end_of___aodiv 1F2A                                              ?_atoi 0066  
                                            ?_main 0001                                              ?_dtoa 007D  
                                  __end_of___aomod 2206                                              _T0CON 000FD5  
                                            _T1CON 000FCD                                              _T2CON 000FCA  
                                  _TMR0_WriteTimer 2E5C                                              i2l440 2E74  
                                            i2l513 2D58                                              i2l507 2D76  
                                            i2l437 2E76                                              i2l605 2DB8  
                                            i2l615 2E70                                              i2l473 1B70  
                                            i2l609 2BA8                                              i2l466 1A4A  
                                            i2l650 2E62                                              i2l644 2E6A  
                                            i2l493 248C                                              i2l663 2C04  
                                            i2l496 2824                                              i2l593 2CD0  
                                            i2l825 2DCC                                              i2l835 2890  
                                            i2l659 2BD6                                              i2l596 2DFA  
                                            i2l828 2E52                                              i2l669 2E72  
                                            i2l838 2E5A                                              i2l882 2C58  
                                            i2l892 2E6E                                              i2l886 2B7A  
                                     vfpfcnvrt@fmt 00A2                                              _TMR0H 000FD7  
                                            _TMR1H 000FCF                                              _TMR0L 000FD6  
                                            _TMR1L 000FCE                                              _TRISA 000F92  
                                            _TRISB 000F93                                              _TRISC 000F94  
                        ?_TMR0_SetInterruptHandler 0060                              CAN_receive@tempCanMsg 0014  
                                 __end_of_TMR0_ISR 2BD8                                   __end_of_TMR1_ISR 2DBA  
                                 __end_of_TMR2_ISR 2C5A                                              _actif 2DBA  
                             __end_of_CAN_transmit 143A                                              _flags 00E1  
                                            _fputc 2716                                              _fputs 2990  
                                  __end_of_isdigit 2B4E                                              atoi@n 006D  
                                            pad@fp 0072                                              atoi@s 0066  
                                            _width 00D5                                              _putch 2DE0  
                                            dtoa@d 007F                                              dtoa@i 009E  
                                            dtoa@n 0095                                              dtoa@p 0091  
                                            dtoa@s 009D                                              dtoa@w 0093  
                                  __end_of_isspace 2A20                                     ?_EUSART1_Write 0001  
                          __end_of_TMR1_Initialize 2B20                                              pclath 000FFA  
                                            pclatu 000FFB                                              tablat 000FF5  
                                            plusw1 000FE3                                              plusw2 000FDB  
                    ??_RXB0DefaultInterruptHandler 0001                                              ttemp5 0049  
                                            ttemp6 004C                                              ttemp7 0050  
              convertReg2ExtendedCANid@ConvertedID 0010                                              status 000FD8  
                                ??_gestion_lumiere 0060                                              wtemp8 0049  
                             CAN_transmit@tempEIDH 0074                               CAN_transmit@tempEIDL 0075  
                             CAN_transmit@tempSIDH 0076                               CAN_transmit@tempSIDL 0077  
               _EUSART1_DefaultFramingErrorHandler 000000                                    _TMR1_WriteTimer 2CAA  
                                  __initialization 2946                                       __end_of_atoi 2354  
                       __end_of_EUSART1_Initialize 2A64                                       __end_of_main 1928  
                                     __end_of_dtoa 16BC                            __end_of_TMR2_Initialize 2D3C  
                      ?_INTERRUPT_InterruptManager 0001                                             ??_atoi 0068  
                         _TMR2_SetInterruptHandler 2DFC                                             ??_main 00C3  
                                           ??_dtoa 0087                                      __activetblptr 000002  
                  ??_WakeUpDefaultInterruptHandler 0001                                  ??_ECAN_Initialize 0062  
                                           ?_actif 0001                                             _ADCON0 000FC2  
                                           _ADCON1 000FC1                                             _ADCON2 000FC0  
                                           _CANCON 000F6F                                             ?_fputc 0062  
                                           ?_fputs 006B                                             _ADRESH 000FC4  
                                           _ADRESL 000FC3                                             _ANCON0 000F5D  
                                           _ANCON1 000F5C                                             _CIOCON 000F70  
                                           ?_putch 0001                                             _T1GCON 000FAA  
                          TMR1_WriteTimer@timerVal 0001                                             i2l2001 2E5E  
                                           i2l2141 2DC0                                             i2l2143 2DC2  
                                           i2l3201 27B0                                             i2l2145 2DC6  
                                           i2l2137 2DBA                                             i2l3203 27B0  
                                           i2l2139 2DBE                                             i2l2331 2BCE  
                                           i2l3205 27DA                                             i2l3301 19D4  
                                           i2l3221 2CC2                                             i2l3213 2CAA  
                                           i2l2333 2D3C                                             i2l2325 2BAA  
                                           i2l3207 2804                                             i2l3311 1A24  
                                           i2l3303 19E4                                             i2l3215 2CB8  
                                           i2l3223 2CC8                                             i2l2335 2D56  
                                           i2l2327 2BB0                                             i2l3209 2814  
                                           i2l3321 1A68                                             i2l3313 1A34  
                                           i2l3305 19F4                                             i2l3225 2CCC  
                                           i2l3217 2CBA                                             i2l2281 2BD8  
                                           i2l2329 2BCA                                             i2l3331 1AE8  
                                           i2l3323 1A74                                             i2l3315 1A44  
                                           i2l3307 1A04                                             i2l3219 2CBE  
                                           i2l2283 2BEA                                             i2l3181 236C  
                                           i2l3341 1B38                                             i2l3333 1AF8  
                                           i2l3325 1AA6                                             i2l3317 1A46  
                                           i2l3309 1A14                                             i2l3501 2826  
                                           i2l3191 241E                                             i2l3183 2374  
                                           i2l3343 1B48                                             i2l3335 1B08  
                                           i2l3327 1AB2                                             i2l3319 1A5A  
                                           i2l3511 286C                                             i2l3503 2832  
                                           i2l3193 2436                                             i2l3185 239E  
                                           i2l3177 2356                                             i2l3345 1B58  
                                           i2l3337 1B18                                             i2l3329 1AD8  
                                           i2l3505 2848                                             i2l3361 2E4C  
                                           i2l3513 2B4E                                             i2l3195 246C  
                                           i2l3187 23B6                                             i2l3179 2366  
                                           i2l3347 1B68                                             i2l3339 1B28  
                                           i2l3291 1950                                             i2l3283 1928  
                                           i2l3355 2DEE                                             i2l3507 284C  
                                           i2l3363 2E54                                             i2l3515 2B60  
                                           i2l3197 247C                                             i2l3189 23E8  
                                           i2l3293 1982                                             i2l3285 1928  
                                           i2l3509 285A                                             i2l3541 2C32  
                                           i2l3701 0022                                             i2l3295 198E  
                                           i2l3287 1936                                             i2l3535 2D5A  
                                           i2l3551 2DB4                                             i2l3543 2C4C  
                                           i2l3711 0070                                             i2l3703 0030  
                                           i2l3297 19B4                                             i2l3289 1944  
                                           i2l3537 2D74                                             i2l3545 2C50  
                                           i2l3721 00CE                                             i2l3713 0086  
                                           i2l3705 003E                                             i2l3299 19C4  
                                           i2l3491 2B7C                                             i2l3547 2DA6  
                                           i2l3539 2C30                                             i2l3723 00DC  
                                           i2l3715 0094                                             i2l3707 0054  
                                           i2l3493 2B8E                                             i2l3549 2DA8  
                                           i2l3717 00AA                                             i2l3709 0062  
                                           i2l3719 00B8                                             i2l1999 2E68  
                                           _RCREG1 000FAE                                             _RCSTA1 000FAB  
                                           _OSCCON 000FD3                                             _RXB0D0 000F66  
                                           _RXB0D1 000F67                                             _RXB0D2 000F68  
                                           _RXB0D3 000F69                                             _RXB1D0 000F36  
                                           _RXB0D4 000F6A                                             _RXB1D1 000F37  
                                           _RXB0D5 000F6B                                             _RXB1D2 000F38  
                                           _RXB0D6 000F6C                                             _RXB1D3 000F39  
                                           _RXB0D7 000F6D                                             _RXB1D4 000F3A  
                                           _RXB1D5 000F3B                                         _Lux_INT_Rx 00C7  
                                           _RXB1D6 000F3C                                             _RXB1D7 000F3D  
                                       _Lux_INT_Tx 00E3                                             _SPBRG1 000FAF  
                                           _TXB0D0 000F26                                             _TXB0D1 000F27  
                                           _TXB0D2 000F28                                             _TXB0D3 000F29  
                                           _TXB1D0 000F16                                             _TXB0D4 000F2A  
                                           _TXB1D1 000F17                                             _TXB0D5 000F2B  
                                           _TXB1D2 000F18                                             _TXB0D6 000F2C  
                                           _TXB1D3 000F19                                             _TXB0D7 000F2D  
                                           _TXB2D0 000F06                                             _TXB1D4 000F1A  
                                           _TXB2D1 000F07                                             _TXB1D5 000F1B  
                                           _TXB2D2 000F08                                             _TXB1D6 000F1C  
                                           _TXB2D3 000F09                                             _TXB1D7 000F1D  
                                           _TXB2D4 000F0A                                             _TXB2D5 000F0B  
                                           _TXB2D6 000F0C                                             _TXB2D7 000F0D  
                                           _TXREG1 000FAD                                             _TXSTA1 000FAC  
             __end_of_TMR1_DefaultInterruptHandler 2E72                       _TMR1_DefaultInterruptHandler 2E70  
                                     vfprintf@cfmt 00B9                                       ?_TMR1_Reload 0001  
                                        ??___aodiv 0070                                          ??___aomod 0070  
                                           ___wmul 2C82                            __end_of_TMR0_WriteTimer 2E64  
                                ?_gestion_compteur 0001                           ?_EUSART1_SetErrorHandler 0060  
                                 ?_TMR0_Initialize 0001                                             clear_0 2964  
                                           clear_1 2970                                             clear_2 297C  
                                           isa$std 000001                                 ??_gestion_compteur 0001  
                                           _printf 2C5A                                             pad@buf 0074  
                 ??_EUSART1_SetOverrunErrorHandler 0062                    ?_EUSART1_SetOverrunErrorHandler 0060  
                                           dtoa@fp 007D               __end_of_ECAN_SetRXB0InterruptHandler 2E4C  
                     _ECAN_SetRXB0InterruptHandler 2E42                                             fputc@c 0062  
                                           fputs@c 006F                                             fputs@i 0070  
                                           fputs@s 006B                                          ??_isdigit 0062  
                                     __mediumconst 0000                                          ??_isspace 0062  
                 __end_of_convertReg2StandardCANid 2826                                             tblptrh 000FF7  
                                           tblptrl 000FF6                                             tblptru 000FF8  
                         ADC_GetConversion@channel 0064                              __end_of_TMR0_CallBack 2C06  
                                 __end_of_vfprintf 2946                                    ??_EUSART1_Write 0060  
         TMR2_SetInterruptHandler@InterruptHandler 0060           TMR0_SetInterruptHandler@InterruptHandler 0060  
         TMR1_SetInterruptHandler@InterruptHandler 0060                            __end_of_TMR1_WriteTimer 2CD2  
                            __end_of_TMR1_CallBack 2BAA                ECAN_SetRXB0InterruptHandler@handler 0060  
                                 ?_TMR1_Initialize 0001                                  _SYSTEM_Initialize 2CD2  
                                       __accesstop 0060                            __end_of__initialization 2982  
                            __end_of_TMR2_CallBack 2B7C                                 ?_SYSTEM_Initialize 0001  
                         _convertReg2ExtendedCANid 2354                                      ___rparam_used 000001  
                                   __pcstackCOMRAM 0001                                       __pidataBANK0 2E6C  
                              ??_SYSTEM_Initialize 0064                                      __end_of_actif 2DCE  
                                        ?_TMR0_ISR 0001                                          ?_TMR1_ISR 0001  
                                        ?_TMR2_ISR 0001                    fp__TMR1_DefaultInterruptHandler 0000  
                    ?_TMR1_DefaultInterruptHandler 0001                                      __end_of_fputc 27AE  
                                    __end_of_fputs 29D8                                      __end_of_putch 2DEE  
                                 ?_TMR2_Initialize 0001                              TMR0_ISR@CountCallBack 003E  
                    ?_ECAN_SetRXB0InterruptHandler 0060                                      _ECAN_WAKI_ISR 2D3C  
                                          ??_actif 0002              convertReg2StandardCANid@tempRXBn_SIDH 0007  
            convertReg2StandardCANid@tempRXBn_SIDL 0001                                            ??_fputc 0066  
                        __end_of_SYSTEM_Initialize 2CF8                                            ??_fputs 006F  
                                          ??_putch 0061                                         __pbssBANK0 00C7  
                                       __pbssBANK1 0100              __end_of_WakeUpDefaultInterruptHandler 2E76  
                    _WakeUpDefaultInterruptHandler 2E74                               _RXB0InterruptHandler 0044  
                                       __pnvCOMRAM 002B                                         _activation 0046  
                                 ??_receptionTTCAN 0016                    __end_of_EUSART1_SetErrorHandler 2E38  
                 __end_of_TMR0_SetInterruptHandler 2E1A                                       _CAN_transmit 10B2  
                                          ?___wmul 0060                                         ??_TMR0_ISR 0002  
                                       ??_TMR1_ISR 0003                                         ??_TMR2_ISR 0001  
                                 ?_TMR0_WriteTimer 0001                                            _ECANCON 000F72  
                                          _CANSTAT 000F6E                   ??_ECAN_SetWakeUpInterruptHandler 0062  
                  ?_ECAN_SetWakeUpInterruptHandler 0060                                            ?_printf 00BB  
                                          _BRGCON1 000E43                                            _BRGCON2 000E44  
                                          _BRGCON3 000E45             __end_of_EUSART1_SetFramingErrorHandler 2E2E  
                   _EUSART1_SetFramingErrorHandler 2E24                                            _REFOCON 000F9A  
                                  _gestion_lumiere 2892                                            _OSCCON2 000FD2  
                                   ?_ECAN_WAKI_ISR 0001                                            _RXB0DLC 000F65  
                                          _RXB1DLC 000F35                                            _RXB0CON 000F60  
                                          _OSCTUNE 000F9B                                            i2u72_40 2BCA  
                                          i2u72_41 2BC6                                            i2u65_40 2BEA  
                                          i2u65_41 2BE6                                            i2u73_48 2D42  
                                          i2u73_49 2D56                                            i2u66_48 2BF0  
                                          i2u66_49 2C04                                            _SPBRGH1 000F7D  
                                          _TXB0DLC 000F25                                            _TXB1DLC 000F15  
                                          _TXB2DLC 000F05                                   ?_TMR1_WriteTimer 0001  
                                       _compteurTT 2E54                               _ADC_InterruptHandler 0040  
                                          __Hparam 0000                                            __Lparam 0000  
                       ??_TMR2_SetInterruptHandler 0062                          ?_convertReg2StandardCANid 0001  
                                          ___aodiv 1DA0                                            ___aomod 20A0  
                                  _ECAN_Initialize 248E                                          ?_vfprintf 00B3  
                                       _erreur_adc 257E                                       __psmallconst 1000  
                                          _delay2S 00F1                                            __pcinit 2946  
                                          __ramtop 1000                                            __ptext0 16BC  
                                          __ptext1 2892                                            __ptext2 257E  
                                          __ptext3 2C5A                                            __ptext4 28F4  
                                          __ptext5 1B72                                            __ptext6 143A  
                                          __ptext7 2666                                            __ptext8 2990  
                                          __ptext9 2716                                          _T0CONbits 000FD5  
                   ??_TMR1_DefaultInterruptHandler 0001                                          _T1CONbits 000FCD  
                            _OSCILLATOR_Initialize 2DCE                                          _T2CONbits 000FCA  
                                          _isdigit 2B20                                 _EUSART1_Initialize 2A20  
                                 _convertCANid2Reg 1F2A                           ??_PIN_MANAGER_Initialize 0060  
                                          _isspace 29D8                          ?_TMR1_SetInterruptHandler 0060  
                                          atoi@neg 006B                               end_of_initialization 2982  
                           _WakeUpInterruptHandler 0042                                ?_EUSART1_Initialize 0001  
                                          fputc@fp 0064                                      __Lmediumconst 0000  
                      _EUSART1_OverrunErrorHandler 0035                                            fputs@fp 006D  
                                    ??_CAN_receive 0016                   fp__WakeUpDefaultInterruptHandler 0000  
                   ?_WakeUpDefaultInterruptHandler 0001                                  __end_of_vfpfcnvrt 1DA0  
                                          postdec2 000FDD                                            postinc0 000FEE  
                                          postinc1 000FE6                                            postinc2 000FDE  
                                 vfpfcnvrt@convarg 00A9                                         ??_vfprintf 00B9  
                             ??_EUSART1_Initialize 0062                            __end_of_gestion_lumiere 28F4  
                         _TMR0_SetInterruptHandler 2E10                                    ??_ECAN_WAKI_ISR 0001  
                           CAN_transmit@tempCanMsg 0072                         ??_convertReg2ExtendedCANid 0005  
                              EUSART1_Write@txData 0060                __end_of_RXB0DefaultInterruptHandler 2E78  
                      _RXB0DefaultInterruptHandler 2E76                                        ?_compteurTT 0001  
                          __end_of_ECAN_Initialize 257E                                     _TMR0_StopTimer 2E68  
                     __end_of_INTERRUPT_Initialize 2E68                                __end_of_CAN_receive 1B72  
             __end_of_TMR2_DefaultInterruptHandler 2E70                       _TMR2_DefaultInterruptHandler 2E6E  
                                      ?_erreur_adc 0001                                        vfpfcnvrt@ap 00A4  
                                      vfpfcnvrt@cp 00B1                                        vfpfcnvrt@fp 00A0  
                                   __end_of___wmul 2CAA                                     _ADC_Initialize 2D90  
                           ?_OSCILLATOR_Initialize 0001                                     __end_of_printf 2C82  
                              start_initialization 2946                                        __end_of_abs 2AA6  
                                      __end_of_pad 2716                                        putch@txData 0061  
                            __end_of_EUSART1_Write 2D90                convertReg2StandardCANid@returnValue 0008  
                           __end_of_TMR0_StopTimer 2E6C                                        vfprintf@fmt 00B5  
                                         ??___wmul 0064                                     _ECAN_RXB0I_ISR 2D5A  
                           __end_of_ADC_Initialize 2DA6                                        __pdataBANK0 00F1  
                  fp__TMR2_DefaultInterruptHandler 0000                      ?_TMR2_DefaultInterruptHandler 0001  
                                 ?_gestion_lumiere 0001                                           ??_printf 00C1  
                                      __pbssCOMRAM 003A                                      __pcstackBANK0 0060  
                                 ___aodiv@dividend 0060             __end_of_ECAN_SetWakeUpInterruptHandler 2E42  
                   _ECAN_SetWakeUpInterruptHandler 2E38                   ??_EUSART1_SetFramingErrorHandler 0062  
                  ?_EUSART1_SetFramingErrorHandler 0060                              _TMR0_InterruptHandler 002D  
                                      _CAN_receive 1928                                   ?_ECAN_Initialize 0001  
                                  ?_TMR0_StopTimer 0001                             _PIN_MANAGER_Initialize 2C06  
                           __end_of_ECAN_RXB0I_ISR 2D78                           __end_of_convertCANid2Reg 20A0  
                                        _dtoa$2665 008F                                          __pintcode 0008  
                 __end_of_TMR1_SetInterruptHandler 2E10                                           ?___aodiv 0060  
                                         ?___aomod 0060                                   ___aodiv@quotient 0072  
                                  ?_ADC_Initialize 0001                       ??_INTERRUPT_InterruptManager 0025  
                                      __smallconst 1000                                           _BAUDCON1 000FA7  
                                      _COMSTATbits 000F71                 _EUSART1_DefaultOverrunErrorHandler 000000  
                                         ?_isdigit 0060                               _EUSART1_ErrorHandler 0033  
                                         ?_isspace 0060                   __end_of_convertReg2ExtendedCANid 248E  
                          _EUSART1_SetErrorHandler 2E2E                     convertCANid2Reg@tempPassedInID 0060  
                                 _gestion_compteur 2E4C                                      _TMR0_CallBack 2BD8  
                             _INTERRUPT_Initialize 2E64                                      _lum_precedant 003C  
                                    _TMR1_CallBack 2B7C                                  ??_TMR0_Initialize 0062  
                                   ___wmul@product 0064                                           _LATAbits 000F89  
          EUSART1_SetErrorHandler@interruptHandler 0060                                      _TMR2_CallBack 2B4E  
                                         _PIE1bits 000F9D                                           _PIE5bits 000F76  
                                         i2u200_40 00CE                                           i2u200_41 00CA  
                                         i2u201_40 00DC                                           i2u201_41 00D8  
                                         i2u155_45 23C8                                           i2u164_40 1936  
                                         i2u180_40 2B60                                           i2u164_41 1932  
                                         i2u180_41 2B5C                                           i2u156_45 27E2  
                                         i2u165_40 1944                                           i2u157_40 2CB8  
                       ??_TMR0_SetInterruptHandler 0062                                           i2u165_41 1940  
                                         i2u157_41 2CB4                                           i2u166_40 1A5A  
                                         i2u181_48 2B66                                           i2u166_41 1A56  
                                         i2u181_49 2B7A                                           i2u167_40 1A68  
                                         i2u182_48 2D60                                           i2u175_40 2B8E  
                                         i2u183_40 2C4C                                           i2u191_40 0030  
                                         i2u167_41 1A64                                           i2u182_49 2D74  
                                         i2u175_41 2B8A                                           i2u183_41 2C48  
                                         i2u191_41 002C                                           i2u192_40 003E  
                                         i2u192_41 003A                                           i2u177_40 2848  
                                         i2u176_48 2B94                                           i2u193_40 0054  
                                         i2u177_41 2844                                           i2u176_49 2BA8  
                                         i2u193_41 0050                                           _PIR1bits 000F9E  
                                         i2u194_40 0062                                           i2u178_41 2864  
                                         i2u194_41 005E                                           i2u179_40 287C  
                                         i2u195_40 0070                                           i2u179_41 2876  
                                         i2u195_41 006C                                    ?_ECAN_RXB0I_ISR 0001  
                                         i2u179_46 287E                                           i2u196_40 0086  
                                         i2u196_41 0082                                           i2u197_40 0094  
                                         i2u197_41 0090                                           i2u198_40 00AA  
                                         i2u198_41 00A6                                           i2u199_40 00B8  
                                         i2u199_41 00B4                                           _PIR5bits 000F77  
                                         _RXB0EIDH 000F63                                           _RXB0EIDL 000F64  
                                         _RXB1EIDH 000F33                                           _RXB1EIDL 000F34  
                                         _RCONbits 000FD0                                      ??_TMR1_Reload 0003  
                                         _RXB0SIDH 000F61                                           _RXB0SIDL 000F62  
                                         _RXF0EIDH 000EE2                                           _RXB1SIDH 000F31  
                                         _RXF0EIDL 000EE3                                           _RXB1SIDL 000F32  
                                         _RXF1EIDH 000EE6                                           _RXF1EIDL 000EE7  
                                         _RXF2EIDH 000EEA                                           _RXF2EIDL 000EEB  
                                         _RXF3EIDH 000EEE                                           _RXF3EIDL 000EEF  
                                         _RXF4EIDH 000EF2                                           _RXF4EIDL 000EF3  
                                         _RXF5EIDH 000EF6                                           _RXF5EIDL 000EF7  
                                         _RXF0SIDH 000EE0                                           _RXF0SIDL 000EE1  
                                         _RXF1SIDH 000EE4                                           _TXB0EIDH 000F23  
                                         _TXB0EIDL 000F24                                           _RXF1SIDL 000EE5  
                                         _RXF2SIDH 000EE8                                           _TXB1EIDH 000F13  
                                         _TXB1EIDL 000F14                                           _RXF2SIDL 000EE9  
                                         _RXF3SIDH 000EEC                                           _TXB2EIDH 000F03  
                                         _TXB2EIDL 000F04                                           _RXF3SIDL 000EED  
                                         _RXF4SIDH 000EF0                                           _RXF4SIDL 000EF1  
                                         _TMR0_ISR 2BAA                                           _RXF5SIDH 000EF4  
                                         _RXF5SIDL 000EF5                                           _TMR1_ISR 2DA6  
                                         _TMR2_ISR 2C30                                           _RXM0EIDH 000EFA  
                                         _RXM0EIDL 000EFB                                           _RXM1EIDH 000EFE  
                                         _TXB0SIDH 000F21                                           _RXM1EIDL 000EFF  
                                         _TXB0SIDL 000F22                                           _TXB1SIDH 000F11  
                                         _TXB1SIDL 000F12                                           _TXB2SIDH 000F01  
                                         _TXB2SIDL 000F02                                           _RXM0SIDH 000EF8  
                                         _RXM0SIDL 000EF9                                           _RXM1SIDH 000EFC  
                                         _RXM1SIDL 000EFD                                          _vfpfcnvrt 1B72  
                   fp__RXB0DefaultInterruptHandler 0000                                  fp__receptionTTCAN 0000  
                                ??_TMR1_Initialize 0062                                         _ADCON0bits 000FC2  
                                ___wmul@multiplier 0060                         receptionTTCAN@Message_recu 0017  
                   ??_TMR2_DefaultInterruptHandler 0001                          ?_TMR2_SetInterruptHandler 0060  
                                     _isspace$2714 0064                                     ?_TMR0_CallBack 0001  
                                      _INTCON2bits 000FF1                              ?_INTERRUPT_Initialize 0001  
                                   ?_TMR1_CallBack 0001                                       ??_compteurTT 0001  
                                ??_TMR2_Initialize 0062                                     ?_TMR2_CallBack 0001  
                         _convertReg2StandardCANid 27AE              convertReg2ExtendedCANid@tempRXBn_EIDH 0009  
            convertReg2ExtendedCANid@tempRXBn_EIDL 0001              convertReg2ExtendedCANid@tempRXBn_SIDH 0002  
            convertReg2ExtendedCANid@tempRXBn_SIDL 0003                                           __Hrparam 0000  
                                       vfprintf@ap 00B7                                           __Lrparam 0000  
                                       vfprintf@fp 00B3                                  _ADC_GetConversion 2AA6  
                        convertCANid2Reg@canIdType 0064                            ??_OSCILLATOR_Initialize 0060  
                               ?_ADC_GetConversion 0060                                       ??_erreur_adc 00C3  
                                       ?_vfpfcnvrt 00A0                                    ___aodiv@divisor 0068  
                         _TMR1_SetInterruptHandler 2E06  convertReg2ExtendedCANid@CAN_standardLo_ID_hi3bits 000F  
                                  ___aodiv@counter 0070                                __end_of_TMR1_Reload 2DFC  
                               __end_of_compteurTT 2E5C                              _TMR1_InterruptHandler 002F  
                        ??_EUSART1_SetErrorHandler 0062                        _EUSART1_DefaultErrorHandler 000000  
                              ??_ADC_GetConversion 0062  convertReg2ExtendedCANid@CAN_standardLo_ID_lo2bits 000E  
                          convertCANid2Reg@wipSIDL 0071                              __end_of_ECAN_WAKI_ISR 2D5A  
                                         __ptext10 2DE0                                           __ptext11 2D78  
                                         __ptext20 2CD2                                           __ptext12 2A64  
                                         __ptext21 2D1C                                           __ptext13 20A0  
                                       _T1GCONbits 000FAA                                           __ptext30 2A20  
                                         __ptext22 2DFC                                           __ptext14 1DA0  
                                         __ptext31 2E1A                                           __ptext23 2AE6  
                                         __ptext15 2206                                           __ptext32 2E24  
                                         __ptext24 2E06                                           __ptext16 29D8  
                                         __ptext41 2C30                                           __ptext33 2E2E  
                                         __ptext25 2CF8                                           __ptext17 2B20  
                                         __ptext50 2BD8                                           __ptext42 2B4E  
                                         __ptext34 248E                                           __ptext26 2E10  
                                         __ptext18 2C82                                           __ptext51 2E72  
                                         __ptext43 2E6E                                           __ptext35 2E38  
                                         __ptext27 2C06                                           __ptext19 2AA6  
                                         __ptext60 2DEE                                           __ptext52 2DBA  
                                         __ptext44 2E4C                                           __ptext36 2E42  
                                         __ptext28 2DCE                                           __ptext61 2CAA  
                                         __ptext53 2E5C                                           __ptext45 2DA6  
                                         __ptext37 2D90                                           __ptext29 2E64  
                                         __ptext62 1928                                           __ptext54 2E68  
                                         __ptext46 2B7C                                           __ptext38 10B2  
                                         __ptext63 27AE                                           __ptext55 2D3C  
                                         __ptext47 2E70                                           __ptext39 1F2A  
                                         __ptext64 2354                                           __ptext56 2E74  
                                         __ptext48 2E54                                           __ptext65 0000  
                                         __ptext57 2D5A                                           __ptext49 2BAA  
                                         __ptext58 2E76                                           __ptext59 2826  
                          TMR0_WriteTimer@timerVal 0001                                           _compteur 00D9  
                                ??_TMR0_WriteTimer 0001                convertReg2StandardCANid@ConvertedID 000C  
                   ??_ECAN_SetRXB0InterruptHandler 0062                                           _erreur_0 00DD  
                                         _erreur_1 00DB                                 __end_of_erreur_adc 2666  
             __end_of_TMR0_DefaultInterruptHandler 2E74                       _TMR0_DefaultInterruptHandler 2E72  
              convertReg2ExtendedCANid@returnValue 000A                          __end_of_ADC_GetConversion 2AE6  
   EUSART1_SetOverrunErrorHandler@interruptHandler 0060                                           isa$xinst 000000  
                        ?_convertReg2ExtendedCANid 0001                                      ?_CAN_transmit 0072  
                                         fp__actif 0000                                           int$flags 0048  
                                         _vfprintf 28F4                 __end_of_INTERRUPT_InterruptManager 0100  
                       _INTERRUPT_InterruptManager 0008                                          printf@fmt 00BB  
                                ??_TMR1_WriteTimer 0003                        _EUSART1_FramingErrorHandler 0037  
                                 ___aomod@dividend 0060                                        _RXB0CONbits 000F60  
                                      _RXB1CONbits 000F30                                         _INTCONbits 000FF2  
                                  ??_TMR0_CallBack 0002                                           isdigit@c 0060  
                           ??_INTERRUPT_Initialize 0060                                    ??_TMR1_CallBack 0001  
                                         intlevel2 0000                                   ??_TMR0_StopTimer 0001  
                                  ??_TMR2_CallBack 0001                                fp__gestion_compteur 0000  
                                         isspace@c 0060                            ?_PIN_MANAGER_Initialize 0001  
           __end_of_EUSART1_SetOverrunErrorHandler 2E24                     _EUSART1_SetOverrunErrorHandler 2E1A  
                                      _TXB0CONbits 000F20                                         _RCSTA1bits 000FAB  
                                     ?_CAN_receive 0014                                        _TXB1CONbits 000F10  
                                      _TXB2CONbits 000F00                                   ??_ADC_Initialize 0060  
                  fp__TMR0_DefaultInterruptHandler 0000                      ?_TMR0_DefaultInterruptHandler 0001  
                                   ??_CAN_transmit 0074                                  ?_convertCANid2Reg 0060  
                                      _TMR1_Reload 2DEE                                           printf@ap 00C1  
                         __end_of_gestion_compteur 2E54     EUSART1_SetFramingErrorHandler@interruptHandler 0060  
                               ??_convertCANid2Reg 006D                                    ___aomod@divisor 0068  
                                      ??_vfpfcnvrt 00A6                                    ___aomod@counter 0070  
                                   _receptionTTCAN 2826                                 _eusart1RxLastError 0047  
                            TMR2_ISR@CountCallBack 003A                                    _TMR0_Initialize 2CF8  
                                     _porte_UnLock 00F2                                       ___aodiv@sign 0071  
                   __end_of_PIN_MANAGER_Initialize 2C30                                   ??_ECAN_RXB0I_ISR 0025  
                            _TMR2_InterruptHandler 002B                                       ___aomod@sign 0071  
                                    fp__compteurTT 0000                                    _TMR1_Initialize 2AE6  
