

Microchip MPLAB XC8 Assembler V2.40 build 20220703182018 
                                                                                               Tue Oct 11 20:18:56 2022

Microchip MPLAB XC8 C Compiler v2.40 (Free license) build 20220703182018 Og1 
     1                           	processor	18F25K80
     2                           	fnconf	rparam,??,?,0
     3                           	pagewidth 120
     4                           	opt	flic
     5                           	psect	nvCOMRAM,global,class=COMRAM,space=1,delta=1,lowdata,noexec
     6                           	psect	nvBANK0,global,class=BANK0,space=1,delta=1,lowdata,noexec
     7                           	psect	cinit,global,reloc=2,class=CODE,delta=1
     8                           	psect	bssCOMRAM,global,class=COMRAM,space=1,delta=1,lowdata,noexec
     9                           	psect	bssBANK0,global,class=BANK0,space=1,delta=1,lowdata,noexec
    10                           	psect	cstackBANK0,global,class=BANK0,space=1,delta=1,lowdata,noexec
    11                           	psect	cstackCOMRAM,global,class=COMRAM,space=1,delta=1,lowdata,noexec
    12                           	psect	text0,global,reloc=2,class=CODE,delta=1
    13                           	psect	text1,global,reloc=2,class=CODE,delta=1
    14                           	psect	text2,global,reloc=2,class=CODE,delta=1
    15                           	psect	text3,global,reloc=2,class=CODE,delta=1
    16                           	psect	text4,global,reloc=2,class=CODE,delta=1
    17                           	psect	text5,global,reloc=2,class=CODE,delta=1
    18                           	psect	text6,global,reloc=2,class=CODE,delta=1
    19                           	psect	text7,global,reloc=2,class=CODE,delta=1
    20                           	psect	text8,global,reloc=2,class=CODE,delta=1
    21                           	psect	text9,global,reloc=2,class=CODE,delta=1
    22                           	psect	text10,global,reloc=2,class=CODE,delta=1
    23                           	psect	text11,global,reloc=2,class=CODE,delta=1
    24                           	psect	text12,global,reloc=2,class=CODE,delta=1
    25                           	psect	text13,global,reloc=2,class=CODE,delta=1
    26                           	psect	text14,global,reloc=2,class=CODE,delta=1
    27                           	psect	text15,global,reloc=2,class=CODE,delta=1
    28                           	psect	text16,global,reloc=2,class=CODE,delta=1
    29                           	psect	text17,global,reloc=2,class=CODE,delta=1
    30                           	psect	intcode,global,reloc=2,class=CODE,delta=1
    31                           	psect	text19,global,reloc=2,class=CODE,delta=1
    32                           	psect	text20,global,reloc=2,class=CODE,delta=1
    33                           	psect	text21,global,reloc=2,class=CODE,delta=1
    34                           	psect	text22,global,reloc=2,class=CODE,delta=1
    35                           	psect	text23,global,reloc=2,class=CODE,delta=1
    36                           	psect	text24,global,reloc=2,class=CODE,delta=1
    37                           	psect	text25,global,reloc=2,class=CODE,delta=1
    38                           	psect	text26,global,reloc=2,class=CODE,delta=1
    39                           	psect	text27,global,reloc=2,class=CODE,delta=1
    40                           	psect	text28,global,reloc=2,class=CODE,delta=1
    41                           	psect	text29,global,reloc=2,class=CODE,delta=1
    42                           	psect	text30,global,reloc=2,class=CODE,delta=1
    43                           	psect	text31,global,reloc=2,class=CODE,delta=1
    44                           	psect	text32,global,reloc=2,class=CODE,delta=1
    45                           	psect	text33,global,reloc=2,class=CODE,delta=1
    46                           	psect	text34,global,reloc=2,class=CODE,delta=1
    47                           	psect	intsave_regs,global,class=BIGRAM,space=1,delta=1,noexec
    48                           	psect	text35,global,reloc=2,class=CODE,delta=1
    49                           	psect	rparam,global,class=COMRAM,space=1,delta=1,noexec
    50                           	psect	temp,global,ovrld,common,class=COMRAM,space=1,delta=1
    51                           	psect	idloc,global,abs,ovrld,class=IDLOC,space=5,delta=1,noexec
    52                           	psect	config,global,abs,ovrld,class=CONFIG,space=4,delta=1,noexec
    53   000000                     
    54                           ; Version 2.35
    55                           ; Generated 05/05/2021 GMT
    56                           ; 
    57                           ; Copyright © 2021, Microchip Technology Inc. and its subsidiaries ("Microchip")
    58                           ; All rights reserved.
    59                           ; 
    60                           ; This software is developed by Microchip Technology Inc. and its subsidiaries ("Microch
      +                          ip").
    61                           ; 
    62                           ; Redistribution and use in source and binary forms, with or without modification, are
    63                           ; permitted provided that the following conditions are met:
    64                           ; 
    65                           ;     1. Redistributions of source code must retain the above copyright notice, this lis
      +                          t of
    66                           ;        conditions and the following disclaimer.
    67                           ; 
    68                           ;     2. Redistributions in binary form must reproduce the above copyright notice, this 
      +                          list
    69                           ;        of conditions and the following disclaimer in the documentation and/or other
    70                           ;        materials provided with the distribution. Publication is not required when
    71                           ;        this file is used in an embedded application.
    72                           ; 
    73                           ;     3. Microchip's name may not be used to endorse or promote products derived from th
      +                          is
    74                           ;        software without specific prior written permission.
    75                           ; 
    76                           ; THIS SOFTWARE IS PROVIDED BY MICROCHIP "AS IS" AND ANY EXPRESS OR IMPLIED WARRANTIES,
    77                           ; INCLUDING, BUT NOT LIMITED TO, THE IMPLIED WARRANTIES OF MERCHANTABILITY AND FITNESS F
      +                          OR
    78                           ; PURPOSE ARE DISCLAIMED.  IN NO EVENT SHALL MICROCHIP BE LIABLE FOR ANY DIRECT, INDIREC
      +                          T,
    79                           ; INCIDENTAL, SPECIAL, EXEMPLARY, OR CONSEQUENTIAL DAMAGES (INCLUDING BUT NOT LIMITED TO
    80                           ; PROCUREMENT OF SUBSTITUTE GOODS OR SERVICES; LOSS OF USE, DATA OR PROFITS; OR BUSINESS
    81                           ; INTERRUPTION) HOWSOEVER CAUSED AND ON ANY THEORY OF LIABILITY, WHETHER IN CONTRACT, ST
      +                          RICT
    82                           ; LIABILITY, OR TORT (INCLUDING NEGLIGENCE OR OTHERWISE) ARISING IN ANY WAY OUT OF THE U
      +                          SE OF
    83                           ; THIS SOFTWARE, EVEN IF ADVISED OF THE POSSIBILITY OF SUCH DAMAGE.
    84                           ; 
    85                           ; 
    86                           ; Code-generator required, PIC18F25K80 Definitions
    87                           ; 
    88                           ; SFR Addresses
    89   000000                     _T1CON	set	4045
    90   000000                     _TMR1L	set	4046
    91   000000                     _TMR1H	set	4047
    92   000000                     _COMSTATbits	set	3953
    93   000000                     _RXB1SIDH	set	3889
    94   000000                     _RXB1SIDL	set	3890
    95   000000                     _RXB0D7	set	3949
    96   000000                     _RXB0D6	set	3948
    97   000000                     _RXB0D5	set	3947
    98   000000                     _RXB0D4	set	3946
    99   000000                     _RXB0D3	set	3945
   100   000000                     _RXB0D2	set	3944
   101   000000                     _RXB0D1	set	3943
   102   000000                     _RXB0D0	set	3942
   103   000000                     _RXB0DLC	set	3941
   104   000000                     _RXB0SIDH	set	3937
   105   000000                     _RXB0EIDL	set	3940
   106   000000                     _RXB0EIDH	set	3939
   107   000000                     _RXB0SIDL	set	3938
   108   000000                     _TXB2SIDL	set	3842
   109   000000                     _TXB2SIDH	set	3841
   110   000000                     _TXB2EIDH	set	3843
   111   000000                     _TXB2CONbits	set	3840
   112   000000                     _TXB1SIDL	set	3858
   113   000000                     _TXB1SIDH	set	3857
   114   000000                     _TXB1EIDH	set	3859
   115   000000                     _TXB1CONbits	set	3856
   116   000000                     _TXB0SIDL	set	3874
   117   000000                     _TXB0SIDH	set	3873
   118   000000                     _TXB0EIDH	set	3875
   119   000000                     _TXB0CONbits	set	3872
   120   000000                     _RXF5SIDL	set	3829
   121   000000                     _RXF5SIDH	set	3828
   122   000000                     _RXF5EIDL	set	3831
   123   000000                     _RXF5EIDH	set	3830
   124   000000                     _RXF4SIDL	set	3825
   125   000000                     _RXF4SIDH	set	3824
   126   000000                     _RXF4EIDL	set	3827
   127   000000                     _RXF4EIDH	set	3826
   128   000000                     _RXF3SIDL	set	3821
   129   000000                     _RXF3SIDH	set	3820
   130   000000                     _RXF3EIDL	set	3823
   131   000000                     _RXF3EIDH	set	3822
   132   000000                     _RXF2SIDL	set	3817
   133   000000                     _RXF2SIDH	set	3816
   134   000000                     _RXF2EIDL	set	3819
   135   000000                     _RXF2EIDH	set	3818
   136   000000                     _RXF1SIDL	set	3813
   137   000000                     _RXF1SIDH	set	3812
   138   000000                     _RXF1EIDL	set	3815
   139   000000                     _RXF1EIDH	set	3814
   140   000000                     _RXF0SIDL	set	3809
   141   000000                     _RXF0EIDL	set	3811
   142   000000                     _RXM1SIDL	set	3837
   143   000000                     _RXM1SIDH	set	3836
   144   000000                     _RXM1EIDL	set	3839
   145   000000                     _RXM1EIDH	set	3838
   146   000000                     _RXM0SIDL	set	3833
   147   000000                     _RXM0EIDL	set	3835
   148   000000                     _CIOCON	set	3952
   149   000000                     _ECANCON	set	3954
   150   000000                     _RCONbits	set	4048
   151   000000                     _OSCCON2	set	4050
   152   000000                     _OSCCON	set	4051
   153   000000                     _TMR2	set	4044
   154                           
   155                           	psect	nvCOMRAM
   156   000044                     __pnvCOMRAM:
   157                           	callstack 0
   158   000044                     _timer1ReloadVal:
   159                           	callstack 0
   160   000044                     	ds	2
   161                           
   162                           	psect	nvBANK0
   163   000088                     __pnvBANK0:
   164                           	callstack 0
   165   000088                     _TMR1_InterruptHandler:
   166                           	callstack 0
   167   000088                     	ds	2
   168   00008A                     _TMR2_InterruptHandler:
   169                           	callstack 0
   170   00008A                     	ds	2
   171   000000                     _LATAbits	set	3977
   172   000000                     _RXB0CON	set	3936
   173   000000                     _T1GCONbits	set	4010
   174   000000                     _T1CONbits	set	4045
   175   000000                     _T2CONbits	set	4042
   176   000000                     _BRGCON1	set	3651
   177   000000                     _RXF0SIDH	set	3808
   178   000000                     _RXF0EIDH	set	3810
   179   000000                     _RXM0SIDH	set	3832
   180   000000                     _RXM0EIDH	set	3834
   181   000000                     _WPUB	set	3931
   182   000000                     _ANCON1	set	3932
   183   000000                     _ANCON0	set	3933
   184   000000                     _LATA	set	3977
   185   000000                     _TRISA	set	3986
   186   000000                     _LATC	set	3979
   187   000000                     _LATB	set	3978
   188   000000                     _REFOCON	set	3994
   189   000000                     _OSCTUNE	set	3995
   190   000000                     _PIE1bits	set	3997
   191   000000                     _PIR1bits	set	3998
   192   000000                     _PR2	set	4043
   193   000000                     _INTCON2bits	set	4081
   194   000000                     _TRISC	set	3988
   195   000000                     _TRISB	set	3987
   196   000000                     _RXB0CONbits	set	3936
   197   000000                     _CANSTAT	set	3950
   198   000000                     _CANCON	set	3951
   199   000000                     _PIE5bits	set	3958
   200   000000                     _INTCONbits	set	4082
   201   000000                     _T1GCON	set	4010
   202   000000                     _T2CON	set	4042
   203   000000                     _PORTAbits	set	3968
   204   000000                     _PIR5bits	set	3959
   205   000000                     _BRGCON3	set	3653
   206   000000                     _BRGCON2	set	3652
   207   000000                     _RXB1CONbits	set	3888
   208   000000                     _TXB0D7	set	3885
   209   000000                     _TXB0D6	set	3884
   210   000000                     _TXB0D5	set	3883
   211   000000                     _TXB0D4	set	3882
   212   000000                     _TXB0D3	set	3881
   213   000000                     _TXB0D2	set	3880
   214   000000                     _TXB0D1	set	3879
   215   000000                     _TXB0D0	set	3878
   216   000000                     _TXB0DLC	set	3877
   217   000000                     _TXB0EIDL	set	3876
   218   000000                     _TXB1D7	set	3869
   219   000000                     _TXB1D6	set	3868
   220   000000                     _TXB1D5	set	3867
   221   000000                     _TXB1D4	set	3866
   222   000000                     _TXB1D3	set	3865
   223   000000                     _TXB1D2	set	3864
   224   000000                     _TXB1D1	set	3863
   225   000000                     _TXB1D0	set	3862
   226   000000                     _TXB1DLC	set	3861
   227   000000                     _TXB1EIDL	set	3860
   228   000000                     _TXB2D7	set	3853
   229   000000                     _TXB2D6	set	3852
   230   000000                     _TXB2D5	set	3851
   231   000000                     _TXB2D4	set	3850
   232   000000                     _TXB2D3	set	3849
   233   000000                     _TXB2D2	set	3848
   234   000000                     _TXB2D1	set	3847
   235   000000                     _TXB2D0	set	3846
   236   000000                     _TXB2DLC	set	3845
   237   000000                     _TXB2EIDL	set	3844
   238   000000                     _RXB1D7	set	3901
   239   000000                     _RXB1D6	set	3900
   240   000000                     _RXB1D5	set	3899
   241   000000                     _RXB1D4	set	3898
   242   000000                     _RXB1D3	set	3897
   243   000000                     _RXB1D2	set	3896
   244   000000                     _RXB1D1	set	3895
   245   000000                     _RXB1D0	set	3894
   246   000000                     _RXB1DLC	set	3893
   247   000000                     _RXB1EIDL	set	3892
   248   000000                     _RXB1EIDH	set	3891
   249                           
   250                           ; #config settings
   251                           
   252                           	psect	cinit
   253   001206                     __pcinit:
   254                           	callstack 0
   255   001206                     start_initialization:
   256                           	callstack 0
   257   001206                     __initialization:
   258                           	callstack 0
   259                           
   260                           ; Clear objects allocated to BANK0 (16 bytes)
   261   001206  EE00  F078         	lfsr	0,__pbssBANK0
   262   00120A  0E10               	movlw	16
   263   00120C                     clear_0:
   264   00120C  6AEE               	clrf	postinc0,c
   265   00120E  06E8               	decf	wreg,f,c
   266   001210  E1FD               	bnz	clear_0
   267                           
   268                           ; Clear objects allocated to COMRAM (37 bytes)
   269   001212  EE00  F001         	lfsr	0,__pbssCOMRAM
   270   001216  0E25               	movlw	37
   271   001218                     clear_1:
   272   001218  6AEE               	clrf	postinc0,c
   273   00121A  06E8               	decf	wreg,f,c
   274   00121C  E1FD               	bnz	clear_1
   275   00121E                     end_of_initialization:
   276                           	callstack 0
   277   00121E                     __end_of__initialization:
   278                           	callstack 0
   279   00121E  9046               	bcf	int$flags,0,c	;clear compiler interrupt flag (level 1)
   280   001220  9246               	bcf	int$flags,1,c	;clear compiler interrupt flag (level 2)
   281   001222  0E00               	movlw	low (__Lmediumconst shr (0+16))
   282   001224  6EF8               	movwf	tblptru,c
   283   001226  0100               	movlb	0
   284   001228  EF56  F000         	goto	_main	;jump to C main() function
   285                           
   286                           	psect	bssCOMRAM
   287   000001                     __pbssCOMRAM:
   288                           	callstack 0
   289   000001                     _MSG_id_recever:
   290                           	callstack 0
   291   000001                     	ds	4
   292   000005                     _flag_bouton_verrouille_deja_appuye:
   293                           	callstack 0
   294   000005                     	ds	2
   295   000007                     _flag_interrupt_1:
   296                           	callstack 0
   297   000007                     	ds	2
   298   000009                     _flag_interrupt_2:
   299                           	callstack 0
   300   000009                     	ds	2
   301   00000B                     _compteurTTCAN:
   302                           	callstack 0
   303   00000B                     	ds	2
   304   00000D                     TMR1_ISR@CountCallBack:
   305                           	callstack 0
   306   00000D                     	ds	2
   307   00000F                     _RXB0InterruptHandler:
   308                           	callstack 0
   309   00000F                     	ds	2
   310   000011                     TMR2_ISR@CountCallBack:
   311                           	callstack 0
   312   000011                     	ds	2
   313   000013                     _vehicule_verrouille:
   314                           	callstack 0
   315   000013                     	ds	1
   316   000014                     _cle_inseree:
   317                           	callstack 0
   318   000014                     	ds	1
   319   000015                     _vehicule_demarre:
   320                           	callstack 0
   321   000015                     	ds	1
   322   000016                     _vitesse_vehicule:
   323                           	callstack 0
   324   000016                     	ds	1
   325   000017                     _mode_transmition:
   326                           	callstack 0
   327   000017                     	ds	1
   328   000018                     _txMessage:
   329                           	callstack 0
   330   000018                     	ds	14
   331                           
   332                           	psect	bssBANK0
   333   000078                     __pbssBANK0:
   334                           	callstack 0
   335   000078                     _flag_bouton_demarre_deja_appuye:
   336                           	callstack 0
   337   000078                     	ds	2
   338   00007A                     _rxMessage:
   339                           	callstack 0
   340   00007A                     	ds	14
   341                           
   342                           	psect	cstackBANK0
   343   000060                     __pcstackBANK0:
   344                           	callstack 0
   345   000060                     convertCANid2Reg@tempPassedInID:
   346                           	callstack 0
   347                           
   348                           ; 4 bytes @ 0x0
   349   000060                     	ds	4
   350   000064                     convertCANid2Reg@canIdType:
   351                           	callstack 0
   352                           
   353                           ; 1 bytes @ 0x4
   354   000064                     	ds	1
   355   000065                     convertCANid2Reg@passedInEIDH:
   356                           	callstack 0
   357                           
   358                           ; 2 bytes @ 0x5
   359   000065                     	ds	2
   360   000067                     convertCANid2Reg@passedInEIDL:
   361                           	callstack 0
   362                           
   363                           ; 2 bytes @ 0x7
   364   000067                     	ds	2
   365   000069                     convertCANid2Reg@passedInSIDH:
   366                           	callstack 0
   367                           
   368                           ; 2 bytes @ 0x9
   369   000069                     	ds	2
   370   00006B                     convertCANid2Reg@passedInSIDL:
   371                           	callstack 0
   372                           
   373                           ; 2 bytes @ 0xB
   374   00006B                     	ds	2
   375   00006D                     CAN_transmit@tempCanMsg:
   376                           	callstack 0
   377                           
   378                           ; 2 bytes @ 0xD
   379   00006D                     	ds	2
   380   00006F                     CAN_transmit@tempEIDH:
   381                           	callstack 0
   382                           
   383                           ; 1 bytes @ 0xF
   384   00006F                     	ds	1
   385   000070                     CAN_transmit@tempEIDL:
   386                           	callstack 0
   387                           
   388                           ; 1 bytes @ 0x10
   389   000070                     	ds	1
   390   000071                     CAN_transmit@tempSIDH:
   391                           	callstack 0
   392                           
   393                           ; 1 bytes @ 0x11
   394   000071                     	ds	1
   395   000072                     CAN_transmit@tempSIDL:
   396                           	callstack 0
   397                           
   398                           ; 1 bytes @ 0x12
   399   000072                     	ds	1
   400   000073                     ??_can_transmit:
   401                           
   402                           ; 1 bytes @ 0x13
   403   000073                     	ds	2
   404   000075                     ??_main:
   405                           
   406                           ; 1 bytes @ 0x15
   407   000075                     	ds	2
   408   000077                     main@prochaine_etape:
   409                           	callstack 0
   410                           
   411                           ; 1 bytes @ 0x17
   412   000077                     	ds	1
   413                           
   414                           	psect	cstackCOMRAM
   415   000026                     __pcstackCOMRAM:
   416                           	callstack 0
   417   000026                     ?_convertReg2ExtendedCANid:
   418                           	callstack 0
   419   000026                     ?_convertReg2StandardCANid:
   420                           	callstack 0
   421   000026                     convertReg2ExtendedCANid@tempRXBn_EIDL:
   422                           	callstack 0
   423   000026                     convertReg2StandardCANid@tempRXBn_SIDL:
   424                           	callstack 0
   425   000026                     TMR1_WriteTimer@timerVal:
   426                           	callstack 0
   427                           
   428                           ; 2 bytes @ 0x0
   429   000026                     	ds	1
   430   000027                     convertReg2ExtendedCANid@tempRXBn_SIDH:
   431                           	callstack 0
   432                           
   433                           ; 1 bytes @ 0x1
   434   000027                     	ds	1
   435   000028                     convertReg2ExtendedCANid@tempRXBn_SIDL:
   436                           	callstack 0
   437                           
   438                           ; 1 bytes @ 0x2
   439   000028                     	ds	2
   440   00002A                     ??_convertReg2ExtendedCANid:
   441   00002A                     ??_convertReg2StandardCANid:
   442                           
   443                           ; 1 bytes @ 0x4
   444   00002A                     	ds	2
   445   00002C                     convertReg2StandardCANid@tempRXBn_SIDH:
   446                           	callstack 0
   447                           
   448                           ; 1 bytes @ 0x6
   449   00002C                     	ds	1
   450   00002D                     convertReg2StandardCANid@returnValue:
   451                           	callstack 0
   452                           
   453                           ; 4 bytes @ 0x7
   454   00002D                     	ds	1
   455   00002E                     convertReg2ExtendedCANid@tempRXBn_EIDH:
   456                           	callstack 0
   457                           
   458                           ; 1 bytes @ 0x8
   459   00002E                     	ds	1
   460   00002F                     convertReg2ExtendedCANid@returnValue:
   461                           	callstack 0
   462                           
   463                           ; 4 bytes @ 0x9
   464   00002F                     	ds	2
   465   000031                     convertReg2StandardCANid@ConvertedID:
   466                           	callstack 0
   467                           
   468                           ; 4 bytes @ 0xB
   469   000031                     	ds	2
   470   000033                     convertReg2ExtendedCANid@CAN_standardLo_ID_lo2bits:
   471                           	callstack 0
   472                           
   473                           ; 1 bytes @ 0xD
   474   000033                     	ds	1
   475   000034                     convertReg2ExtendedCANid@CAN_standardLo_ID_hi3bits:
   476                           	callstack 0
   477                           
   478                           ; 1 bytes @ 0xE
   479   000034                     	ds	1
   480   000035                     convertReg2ExtendedCANid@ConvertedID:
   481                           	callstack 0
   482                           
   483                           ; 4 bytes @ 0xF
   484   000035                     	ds	4
   485   000039                     CAN_receive@tempCanMsg:
   486                           	callstack 0
   487                           
   488                           ; 2 bytes @ 0x13
   489   000039                     	ds	2
   490   00003B                     ??_INTERRUPT_InterruptManager:
   491   00003B                     
   492                           ; 1 bytes @ 0x15
   493   00003B                     	ds	4
   494   00003F                     ??_convertCANid2Reg:
   495   00003F                     TMR2_SetInterruptHandler@InterruptHandler:
   496                           	callstack 0
   497   00003F                     ECAN_SetRXB0InterruptHandler@handler:
   498                           	callstack 0
   499   00003F                     TMR1_SetInterruptHandler@InterruptHandler:
   500                           	callstack 0
   501                           
   502                           ; 2 bytes @ 0x19
   503   00003F                     	ds	2
   504   000041                     ??_TMR1_Initialize:
   505   000041                     ??_ECAN_Initialize:
   506   000041                     
   507                           ; 1 bytes @ 0x1B
   508   000041                     	ds	2
   509   000043                     convertCANid2Reg@wipSIDL:
   510                           	callstack 0
   511                           
   512                           ; 1 bytes @ 0x1D
   513   000043                     	ds	1
   514   000044                     
   515                           ; 1 bytes @ 0x1E
   516 ;;
   517 ;;Main: autosize = 0, tempsize = 2, incstack = 0, save=0
   518 ;;
   519 ;; *************** function _main *****************
   520 ;; Defined at:
   521 ;;		line 214 in file "main.c"
   522 ;; Parameters:    Size  Location     Type
   523 ;;		None
   524 ;; Auto vars:     Size  Location     Type
   525 ;;  prochaine_et    1   23[BANK0 ] enum E12606
   526 ;; Return value:  Size  Location     Type
   527 ;;                  1    wreg      void 
   528 ;; Registers used:
   529 ;;		wreg, fsr2l, fsr2h, status,2, status,0, cstack
   530 ;; Tracked objects:
   531 ;;		On entry : 0/0
   532 ;;		On exit  : 0/0
   533 ;;		Unchanged: 0/0
   534 ;; Data sizes:     COMRAM   BANK0   BANK1   BANK2   BANK3   BANK4   BANK5   BANK6   BANK7   BANK8   BANK9  BANK10  BANK1
      +1  BANK12  BANK13  BANK14
   535 ;;      Params:         0       0       0       0       0       0       0       0       0       0       0       0       
      +0       0       0       0
   536 ;;      Locals:         0       1       0       0       0       0       0       0       0       0       0       0       
      +0       0       0       0
   537 ;;      Temps:          0       2       0       0       0       0       0       0       0       0       0       0       
      +0       0       0       0
   538 ;;      Totals:         0       3       0       0       0       0       0       0       0       0       0       0       
      +0       0       0       0
   539 ;;Total ram usage:        3 bytes
   540 ;; Hardware stack levels required when called: 8
   541 ;; This function calls:
   542 ;;		_ECAN_SetRXB0InterruptHandler
   543 ;;		_SYSTEM_Initialize
   544 ;;		_TMR1_Initialize
   545 ;;		_TMR1_SetInterruptHandler
   546 ;;		_TMR1_StartTimer
   547 ;;		_TMR1_StopTimer
   548 ;;		_TMR2_Initialize
   549 ;;		_TMR2_SetInterruptHandler
   550 ;;		_TMR2_StartTimer
   551 ;;		_TMR2_StopTimer
   552 ;;		_can_transmit
   553 ;; This function is called by:
   554 ;;		Startup code after reset
   555 ;; This function uses a non-reentrant model
   556 ;;
   557                           
   558                           	psect	text0
   559   0000AC                     __ptext0:
   560                           	callstack 0
   561   0000AC                     _main:
   562                           	callstack 23
   563   0000AC                     
   564                           ;main.c: 217:     SYSTEM_Initialize();
   565   0000AC  EC42  F009         	call	_SYSTEM_Initialize	;wreg free
   566                           
   567                           ;main.c: 218:     TMR2_Initialize();
   568   0000B0  EC16  F009         	call	_TMR2_Initialize	;wreg free
   569                           
   570                           ;main.c: 219:     TMR1_Initialize();
   571   0000B4  EC5F  F008         	call	_TMR1_Initialize	;wreg free
   572   0000B8                     
   573                           ;main.c: 221:     (INTCONbits.GIE = 1);
   574   0000B8  8EF2               	bsf	242,7,c	;volatile
   575   0000BA                     
   576                           ;main.c: 222:     (INTCONbits.PEIE = 1);
   577   0000BA  8CF2               	bsf	242,6,c	;volatile
   578                           
   579                           ;main.c: 225:     TMR2_SetInterruptHandler(interruption_2);
   580   0000BC  0EDC               	movlw	low _interruption_2
   581   0000BE  6E3F               	movwf	TMR2_SetInterruptHandler@InterruptHandler^0,c
   582   0000C0  0E12               	movlw	high _interruption_2
   583   0000C2  6E40               	movwf	(TMR2_SetInterruptHandler@InterruptHandler+1)^0,c
   584   0000C4  EC5F  F009         	call	_TMR2_SetInterruptHandler	;wreg free
   585                           
   586                           ;main.c: 226:     TMR1_SetInterruptHandler(interruption_1);
   587   0000C8  0E68               	movlw	low _interruption_1
   588   0000CA  6E3F               	movwf	TMR1_SetInterruptHandler@InterruptHandler^0,c
   589   0000CC  0E12               	movlw	high _interruption_1
   590   0000CE  6E40               	movwf	(TMR1_SetInterruptHandler@InterruptHandler+1)^0,c
   591   0000D0  EC64  F009         	call	_TMR1_SetInterruptHandler	;wreg free
   592                           
   593                           ;main.c: 227:     ECAN_SetRXB0InterruptHandler(reception_TTCAN);
   594   0000D4  0EC6               	movlw	low _reception_TTCAN
   595   0000D6  6E3F               	movwf	ECAN_SetRXB0InterruptHandler@handler^0,c
   596   0000D8  0E0F               	movlw	high _reception_TTCAN
   597   0000DA  6E40               	movwf	(ECAN_SetRXB0InterruptHandler@handler+1)^0,c
   598   0000DC  EC69  F009         	call	_ECAN_SetRXB0InterruptHandler	;wreg free
   599   0000E0                     
   600                           ;main.c: 229:     TMR2_StopTimer();
   601   0000E0  EC73  F009         	call	_TMR2_StopTimer	;wreg free
   602   0000E4                     
   603                           ;main.c: 230:     TMR1_StopTimer();
   604   0000E4  EC77  F009         	call	_TMR1_StopTimer	;wreg free
   605   0000E8                     
   606                           ;main.c: 232:     RXB0CON = 0x60;
   607   0000E8  0E60               	movlw	96
   608   0000EA  6E60               	movwf	96,c	;volatile
   609   0000EC                     
   610                           ;main.c: 235:     demarrage prochaine_etape = etape_mode_park;
   611   0000EC  0E01               	movlw	1
   612   0000EE  0100               	movlb	0	; () banked
   613   0000F0  6F77               	movwf	main@prochaine_etape& (0+255),b
   614   0000F2                     
   615                           ; BSR set to: 0
   616                           ;main.c: 238:     vehicule_demarre = 0x00;
   617   0000F2  0E00               	movlw	0
   618   0000F4  6E15               	movwf	_vehicule_demarre^0,c
   619   0000F6                     
   620                           ; BSR set to: 0
   621                           ;main.c: 239:     cle_inseree = 0x00;
   622   0000F6  0E00               	movlw	0
   623   0000F8  6E14               	movwf	_cle_inseree^0,c
   624   0000FA                     
   625                           ; BSR set to: 0
   626                           ;main.c: 240:     vehicule_verrouille = 0x00;
   627   0000FA  0E00               	movlw	0
   628   0000FC  6E13               	movwf	_vehicule_verrouille^0,c
   629   0000FE                     
   630                           ; BSR set to: 0
   631   0000FE  9689               	bcf	137,3,c	;volatile
   632   000100                     
   633                           ; BSR set to: 0
   634   000100  9A89               	bcf	137,5,c	;volatile
   635   000102                     
   636                           ; BSR set to: 0
   637                           ;main.c: 244:     TMR2_StopTimer();
   638   000102  EC73  F009         	call	_TMR2_StopTimer	;wreg free
   639   000106                     
   640                           ;main.c: 245:     TMR1_StartTimer();
   641   000106  EC79  F009         	call	_TMR1_StartTimer	;wreg free
   642   00010A                     l3204:
   643                           
   644                           ;main.c: 249:         can_transmit();
   645   00010A  EC84  F007         	call	_can_transmit	;wreg free
   646                           
   647                           ;main.c: 252:         switch (prochaine_etape)
   648   00010E  EFB8  F002         	goto	l3376
   649   000112                     l3206:
   650                           
   651                           ; BSR set to: 0
   652                           ;main.c: 256:                 vehicule_demarre = 0x00;
   653   000112  0E00               	movlw	0
   654   000114  6E15               	movwf	_vehicule_demarre^0,c
   655                           
   656                           ;main.c: 257:                 cle_inseree = 0x00;
   657   000116  0E00               	movlw	0
   658   000118  6E14               	movwf	_cle_inseree^0,c
   659                           
   660                           ;main.c: 258:                 vehicule_verrouille = 0x00;
   661   00011A  0E00               	movlw	0
   662   00011C  6E13               	movwf	_vehicule_verrouille^0,c
   663   00011E                     
   664                           ; BSR set to: 0
   665                           ;main.c: 260:                 TMR2_StopTimer();
   666   00011E  EC73  F009         	call	_TMR2_StopTimer	;wreg free
   667   000122  9689               	bcf	137,3,c	;volatile
   668   000124  9A89               	bcf	137,5,c	;volatile
   669   000126  EF97  F000         	goto	l3216
   670   00012A                     l3214:
   671                           
   672                           ;main.c: 270:                     can_transmit();
   673   00012A  EC84  F007         	call	_can_transmit	;wreg free
   674   00012E                     l3216:
   675                           
   676                           ;main.c: 268:                 while (mode_transmition != 0x03) {
   677   00012E  0E03               	movlw	3
   678   000130  1817               	xorwf	_mode_transmition^0,w,c
   679   000132  A4D8               	btfss	status,2,c
   680   000134  EF9E  F000         	goto	u1591
   681   000138  EFA0  F000         	goto	u1590
   682   00013C                     u1591:
   683   00013C  EF95  F000         	goto	l3214
   684   000140                     u1590:
   685   000140                     
   686                           ;main.c: 275:                 prochaine_etape = etape_cle_insere;
   687   000140  0E02               	movlw	2
   688   000142  0100               	movlb	0	; () banked
   689   000144  6F77               	movwf	main@prochaine_etape& (0+255),b
   690                           
   691                           ;main.c: 277:                 break;
   692   000146  EF85  F000         	goto	l3204
   693   00014A                     l620:
   694                           
   695                           ; BSR set to: 0
   696                           ;main.c: 282:                 if (PORTAbits.RA2 == 1) {
   697   00014A  A480               	btfss	128,2,c	;volatile
   698   00014C  EFAA  F000         	goto	u1601
   699   000150  EFAC  F000         	goto	u1600
   700   000154                     u1601:
   701   000154  EFB2  F000         	goto	l621
   702   000158                     u1600:
   703   000158                     
   704                           ; BSR set to: 0
   705                           ;main.c: 283:                     prochaine_etape = etape_fonction;
   706   000158  0E03               	movlw	3
   707   00015A  6F77               	movwf	main@prochaine_etape& (0+255),b
   708                           
   709                           ;main.c: 284:                     cle_inseree = 0x01;
   710   00015C  0E01               	movlw	1
   711   00015E  6E14               	movwf	_cle_inseree^0,c
   712                           
   713                           ;main.c: 286:                 } else if (PORTAbits.RA0 == 1)
   714   000160  EF85  F000         	goto	l3204
   715   000164                     l621:
   716                           
   717                           ; BSR set to: 0
   718   000164  A080               	btfss	128,0,c	;volatile
   719   000166  EFB7  F000         	goto	u1611
   720   00016A  EFB9  F000         	goto	u1610
   721   00016E                     u1611:
   722   00016E  EFD7  F000         	goto	l623
   723   000172                     u1610:
   724   000172                     
   725                           ; BSR set to: 0
   726                           ;main.c: 287:                 {;main.c: 288:                     TMR2_StartTimer();
   727   000172  EC75  F009         	call	_TMR2_StartTimer	;wreg free
   728                           
   729                           ;main.c: 290:                     while (flag_interrupt_2 != 1) {
   730   000176  EFBF  F000         	goto	l3226
   731   00017A                     l3224:
   732                           
   733                           ;main.c: 292:                         can_transmit();
   734   00017A  EC84  F007         	call	_can_transmit	;wreg free
   735   00017E                     l3226:
   736                           
   737                           ;main.c: 290:                     while (flag_interrupt_2 != 1) {
   738   00017E  0409               	decf	_flag_interrupt_2^0,w,c
   739   000180  100A               	iorwf	(_flag_interrupt_2+1)^0,w,c
   740   000182  A4D8               	btfss	status,2,c
   741   000184  EFC6  F000         	goto	u1621
   742   000188  EFC8  F000         	goto	u1620
   743   00018C                     u1621:
   744   00018C  EFBD  F000         	goto	l3224
   745   000190                     u1620:
   746   000190  8689               	bsf	137,3,c	;volatile
   747   000192                     
   748                           ;main.c: 296:                     vehicule_verrouille = 0x01;
   749   000192  0E01               	movlw	1
   750   000194  6E13               	movwf	_vehicule_verrouille^0,c
   751                           
   752                           ;main.c: 297:                     flag_interrupt_2 = 0;
   753   000196  0E00               	movlw	0
   754   000198  6E0A               	movwf	(_flag_interrupt_2+1)^0,c
   755   00019A  0E00               	movlw	0
   756   00019C  6E09               	movwf	_flag_interrupt_2^0,c
   757   00019E                     
   758                           ;main.c: 298:                     TMR2_StopTimer();
   759   00019E  EC73  F009         	call	_TMR2_StopTimer	;wreg free
   760   0001A2                     
   761                           ;main.c: 299:                     flag_bouton_verrouille_deja_appuye = 1;
   762   0001A2  0E00               	movlw	0
   763   0001A4  6E06               	movwf	(_flag_bouton_verrouille_deja_appuye+1)^0,c
   764   0001A6  0E01               	movlw	1
   765   0001A8  6E05               	movwf	_flag_bouton_verrouille_deja_appuye^0,c
   766                           
   767                           ;main.c: 300:                 } else if (PORTAbits.RA0 && flag_bouton_verrouille_deja_ap
      +                          puye == 1)
   768   0001AA  EF85  F000         	goto	l3204
   769   0001AE                     l623:
   770                           
   771                           ; BSR set to: 0
   772   0001AE  A080               	btfss	128,0,c	;volatile
   773   0001B0  EFDC  F000         	goto	u1631
   774   0001B4  EFDE  F000         	goto	u1630
   775   0001B8                     u1631:
   776   0001B8  EF05  F001         	goto	l630
   777   0001BC                     u1630:
   778   0001BC                     
   779                           ; BSR set to: 0
   780   0001BC  0405               	decf	_flag_bouton_verrouille_deja_appuye^0,w,c
   781   0001BE  1006               	iorwf	(_flag_bouton_verrouille_deja_appuye+1)^0,w,c
   782   0001C0  A4D8               	btfss	status,2,c
   783   0001C2  EFE5  F000         	goto	u1641
   784   0001C6  EFE7  F000         	goto	u1640
   785   0001CA                     u1641:
   786   0001CA  EF05  F001         	goto	l630
   787   0001CE                     u1640:
   788   0001CE                     
   789                           ; BSR set to: 0
   790                           ;main.c: 301:                 {;main.c: 302:                     TMR2_StartTimer();
   791   0001CE  EC75  F009         	call	_TMR2_StartTimer	;wreg free
   792                           
   793                           ;main.c: 304:                     while (flag_interrupt_2 != 1) {
   794   0001D2  EFED  F000         	goto	l3240
   795   0001D6                     l3238:
   796                           
   797                           ;main.c: 306:                         can_transmit();
   798   0001D6  EC84  F007         	call	_can_transmit	;wreg free
   799   0001DA                     l3240:
   800                           
   801                           ;main.c: 304:                     while (flag_interrupt_2 != 1) {
   802   0001DA  0409               	decf	_flag_interrupt_2^0,w,c
   803   0001DC  100A               	iorwf	(_flag_interrupt_2+1)^0,w,c
   804   0001DE  A4D8               	btfss	status,2,c
   805   0001E0  EFF4  F000         	goto	u1651
   806   0001E4  EFF6  F000         	goto	u1650
   807   0001E8                     u1651:
   808   0001E8  EFEB  F000         	goto	l3238
   809   0001EC                     u1650:
   810   0001EC  9689               	bcf	137,3,c	;volatile
   811   0001EE                     
   812                           ;main.c: 310:                     vehicule_verrouille = 0x00;
   813   0001EE  0E00               	movlw	0
   814   0001F0  6E13               	movwf	_vehicule_verrouille^0,c
   815                           
   816                           ;main.c: 311:                     flag_interrupt_2 = 0;
   817   0001F2  0E00               	movlw	0
   818   0001F4  6E0A               	movwf	(_flag_interrupt_2+1)^0,c
   819   0001F6  0E00               	movlw	0
   820   0001F8  6E09               	movwf	_flag_interrupt_2^0,c
   821   0001FA                     
   822                           ;main.c: 312:                     TMR2_StopTimer();
   823   0001FA  EC73  F009         	call	_TMR2_StopTimer	;wreg free
   824   0001FE                     
   825                           ;main.c: 313:                     flag_bouton_verrouille_deja_appuye = 0;
   826   0001FE  0E00               	movlw	0
   827   000200  6E06               	movwf	(_flag_bouton_verrouille_deja_appuye+1)^0,c
   828   000202  0E00               	movlw	0
   829   000204  6E05               	movwf	_flag_bouton_verrouille_deja_appuye^0,c
   830                           
   831                           ;main.c: 315:                 } else if (PORTAbits.RA2 == 0) {
   832   000206  EF85  F000         	goto	l3204
   833   00020A                     l630:
   834                           
   835                           ; BSR set to: 0
   836   00020A  B480               	btfsc	128,2,c	;volatile
   837   00020C  EF0A  F001         	goto	u1661
   838   000210  EF0C  F001         	goto	u1660
   839   000214                     u1661:
   840   000214  EF10  F001         	goto	l622
   841   000218                     u1660:
   842   000218                     
   843                           ; BSR set to: 0
   844                           ;main.c: 316:                     prochaine_etape = etape_mode_park;
   845   000218  0E01               	movlw	1
   846   00021A  6F77               	movwf	main@prochaine_etape& (0+255),b
   847   00021C  EF85  F000         	goto	l3204
   848   000220                     l622:
   849                           
   850                           ;main.c: 320:                 break;
   851   000220  EF85  F000         	goto	l3204
   852   000224                     l3250:
   853                           
   854                           ; BSR set to: 0
   855                           ;main.c: 326:                 can_transmit();
   856   000224  EC84  F007         	call	_can_transmit	;wreg free
   857   000228                     
   858                           ;main.c: 327:                 TMR2_StopTimer();
   859   000228  EC73  F009         	call	_TMR2_StopTimer	;wreg free
   860   00022C                     
   861                           ;main.c: 329:                 if (PORTAbits.RA0 == 1)
   862   00022C  A080               	btfss	128,0,c	;volatile
   863   00022E  EF1B  F001         	goto	u1671
   864   000232  EF1D  F001         	goto	u1670
   865   000236                     u1671:
   866   000236  EF38  F001         	goto	l639
   867   00023A                     u1670:
   868   00023A                     
   869                           ;main.c: 330:                 {;main.c: 331:                     TMR2_StartTimer();
   870   00023A  EC75  F009         	call	_TMR2_StartTimer	;wreg free
   871                           
   872                           ;main.c: 333:                     while (flag_interrupt_2 != 1) {
   873   00023E  EF23  F001         	goto	l3260
   874   000242                     l3258:
   875                           
   876                           ;main.c: 335:                         can_transmit();
   877   000242  EC84  F007         	call	_can_transmit	;wreg free
   878   000246                     l3260:
   879                           
   880                           ;main.c: 333:                     while (flag_interrupt_2 != 1) {
   881   000246  0409               	decf	_flag_interrupt_2^0,w,c
   882   000248  100A               	iorwf	(_flag_interrupt_2+1)^0,w,c
   883   00024A  A4D8               	btfss	status,2,c
   884   00024C  EF2A  F001         	goto	u1681
   885   000250  EF2C  F001         	goto	u1680
   886   000254                     u1681:
   887   000254  EF21  F001         	goto	l3258
   888   000258                     u1680:
   889   000258  8689               	bsf	137,3,c	;volatile
   890   00025A                     
   891                           ;main.c: 339:                     vehicule_verrouille = 0x01;
   892   00025A  0E01               	movlw	1
   893   00025C  6E13               	movwf	_vehicule_verrouille^0,c
   894                           
   895                           ;main.c: 340:                     flag_interrupt_2 = 0;
   896   00025E  0E00               	movlw	0
   897   000260  6E0A               	movwf	(_flag_interrupt_2+1)^0,c
   898   000262  0E00               	movlw	0
   899   000264  6E09               	movwf	_flag_interrupt_2^0,c
   900                           
   901                           ;main.c: 341:                     prochaine_etape = etape_verouiller;
   902   000266  0E04               	movlw	4
   903   000268  0100               	movlb	0	; () banked
   904   00026A  6F77               	movwf	main@prochaine_etape& (0+255),b
   905                           
   906                           ;main.c: 342:                 } else if (PORTAbits.RA1 == 1 && mode_transmition == 3)
   907   00026C  EFB2  F001         	goto	l3298
   908   000270                     l639:
   909   000270  A280               	btfss	128,1,c	;volatile
   910   000272  EF3D  F001         	goto	u1691
   911   000276  EF3F  F001         	goto	u1690
   912   00027A                     u1691:
   913   00027A  EF67  F001         	goto	l3274
   914   00027E                     u1690:
   915   00027E  0E03               	movlw	3
   916   000280  1817               	xorwf	_mode_transmition^0,w,c
   917   000282  A4D8               	btfss	status,2,c
   918   000284  EF46  F001         	goto	u1701
   919   000288  EF48  F001         	goto	u1700
   920   00028C                     u1701:
   921   00028C  EF67  F001         	goto	l3274
   922   000290                     u1700:
   923   000290                     
   924                           ;main.c: 343:                 {;main.c: 344:                     TMR2_StartTimer();
   925   000290  EC75  F009         	call	_TMR2_StartTimer	;wreg free
   926                           
   927                           ;main.c: 346:                     while (flag_interrupt_2 != 1) {
   928   000294  EF4E  F001         	goto	l3270
   929   000298                     l3268:
   930                           
   931                           ;main.c: 348:                         can_transmit();
   932   000298  EC84  F007         	call	_can_transmit	;wreg free
   933   00029C                     l3270:
   934                           
   935                           ;main.c: 346:                     while (flag_interrupt_2 != 1) {
   936   00029C  0409               	decf	_flag_interrupt_2^0,w,c
   937   00029E  100A               	iorwf	(_flag_interrupt_2+1)^0,w,c
   938   0002A0  A4D8               	btfss	status,2,c
   939   0002A2  EF55  F001         	goto	u1711
   940   0002A6  EF57  F001         	goto	u1710
   941   0002AA                     u1711:
   942   0002AA  EF4C  F001         	goto	l3268
   943   0002AE                     u1710:
   944   0002AE  8A89               	bsf	137,5,c	;volatile
   945   0002B0                     
   946                           ;main.c: 352:                     vehicule_demarre = 0x01;
   947   0002B0  0E01               	movlw	1
   948   0002B2  6E15               	movwf	_vehicule_demarre^0,c
   949                           
   950                           ;main.c: 353:                     flag_interrupt_2 = 0;
   951   0002B4  0E00               	movlw	0
   952   0002B6  6E0A               	movwf	(_flag_interrupt_2+1)^0,c
   953   0002B8  0E00               	movlw	0
   954   0002BA  6E09               	movwf	_flag_interrupt_2^0,c
   955                           
   956                           ;main.c: 354:                     flag_bouton_demarre_deja_appuye = 1;
   957   0002BC  0E00               	movlw	0
   958   0002BE  0100               	movlb	0	; () banked
   959   0002C0  6F79               	movwf	(_flag_bouton_demarre_deja_appuye+1)& (0+255),b
   960   0002C2  0E01               	movlw	1
   961   0002C4  6F78               	movwf	_flag_bouton_demarre_deja_appuye& (0+255),b
   962                           
   963                           ;main.c: 355:                     prochaine_etape = etape_demarrage;
   964   0002C6  0E05               	movlw	5
   965   0002C8  6F77               	movwf	main@prochaine_etape& (0+255),b
   966                           
   967                           ;main.c: 356:                 } else if ((vitesse_vehicule >= 15) && (vehicule_demarre =
      +                          = 0x01)) {
   968   0002CA  EFB2  F001         	goto	l3298
   969   0002CE                     l3274:
   970   0002CE  5016               	movf	_vitesse_vehicule^0,w,c
   971   0002D0  0A80               	xorlw	128
   972   0002D2  0F71               	addlw	-143
   973   0002D4  A0D8               	btfss	status,0,c
   974   0002D6  EF6F  F001         	goto	u1721
   975   0002DA  EF71  F001         	goto	u1720
   976   0002DE                     u1721:
   977   0002DE  EF7E  F001         	goto	l3282
   978   0002E2                     u1720:
   979   0002E2  0415               	decf	_vehicule_demarre^0,w,c
   980   0002E4  A4D8               	btfss	status,2,c
   981   0002E6  EF77  F001         	goto	u1731
   982   0002EA  EF79  F001         	goto	u1730
   983   0002EE                     u1731:
   984   0002EE  EF7E  F001         	goto	l3282
   985   0002F2                     u1730:
   986   0002F2                     
   987                           ;main.c: 358:                     vehicule_verrouille = 0x01;
   988   0002F2  0E01               	movlw	1
   989   0002F4  6E13               	movwf	_vehicule_verrouille^0,c
   990   0002F6  8689               	bsf	137,3,c	;volatile
   991   0002F8  EFB2  F001         	goto	l3298
   992   0002FC                     l3282:
   993   0002FC  5016               	movf	_vitesse_vehicule^0,w,c
   994   0002FE  B4D8               	btfsc	status,2,c
   995   000300  EF84  F001         	goto	u1741
   996   000304  EF86  F001         	goto	u1740
   997   000308                     u1741:
   998   000308  EF93  F001         	goto	l3288
   999   00030C                     u1740:
  1000   00030C  5015               	movf	_vehicule_demarre^0,w,c
  1001   00030E  A4D8               	btfss	status,2,c
  1002   000310  EF8C  F001         	goto	u1751
  1003   000314  EF8E  F001         	goto	u1750
  1004   000318                     u1751:
  1005   000318  EF93  F001         	goto	l3288
  1006   00031C                     u1750:
  1007   00031C                     
  1008                           ;main.c: 362:                     prochaine_etape = etape_mode_park;
  1009   00031C  0E01               	movlw	1
  1010   00031E  0100               	movlb	0	; () banked
  1011   000320  6F77               	movwf	main@prochaine_etape& (0+255),b
  1012                           
  1013                           ;main.c: 364:                 } else if ((vitesse_vehicule >= 15 || vitesse_vehicule <= 
      +                          -15) && vehicule_demarre == 0x01) {
  1014   000322  EFB2  F001         	goto	l3298
  1015   000326                     l3288:
  1016   000326  5016               	movf	_vitesse_vehicule^0,w,c
  1017   000328  0A80               	xorlw	128
  1018   00032A  0F71               	addlw	-143
  1019   00032C  B0D8               	btfsc	status,0,c
  1020   00032E  EF9B  F001         	goto	u1761
  1021   000332  EF9D  F001         	goto	u1760
  1022   000336                     u1761:
  1023   000336  EFA7  F001         	goto	l3292
  1024   00033A                     u1760:
  1025   00033A  5016               	movf	_vitesse_vehicule^0,w,c
  1026   00033C  0A80               	xorlw	128
  1027   00033E  0F8E               	addlw	142
  1028   000340  B0D8               	btfsc	status,0,c
  1029   000342  EFA5  F001         	goto	u1771
  1030   000346  EFA7  F001         	goto	u1770
  1031   00034A                     u1771:
  1032   00034A  EFB2  F001         	goto	l3298
  1033   00034E                     u1770:
  1034   00034E                     l3292:
  1035   00034E  0415               	decf	_vehicule_demarre^0,w,c
  1036   000350  A4D8               	btfss	status,2,c
  1037   000352  EFAD  F001         	goto	u1781
  1038   000356  EFAF  F001         	goto	u1780
  1039   00035A                     u1781:
  1040   00035A  EFB2  F001         	goto	l3298
  1041   00035E                     u1780:
  1042   00035E                     
  1043                           ;main.c: 366:                     vehicule_verrouille = 0x01;
  1044   00035E  0E01               	movlw	1
  1045   000360  6E13               	movwf	_vehicule_verrouille^0,c
  1046   000362  8689               	bsf	137,3,c	;volatile
  1047   000364                     l3298:
  1048                           
  1049                           ;main.c: 374:                 if (PORTAbits.RA2 == 0) {
  1050   000364  B480               	btfsc	128,2,c	;volatile
  1051   000366  EFB7  F001         	goto	u1791
  1052   00036A  EFB9  F001         	goto	u1790
  1053   00036E                     u1791:
  1054   00036E  EF85  F000         	goto	l3204
  1055   000372                     u1790:
  1056   000372                     l3300:
  1057                           
  1058                           ;main.c: 376:                     prochaine_etape = etape_mode_park;
  1059   000372  0E01               	movlw	1
  1060   000374  0100               	movlb	0	; () banked
  1061   000376  6F77               	movwf	main@prochaine_etape& (0+255),b
  1062                           
  1063                           ;main.c: 377:                     cle_inseree = 0x00;
  1064   000378  0E00               	movlw	0
  1065   00037A  6E14               	movwf	_cle_inseree^0,c
  1066   00037C  EF85  F000         	goto	l3204
  1067   000380                     l3302:
  1068                           
  1069                           ; BSR set to: 0
  1070                           ;main.c: 388:                 can_transmit();
  1071   000380  EC84  F007         	call	_can_transmit	;wreg free
  1072   000384                     
  1073                           ;main.c: 389:                 TMR2_StopTimer();
  1074   000384  EC73  F009         	call	_TMR2_StopTimer	;wreg free
  1075   000388                     
  1076                           ;main.c: 391:                 if (PORTAbits.RA0 == 1)
  1077   000388  A080               	btfss	128,0,c	;volatile
  1078   00038A  EFC9  F001         	goto	u1801
  1079   00038E  EFCB  F001         	goto	u1800
  1080   000392                     u1801:
  1081   000392  EFE6  F001         	goto	l666
  1082   000396                     u1800:
  1083   000396                     
  1084                           ;main.c: 392:                 {;main.c: 393:                     TMR2_StartTimer();
  1085   000396  EC75  F009         	call	_TMR2_StartTimer	;wreg free
  1086                           
  1087                           ;main.c: 395:                     while (flag_interrupt_2 != 1) {
  1088   00039A  EFD1  F001         	goto	l3312
  1089   00039E                     l3310:
  1090                           
  1091                           ;main.c: 397:                         can_transmit();
  1092   00039E  EC84  F007         	call	_can_transmit	;wreg free
  1093   0003A2                     l3312:
  1094                           
  1095                           ;main.c: 395:                     while (flag_interrupt_2 != 1) {
  1096   0003A2  0409               	decf	_flag_interrupt_2^0,w,c
  1097   0003A4  100A               	iorwf	(_flag_interrupt_2+1)^0,w,c
  1098   0003A6  A4D8               	btfss	status,2,c
  1099   0003A8  EFD8  F001         	goto	u1811
  1100   0003AC  EFDA  F001         	goto	u1810
  1101   0003B0                     u1811:
  1102   0003B0  EFCF  F001         	goto	l3310
  1103   0003B4                     u1810:
  1104   0003B4  9689               	bcf	137,3,c	;volatile
  1105   0003B6                     
  1106                           ;main.c: 401:                     vehicule_verrouille = 0x00;
  1107   0003B6  0E00               	movlw	0
  1108   0003B8  6E13               	movwf	_vehicule_verrouille^0,c
  1109                           
  1110                           ;main.c: 402:                     flag_interrupt_2 = 0;
  1111   0003BA  0E00               	movlw	0
  1112   0003BC  6E0A               	movwf	(_flag_interrupt_2+1)^0,c
  1113   0003BE  0E00               	movlw	0
  1114   0003C0  6E09               	movwf	_flag_interrupt_2^0,c
  1115                           
  1116                           ;main.c: 403:                     prochaine_etape = etape_fonction;
  1117   0003C2  0E03               	movlw	3
  1118   0003C4  0100               	movlb	0	; () banked
  1119   0003C6  6F77               	movwf	main@prochaine_etape& (0+255),b
  1120                           
  1121                           ;main.c: 404:                 }
  1122   0003C8  EF34  F002         	goto	l3336
  1123   0003CC                     l666:
  1124   0003CC  A280               	btfss	128,1,c	;volatile
  1125   0003CE  EFEB  F001         	goto	u1821
  1126   0003D2  EFED  F001         	goto	u1820
  1127   0003D6                     u1821:
  1128   0003D6  EF15  F002         	goto	l3326
  1129   0003DA                     u1820:
  1130   0003DA  0E03               	movlw	3
  1131   0003DC  1817               	xorwf	_mode_transmition^0,w,c
  1132   0003DE  A4D8               	btfss	status,2,c
  1133   0003E0  EFF4  F001         	goto	u1831
  1134   0003E4  EFF6  F001         	goto	u1830
  1135   0003E8                     u1831:
  1136   0003E8  EF15  F002         	goto	l3326
  1137   0003EC                     u1830:
  1138   0003EC                     
  1139                           ;main.c: 406:                 {;main.c: 407:                     TMR2_StartTimer();
  1140   0003EC  EC75  F009         	call	_TMR2_StartTimer	;wreg free
  1141                           
  1142                           ;main.c: 409:                     while (flag_interrupt_2 != 1) {
  1143   0003F0  EFFC  F001         	goto	l3322
  1144   0003F4                     l3320:
  1145                           
  1146                           ;main.c: 411:                         can_transmit();
  1147   0003F4  EC84  F007         	call	_can_transmit	;wreg free
  1148   0003F8                     l3322:
  1149                           
  1150                           ;main.c: 409:                     while (flag_interrupt_2 != 1) {
  1151   0003F8  0409               	decf	_flag_interrupt_2^0,w,c
  1152   0003FA  100A               	iorwf	(_flag_interrupt_2+1)^0,w,c
  1153   0003FC  A4D8               	btfss	status,2,c
  1154   0003FE  EF03  F002         	goto	u1841
  1155   000402  EF05  F002         	goto	u1840
  1156   000406                     u1841:
  1157   000406  EFFA  F001         	goto	l3320
  1158   00040A                     u1840:
  1159   00040A  8A89               	bsf	137,5,c	;volatile
  1160   00040C                     
  1161                           ;main.c: 415:                     vehicule_demarre = 0x01;
  1162   00040C  0E01               	movlw	1
  1163   00040E  6E15               	movwf	_vehicule_demarre^0,c
  1164                           
  1165                           ;main.c: 416:                     flag_interrupt_2 = 0;
  1166   000410  0E00               	movlw	0
  1167   000412  6E0A               	movwf	(_flag_interrupt_2+1)^0,c
  1168   000414  0E00               	movlw	0
  1169   000416  6E09               	movwf	_flag_interrupt_2^0,c
  1170                           
  1171                           ;main.c: 417:                     flag_bouton_demarre_deja_appuye = 1;
  1172   000418  0E00               	movlw	0
  1173   00041A  0100               	movlb	0	; () banked
  1174   00041C  6F79               	movwf	(_flag_bouton_demarre_deja_appuye+1)& (0+255),b
  1175   00041E  0E01               	movlw	1
  1176   000420  6F78               	movwf	_flag_bouton_demarre_deja_appuye& (0+255),b
  1177                           
  1178                           ;main.c: 418:                     prochaine_etape = etape_demarrage;
  1179   000422  0E05               	movlw	5
  1180   000424  6F77               	movwf	main@prochaine_etape& (0+255),b
  1181                           
  1182                           ;main.c: 419:                 } else if ((vitesse_vehicule >= 15 || vitesse_vehicule <= 
      +                          -15) && vehicule_demarre == 0x01) {
  1183   000426  EF34  F002         	goto	l3336
  1184   00042A                     l3326:
  1185   00042A  5016               	movf	_vitesse_vehicule^0,w,c
  1186   00042C  0A80               	xorlw	128
  1187   00042E  0F71               	addlw	-143
  1188   000430  B0D8               	btfsc	status,0,c
  1189   000432  EF1D  F002         	goto	u1851
  1190   000436  EF1F  F002         	goto	u1850
  1191   00043A                     u1851:
  1192   00043A  EF29  F002         	goto	l3330
  1193   00043E                     u1850:
  1194   00043E  5016               	movf	_vitesse_vehicule^0,w,c
  1195   000440  0A80               	xorlw	128
  1196   000442  0F8E               	addlw	142
  1197   000444  B0D8               	btfsc	status,0,c
  1198   000446  EF27  F002         	goto	u1861
  1199   00044A  EF29  F002         	goto	u1860
  1200   00044E                     u1861:
  1201   00044E  EF34  F002         	goto	l3336
  1202   000452                     u1860:
  1203   000452                     l3330:
  1204   000452  0415               	decf	_vehicule_demarre^0,w,c
  1205   000454  A4D8               	btfss	status,2,c
  1206   000456  EF2F  F002         	goto	u1871
  1207   00045A  EF31  F002         	goto	u1870
  1208   00045E                     u1871:
  1209   00045E  EF34  F002         	goto	l3336
  1210   000462                     u1870:
  1211   000462                     
  1212                           ;main.c: 421:                     vehicule_verrouille = 0x01;
  1213   000462  0E01               	movlw	1
  1214   000464  6E13               	movwf	_vehicule_verrouille^0,c
  1215   000466  8689               	bsf	137,3,c	;volatile
  1216   000468                     l3336:
  1217                           
  1218                           ;main.c: 428:                 if (PORTAbits.RA2 == 0) {
  1219   000468  B480               	btfsc	128,2,c	;volatile
  1220   00046A  EF39  F002         	goto	u1881
  1221   00046E  EF3B  F002         	goto	u1880
  1222   000472                     u1881:
  1223   000472  EF85  F000         	goto	l3204
  1224   000476                     u1880:
  1225   000476  EFB9  F001         	goto	l3300
  1226   00047A                     l3340:
  1227                           
  1228                           ; BSR set to: 0
  1229                           ;main.c: 438:                 TMR2_StopTimer();
  1230   00047A  EC73  F009         	call	_TMR2_StopTimer	;wreg free
  1231   00047E                     
  1232                           ;main.c: 440:                 can_transmit();
  1233   00047E  EC84  F007         	call	_can_transmit	;wreg free
  1234   000482                     
  1235                           ;main.c: 442:                 if (PORTAbits.RA1 == 1 && mode_transmition == 3)
  1236   000482  A280               	btfss	128,1,c	;volatile
  1237   000484  EF46  F002         	goto	u1891
  1238   000488  EF48  F002         	goto	u1890
  1239   00048C                     u1891:
  1240   00048C  EF6C  F002         	goto	l687
  1241   000490                     u1890:
  1242   000490  0E03               	movlw	3
  1243   000492  1817               	xorwf	_mode_transmition^0,w,c
  1244   000494  A4D8               	btfss	status,2,c
  1245   000496  EF4F  F002         	goto	u1901
  1246   00049A  EF51  F002         	goto	u1900
  1247   00049E                     u1901:
  1248   00049E  EF6C  F002         	goto	l687
  1249   0004A2                     u1900:
  1250   0004A2                     
  1251                           ;main.c: 443:                 {;main.c: 444:                     TMR2_StartTimer();
  1252   0004A2  EC75  F009         	call	_TMR2_StartTimer	;wreg free
  1253                           
  1254                           ;main.c: 446:                     while (flag_interrupt_2 != 1) {
  1255   0004A6  EF57  F002         	goto	l3352
  1256   0004AA                     l3350:
  1257                           
  1258                           ;main.c: 448:                         can_transmit();
  1259   0004AA  EC84  F007         	call	_can_transmit	;wreg free
  1260   0004AE                     l3352:
  1261                           
  1262                           ;main.c: 446:                     while (flag_interrupt_2 != 1) {
  1263   0004AE  0409               	decf	_flag_interrupt_2^0,w,c
  1264   0004B0  100A               	iorwf	(_flag_interrupt_2+1)^0,w,c
  1265   0004B2  A4D8               	btfss	status,2,c
  1266   0004B4  EF5E  F002         	goto	u1911
  1267   0004B8  EF60  F002         	goto	u1910
  1268   0004BC                     u1911:
  1269   0004BC  EF55  F002         	goto	l3350
  1270   0004C0                     u1910:
  1271   0004C0  9A89               	bcf	137,5,c	;volatile
  1272   0004C2                     
  1273                           ;main.c: 452:                     vehicule_demarre = 0x00;
  1274   0004C2  0E00               	movlw	0
  1275   0004C4  6E15               	movwf	_vehicule_demarre^0,c
  1276                           
  1277                           ;main.c: 453:                     flag_interrupt_2 = 0;
  1278   0004C6  0E00               	movlw	0
  1279   0004C8  6E0A               	movwf	(_flag_interrupt_2+1)^0,c
  1280   0004CA  0E00               	movlw	0
  1281   0004CC  6E09               	movwf	_flag_interrupt_2^0,c
  1282                           
  1283                           ;main.c: 454:                     prochaine_etape = etape_fonction;
  1284   0004CE  0E03               	movlw	3
  1285   0004D0  0100               	movlb	0	; () banked
  1286   0004D2  6F77               	movwf	main@prochaine_etape& (0+255),b
  1287                           
  1288                           ;main.c: 455:                 } else if (PORTAbits.RA0 == 1)
  1289   0004D4  EF85  F000         	goto	l3204
  1290   0004D8                     l687:
  1291   0004D8  A080               	btfss	128,0,c	;volatile
  1292   0004DA  EF71  F002         	goto	u1921
  1293   0004DE  EF73  F002         	goto	u1920
  1294   0004E2                     u1921:
  1295   0004E2  EF8E  F002         	goto	l3364
  1296   0004E6                     u1920:
  1297   0004E6                     
  1298                           ;main.c: 456:                 {;main.c: 457:                     TMR2_StartTimer();
  1299   0004E6  EC75  F009         	call	_TMR2_StartTimer	;wreg free
  1300                           
  1301                           ;main.c: 459:                     while (flag_interrupt_2 != 1) {
  1302   0004EA  EF79  F002         	goto	l3360
  1303   0004EE                     l3358:
  1304                           
  1305                           ;main.c: 461:                         can_transmit();
  1306   0004EE  EC84  F007         	call	_can_transmit	;wreg free
  1307   0004F2                     l3360:
  1308                           
  1309                           ;main.c: 459:                     while (flag_interrupt_2 != 1) {
  1310   0004F2  0409               	decf	_flag_interrupt_2^0,w,c
  1311   0004F4  100A               	iorwf	(_flag_interrupt_2+1)^0,w,c
  1312   0004F6  A4D8               	btfss	status,2,c
  1313   0004F8  EF80  F002         	goto	u1931
  1314   0004FC  EF82  F002         	goto	u1930
  1315   000500                     u1931:
  1316   000500  EF77  F002         	goto	l3358
  1317   000504                     u1930:
  1318   000504  8689               	bsf	137,3,c	;volatile
  1319   000506                     
  1320                           ;main.c: 465:                     vehicule_verrouille = 0x01;
  1321   000506  0E01               	movlw	1
  1322   000508  6E13               	movwf	_vehicule_verrouille^0,c
  1323                           
  1324                           ;main.c: 466:                     flag_interrupt_2 = 0;
  1325   00050A  0E00               	movlw	0
  1326   00050C  6E0A               	movwf	(_flag_interrupt_2+1)^0,c
  1327   00050E  0E00               	movlw	0
  1328   000510  6E09               	movwf	_flag_interrupt_2^0,c
  1329                           
  1330                           ;main.c: 467:                     prochaine_etape = etape_verouiller;
  1331   000512  0E04               	movlw	4
  1332   000514  0100               	movlb	0	; () banked
  1333   000516  6F77               	movwf	main@prochaine_etape& (0+255),b
  1334                           
  1335                           ;main.c: 469:                 } else if ((vitesse_vehicule >= 15 || vitesse_vehicule <= 
      +                          -15) && vehicule_demarre == 0x01) {
  1336   000518  EF85  F000         	goto	l3204
  1337   00051C                     l3364:
  1338   00051C  5016               	movf	_vitesse_vehicule^0,w,c
  1339   00051E  0A80               	xorlw	128
  1340   000520  0F71               	addlw	-143
  1341   000522  B0D8               	btfsc	status,0,c
  1342   000524  EF96  F002         	goto	u1941
  1343   000528  EF98  F002         	goto	u1940
  1344   00052C                     u1941:
  1345   00052C  EFA2  F002         	goto	l3368
  1346   000530                     u1940:
  1347   000530  5016               	movf	_vitesse_vehicule^0,w,c
  1348   000532  0A80               	xorlw	128
  1349   000534  0F8E               	addlw	142
  1350   000536  B0D8               	btfsc	status,0,c
  1351   000538  EFA0  F002         	goto	u1951
  1352   00053C  EFA2  F002         	goto	u1950
  1353   000540                     u1951:
  1354   000540  EFAF  F002         	goto	l701
  1355   000544                     u1950:
  1356   000544                     l3368:
  1357   000544  0415               	decf	_vehicule_demarre^0,w,c
  1358   000546  A4D8               	btfss	status,2,c
  1359   000548  EFA8  F002         	goto	u1961
  1360   00054C  EFAA  F002         	goto	u1960
  1361   000550                     u1961:
  1362   000550  EFAF  F002         	goto	l701
  1363   000554                     u1960:
  1364   000554  8689               	bsf	137,3,c	;volatile
  1365   000556                     
  1366                           ;main.c: 471:                     vehicule_verrouille = 0x01;
  1367   000556  0E01               	movlw	1
  1368   000558  6E13               	movwf	_vehicule_verrouille^0,c
  1369                           
  1370                           ;main.c: 472:                 } else if (PORTAbits.RA2 == 0) {
  1371   00055A  EF85  F000         	goto	l3204
  1372   00055E                     l701:
  1373   00055E  B480               	btfsc	128,2,c	;volatile
  1374   000560  EFB4  F002         	goto	u1971
  1375   000564  EFB6  F002         	goto	u1970
  1376   000568                     u1971:
  1377   000568  EF10  F001         	goto	l622
  1378   00056C                     u1970:
  1379   00056C  EFB9  F001         	goto	l3300
  1380   000570                     l3376:
  1381   000570  0100               	movlb	0	; () banked
  1382   000572  5177               	movf	main@prochaine_etape& (0+255),w,b
  1383   000574  6F75               	movwf	??_main& (0+255),b
  1384   000576  6B76               	clrf	(??_main+1)& (0+255),b
  1385                           
  1386                           ; Switch on 2 bytes has been partitioned into a top level switch of size 1, and 1 sub-sw
      +                          itches
  1387                           ; Switch size 1, requested type "simple"
  1388                           ; Number of cases is 1, Range of values is 0 to 0
  1389                           ; switch strategies available:
  1390                           ; Name         Instructions Cycles
  1391                           ; simple_byte            4     3 (average)
  1392                           ;	Chosen strategy is simple_byte
  1393   000578  5176               	movf	(??_main+1)& (0+255),w,b
  1394   00057A  0A00               	xorlw	0	; case 0
  1395   00057C  B4D8               	btfsc	status,2,c
  1396   00057E  EFC3  F002         	goto	l3444
  1397   000582  EF85  F000         	goto	l3204
  1398   000586                     l3444:
  1399                           
  1400                           ; BSR set to: 0
  1401                           ; Switch size 1, requested type "simple"
  1402                           ; Number of cases is 5, Range of values is 1 to 5
  1403                           ; switch strategies available:
  1404                           ; Name         Instructions Cycles
  1405                           ; simple_byte           16     9 (average)
  1406                           ;	Chosen strategy is simple_byte
  1407   000586  5175               	movf	??_main& (0+255),w,b
  1408   000588  0A01               	xorlw	1	; case 1
  1409   00058A  B4D8               	btfsc	status,2,c
  1410   00058C  EF89  F000         	goto	l3206
  1411   000590  0A03               	xorlw	3	; case 2
  1412   000592  B4D8               	btfsc	status,2,c
  1413   000594  EFA5  F000         	goto	l620
  1414   000598  0A01               	xorlw	1	; case 3
  1415   00059A  B4D8               	btfsc	status,2,c
  1416   00059C  EF12  F001         	goto	l3250
  1417   0005A0  0A07               	xorlw	7	; case 4
  1418   0005A2  B4D8               	btfsc	status,2,c
  1419   0005A4  EFC0  F001         	goto	l3302
  1420   0005A8  0A01               	xorlw	1	; case 5
  1421   0005AA  B4D8               	btfsc	status,2,c
  1422   0005AC  EF3D  F002         	goto	l3340
  1423   0005B0  EF85  F000         	goto	l3204
  1424   0005B4  EF54  F000         	goto	start
  1425   0005B8                     __end_of_main:
  1426                           	callstack 0
  1427                           
  1428 ;; *************** function _can_transmit *****************
  1429 ;; Defined at:
  1430 ;;		line 96 in file "main.c"
  1431 ;; Parameters:    Size  Location     Type
  1432 ;;		None
  1433 ;; Auto vars:     Size  Location     Type
  1434 ;;		None
  1435 ;; Return value:  Size  Location     Type
  1436 ;;                  1    wreg      void 
  1437 ;; Registers used:
  1438 ;;		wreg, fsr2l, fsr2h, status,2, status,0, cstack
  1439 ;; Tracked objects:
  1440 ;;		On entry : 0/0
  1441 ;;		On exit  : 0/0
  1442 ;;		Unchanged: 0/0
  1443 ;; Data sizes:     COMRAM   BANK0   BANK1   BANK2   BANK3   BANK4   BANK5   BANK6   BANK7   BANK8   BANK9  BANK10  BANK1
      +1  BANK12  BANK13  BANK14
  1444 ;;      Params:         0       0       0       0       0       0       0       0       0       0       0       0       
      +0       0       0       0
  1445 ;;      Locals:         0       0       0       0       0       0       0       0       0       0       0       0       
      +0       0       0       0
  1446 ;;      Temps:          0       2       0       0       0       0       0       0       0       0       0       0       
      +0       0       0       0
  1447 ;;      Totals:         0       2       0       0       0       0       0       0       0       0       0       0       
      +0       0       0       0
  1448 ;;Total ram usage:        2 bytes
  1449 ;; Hardware stack levels used: 1
  1450 ;; Hardware stack levels required when called: 7
  1451 ;; This function calls:
  1452 ;;		_CAN_transmit
  1453 ;; This function is called by:
  1454 ;;		_main
  1455 ;; This function uses a non-reentrant model
  1456 ;;
  1457                           
  1458                           	psect	text1
  1459   000F08                     __ptext1:
  1460                           	callstack 0
  1461   000F08                     _can_transmit:
  1462                           	callstack 23
  1463   000F08                     
  1464                           ;main.c: 98:     switch (compteurTTCAN) {
  1465   000F08  EFBB  F007         	goto	l3168
  1466   000F0C                     l3114:
  1467                           
  1468                           ; BSR set to: 0
  1469                           ;main.c: 102:             txMessage.frame.id = 0x11 ;;
  1470   000F0C  0E11               	movlw	17
  1471   000F0E  6E19               	movwf	(_txMessage+1)^0,c
  1472   000F10  0E00               	movlw	0
  1473   000F12  6E1A               	movwf	(_txMessage+2)^0,c
  1474   000F14  0E00               	movlw	0
  1475   000F16  6E1B               	movwf	(_txMessage+3)^0,c
  1476   000F18  0E00               	movlw	0
  1477   000F1A  6E1C               	movwf	(_txMessage+4)^0,c
  1478                           
  1479                           ;main.c: 103:             txMessage.frame.dlc = 1;
  1480   000F1C  0E01               	movlw	1
  1481   000F1E  6E1D               	movwf	(_txMessage+5)^0,c
  1482   000F20                     
  1483                           ; BSR set to: 0
  1484                           ;main.c: 104:             txMessage.frame.data0 = vehicule_demarre;
  1485   000F20  C015  F01E         	movff	_vehicule_demarre,_txMessage+6
  1486   000F24                     l3118:
  1487                           
  1488                           ;main.c: 105:             CAN_transmit(&txMessage);
  1489   000F24  0E18               	movlw	low _txMessage
  1490   000F26  0100               	movlb	0	; () banked
  1491   000F28  6F6D               	movwf	CAN_transmit@tempCanMsg& (0+255),b
  1492   000F2A  0E00               	movlw	high _txMessage
  1493   000F2C  6F6E               	movwf	(CAN_transmit@tempCanMsg+1)& (0+255),b
  1494   000F2E  ECDC  F002         	call	_CAN_transmit	;wreg free
  1495                           
  1496                           ;main.c: 107:             break;
  1497   000F32  EFE2  F007         	goto	l592
  1498   000F36                     l3138:
  1499                           
  1500                           ; BSR set to: 0
  1501                           ;main.c: 142:             txMessage.frame.id = 0x12 ;;
  1502   000F36  0E12               	movlw	18
  1503   000F38  6E19               	movwf	(_txMessage+1)^0,c
  1504   000F3A  0E00               	movlw	0
  1505   000F3C  6E1A               	movwf	(_txMessage+2)^0,c
  1506   000F3E  0E00               	movlw	0
  1507   000F40  6E1B               	movwf	(_txMessage+3)^0,c
  1508   000F42  0E00               	movlw	0
  1509   000F44  6E1C               	movwf	(_txMessage+4)^0,c
  1510                           
  1511                           ;main.c: 143:             txMessage.frame.dlc = 1;
  1512   000F46  0E01               	movlw	1
  1513   000F48  6E1D               	movwf	(_txMessage+5)^0,c
  1514   000F4A                     
  1515                           ; BSR set to: 0
  1516                           ;main.c: 144:             txMessage.frame.data0 = cle_inseree;
  1517   000F4A  C014  F01E         	movff	_cle_inseree,_txMessage+6
  1518   000F4E                     
  1519                           ; BSR set to: 0
  1520                           ;main.c: 145:             CAN_transmit(&txMessage);
  1521   000F4E  0E18               	movlw	low _txMessage
  1522   000F50  6F6D               	movwf	CAN_transmit@tempCanMsg& (0+255),b
  1523   000F52  0E00               	movlw	high _txMessage
  1524   000F54  6F6E               	movwf	(CAN_transmit@tempCanMsg+1)& (0+255),b
  1525   000F56  ECDC  F002         	call	_CAN_transmit	;wreg free
  1526   000F5A                     
  1527                           ;main.c: 147:             txMessage.frame.id = 0x13 ;;
  1528   000F5A  0E13               	movlw	19
  1529   000F5C  6E19               	movwf	(_txMessage+1)^0,c
  1530   000F5E  0E00               	movlw	0
  1531   000F60  6E1A               	movwf	(_txMessage+2)^0,c
  1532   000F62  0E00               	movlw	0
  1533   000F64  6E1B               	movwf	(_txMessage+3)^0,c
  1534   000F66  0E00               	movlw	0
  1535   000F68  6E1C               	movwf	(_txMessage+4)^0,c
  1536   000F6A                     
  1537                           ;main.c: 148:             txMessage.frame.dlc = 1;
  1538   000F6A  0E01               	movlw	1
  1539   000F6C  6E1D               	movwf	(_txMessage+5)^0,c
  1540   000F6E                     
  1541                           ;main.c: 149:             txMessage.frame.data0 = vehicule_verrouille;
  1542   000F6E  C013  F01E         	movff	_vehicule_verrouille,_txMessage+6
  1543   000F72  EF92  F007         	goto	l3118
  1544   000F76                     l3168:
  1545   000F76  C00B  F073         	movff	_compteurTTCAN,??_can_transmit
  1546   000F7A  C00C  F074         	movff	_compteurTTCAN+1,??_can_transmit+1
  1547                           
  1548                           ; Switch on 2 bytes has been partitioned into a top level switch of size 1, and 1 sub-sw
      +                          itches
  1549                           ; Switch size 1, requested type "simple"
  1550                           ; Number of cases is 1, Range of values is 0 to 0
  1551                           ; switch strategies available:
  1552                           ; Name         Instructions Cycles
  1553                           ; simple_byte            4     3 (average)
  1554                           ;	Chosen strategy is simple_byte
  1555   000F7E  0100               	movlb	0	; () banked
  1556   000F80  5174               	movf	(??_can_transmit+1)& (0+255),w,b
  1557   000F82  0A00               	xorlw	0	; case 0
  1558   000F84  B4D8               	btfsc	status,2,c
  1559   000F86  EFC7  F007         	goto	l3446
  1560   000F8A  EFE2  F007         	goto	l592
  1561   000F8E                     l3446:
  1562                           
  1563                           ; BSR set to: 0
  1564                           ; Switch size 1, requested type "simple"
  1565                           ; Number of cases is 6, Range of values is 2 to 15
  1566                           ; switch strategies available:
  1567                           ; Name         Instructions Cycles
  1568                           ; simple_byte           19    10 (average)
  1569                           ;	Chosen strategy is simple_byte
  1570   000F8E  5173               	movf	??_can_transmit& (0+255),w,b
  1571   000F90  0A02               	xorlw	2	; case 2
  1572   000F92  B4D8               	btfsc	status,2,c
  1573   000F94  EF86  F007         	goto	l3114
  1574   000F98  0A07               	xorlw	7	; case 5
  1575   000F9A  B4D8               	btfsc	status,2,c
  1576   000F9C  EF9B  F007         	goto	l3138
  1577   000FA0  0A03               	xorlw	3	; case 6
  1578   000FA2  B4D8               	btfsc	status,2,c
  1579   000FA4  EF86  F007         	goto	l3114
  1580   000FA8  0A0D               	xorlw	13	; case 11
  1581   000FAA  B4D8               	btfsc	status,2,c
  1582   000FAC  EF86  F007         	goto	l3114
  1583   000FB0  0A05               	xorlw	5	; case 14
  1584   000FB2  B4D8               	btfsc	status,2,c
  1585   000FB4  EF9B  F007         	goto	l3138
  1586   000FB8  0A01               	xorlw	1	; case 15
  1587   000FBA  B4D8               	btfsc	status,2,c
  1588   000FBC  EF86  F007         	goto	l3114
  1589   000FC0  EFE2  F007         	goto	l592
  1590   000FC4                     l592:
  1591   000FC4  0012               	return		;funcret
  1592   000FC6                     __end_of_can_transmit:
  1593                           	callstack 0
  1594                           
  1595 ;; *************** function _CAN_transmit *****************
  1596 ;; Defined at:
  1597 ;;		line 166 in file "mcc_generated_files/ecan.c"
  1598 ;; Parameters:    Size  Location     Type
  1599 ;;  tempCanMsg      2   13[BANK0 ] PTR struct .
  1600 ;;		 -> txMessage(14), 
  1601 ;; Auto vars:     Size  Location     Type
  1602 ;;  tempSIDL        1   18[BANK0 ] unsigned char 
  1603 ;;  tempSIDH        1   17[BANK0 ] unsigned char 
  1604 ;;  tempEIDL        1   16[BANK0 ] unsigned char 
  1605 ;;  tempEIDH        1   15[BANK0 ] unsigned char 
  1606 ;;  returnValue     1    0        unsigned char 
  1607 ;; Return value:  Size  Location     Type
  1608 ;;                  1    wreg      unsigned char 
  1609 ;; Registers used:
  1610 ;;		wreg, fsr2l, fsr2h, status,2, status,0, cstack
  1611 ;; Tracked objects:
  1612 ;;		On entry : 0/0
  1613 ;;		On exit  : 0/0
  1614 ;;		Unchanged: 0/0
  1615 ;; Data sizes:     COMRAM   BANK0   BANK1   BANK2   BANK3   BANK4   BANK5   BANK6   BANK7   BANK8   BANK9  BANK10  BANK1
      +1  BANK12  BANK13  BANK14
  1616 ;;      Params:         0       2       0       0       0       0       0       0       0       0       0       0       
      +0       0       0       0
  1617 ;;      Locals:         0       4       0       0       0       0       0       0       0       0       0       0       
      +0       0       0       0
  1618 ;;      Temps:          0       0       0       0       0       0       0       0       0       0       0       0       
      +0       0       0       0
  1619 ;;      Totals:         0       6       0       0       0       0       0       0       0       0       0       0       
      +0       0       0       0
  1620 ;;Total ram usage:        6 bytes
  1621 ;; Hardware stack levels used: 1
  1622 ;; Hardware stack levels required when called: 6
  1623 ;; This function calls:
  1624 ;;		_convertCANid2Reg
  1625 ;; This function is called by:
  1626 ;;		_can_transmit
  1627 ;; This function uses a non-reentrant model
  1628 ;;
  1629                           
  1630                           	psect	text2
  1631   0005B8                     __ptext2:
  1632                           	callstack 0
  1633   0005B8                     _CAN_transmit:
  1634                           	callstack 23
  1635   0005B8                     
  1636                           ;mcc_generated_files/ecan.c: 167:     uint8_t tempEIDH = 0;
  1637   0005B8  0E00               	movlw	0
  1638   0005BA  0100               	movlb	0	; () banked
  1639   0005BC  6F6F               	movwf	CAN_transmit@tempEIDH& (0+255),b
  1640                           
  1641                           ;mcc_generated_files/ecan.c: 168:     uint8_t tempEIDL = 0;
  1642   0005BE  0E00               	movlw	0
  1643   0005C0  6F70               	movwf	CAN_transmit@tempEIDL& (0+255),b
  1644                           
  1645                           ;mcc_generated_files/ecan.c: 169:     uint8_t tempSIDH = 0;
  1646   0005C2  0E00               	movlw	0
  1647   0005C4  6F71               	movwf	CAN_transmit@tempSIDH& (0+255),b
  1648                           
  1649                           ;mcc_generated_files/ecan.c: 170:     uint8_t tempSIDL = 0;
  1650   0005C6  0E00               	movlw	0
  1651   0005C8  6F72               	movwf	CAN_transmit@tempSIDL& (0+255),b
  1652   0005CA                     
  1653                           ; BSR set to: 0
  1654                           ;mcc_generated_files/ecan.c: 174:     if (TXB0CONbits.TXREQ != 1)
  1655   0005CA  010F               	movlb	15	; () banked
  1656   0005CC  B720               	btfsc	32,3,b	;volatile
  1657   0005CE  EFEB  F002         	goto	u1561
  1658   0005D2  EFED  F002         	goto	u1560
  1659   0005D6                     u1561:
  1660   0005D6  EF79  F003         	goto	l397
  1661   0005DA                     u1560:
  1662   0005DA                     
  1663                           ; BSR set to: 15
  1664                           ;mcc_generated_files/ecan.c: 175:     {;mcc_generated_files/ecan.c: 176:         convert
      +                          CANid2Reg(tempCanMsg->frame.id, tempCanMsg->frame.idType, &tempEIDH, &tempEIDL, &tempSID
      +                          H, &tempSIDL);
  1665   0005DA  0100               	movlb	0	; () banked
  1666   0005DC  EE20 F001          	lfsr	2,1
  1667   0005E0  516D               	movf	CAN_transmit@tempCanMsg& (0+255),w,b
  1668   0005E2  26D9               	addwf	fsr2l,f,c
  1669   0005E4  516E               	movf	(CAN_transmit@tempCanMsg+1)& (0+255),w,b
  1670   0005E6  22DA               	addwfc	fsr2h,f,c
  1671   0005E8  CFDE F060          	movff	postinc2,convertCANid2Reg@tempPassedInID
  1672   0005EC  CFDE F061          	movff	postinc2,convertCANid2Reg@tempPassedInID+1
  1673   0005F0  CFDE F062          	movff	postinc2,convertCANid2Reg@tempPassedInID+2
  1674   0005F4  CFDE F063          	movff	postinc2,convertCANid2Reg@tempPassedInID+3
  1675   0005F8  C06D  FFD9         	movff	CAN_transmit@tempCanMsg,fsr2l
  1676   0005FC  C06E  FFDA         	movff	CAN_transmit@tempCanMsg+1,fsr2h
  1677   000600  50DF               	movf	indf2,w,c
  1678   000602  6F64               	movwf	convertCANid2Reg@canIdType& (0+255),b
  1679   000604  0E6F               	movlw	low CAN_transmit@tempEIDH
  1680   000606  6F65               	movwf	convertCANid2Reg@passedInEIDH& (0+255),b
  1681   000608  0E00               	movlw	high CAN_transmit@tempEIDH
  1682   00060A  6F66               	movwf	(convertCANid2Reg@passedInEIDH+1)& (0+255),b
  1683   00060C  0E70               	movlw	low CAN_transmit@tempEIDL
  1684   00060E  6F67               	movwf	convertCANid2Reg@passedInEIDL& (0+255),b
  1685   000610  0E00               	movlw	high CAN_transmit@tempEIDL
  1686   000612  6F68               	movwf	(convertCANid2Reg@passedInEIDL+1)& (0+255),b
  1687   000614  0E71               	movlw	low CAN_transmit@tempSIDH
  1688   000616  6F69               	movwf	convertCANid2Reg@passedInSIDH& (0+255),b
  1689   000618  0E00               	movlw	high CAN_transmit@tempSIDH
  1690   00061A  6F6A               	movwf	(convertCANid2Reg@passedInSIDH+1)& (0+255),b
  1691   00061C  0E72               	movlw	low CAN_transmit@tempSIDL
  1692   00061E  6F6B               	movwf	convertCANid2Reg@passedInSIDL& (0+255),b
  1693   000620  0E00               	movlw	high CAN_transmit@tempSIDL
  1694   000622  6F6C               	movwf	(convertCANid2Reg@passedInSIDL+1)& (0+255),b
  1695   000624  ECC5  F005         	call	_convertCANid2Reg	;wreg free
  1696   000628                     
  1697                           ;mcc_generated_files/ecan.c: 178:         TXB0EIDH = tempEIDH;
  1698   000628  C06F  FF23         	movff	CAN_transmit@tempEIDH,3875	;volatile
  1699   00062C                     
  1700                           ;mcc_generated_files/ecan.c: 179:         TXB0EIDL = tempEIDL;
  1701   00062C  C070  FF24         	movff	CAN_transmit@tempEIDL,3876	;volatile
  1702   000630                     
  1703                           ;mcc_generated_files/ecan.c: 180:         TXB0SIDH = tempSIDH;
  1704   000630  C071  FF21         	movff	CAN_transmit@tempSIDH,3873	;volatile
  1705   000634                     
  1706                           ;mcc_generated_files/ecan.c: 181:         TXB0SIDL = tempSIDL;
  1707   000634  C072  FF22         	movff	CAN_transmit@tempSIDL,3874	;volatile
  1708   000638                     
  1709                           ;mcc_generated_files/ecan.c: 182:         TXB0DLC = tempCanMsg->frame.dlc;
  1710   000638  0100               	movlb	0	; () banked
  1711   00063A  EE20 F005          	lfsr	2,5
  1712   00063E  516D               	movf	CAN_transmit@tempCanMsg& (0+255),w,b
  1713   000640  26D9               	addwf	fsr2l,f,c
  1714   000642  516E               	movf	(CAN_transmit@tempCanMsg+1)& (0+255),w,b
  1715   000644  22DA               	addwfc	fsr2h,f,c
  1716   000646  50DF               	movf	indf2,w,c
  1717   000648  010F               	movlb	15	; () banked
  1718   00064A  6F25               	movwf	37,b	;volatile
  1719   00064C                     
  1720                           ; BSR set to: 15
  1721                           ;mcc_generated_files/ecan.c: 183:         TXB0D0 = tempCanMsg->frame.data0;
  1722   00064C  0100               	movlb	0	; () banked
  1723   00064E  EE20 F006          	lfsr	2,6
  1724   000652  516D               	movf	CAN_transmit@tempCanMsg& (0+255),w,b
  1725   000654  26D9               	addwf	fsr2l,f,c
  1726   000656  516E               	movf	(CAN_transmit@tempCanMsg+1)& (0+255),w,b
  1727   000658  22DA               	addwfc	fsr2h,f,c
  1728   00065A  50DF               	movf	indf2,w,c
  1729   00065C  010F               	movlb	15	; () banked
  1730   00065E  6F26               	movwf	38,b	;volatile
  1731   000660                     
  1732                           ; BSR set to: 15
  1733                           ;mcc_generated_files/ecan.c: 184:         TXB0D1 = tempCanMsg->frame.data1;
  1734   000660  0100               	movlb	0	; () banked
  1735   000662  EE20 F007          	lfsr	2,7
  1736   000666  516D               	movf	CAN_transmit@tempCanMsg& (0+255),w,b
  1737   000668  26D9               	addwf	fsr2l,f,c
  1738   00066A  516E               	movf	(CAN_transmit@tempCanMsg+1)& (0+255),w,b
  1739   00066C  22DA               	addwfc	fsr2h,f,c
  1740   00066E  50DF               	movf	indf2,w,c
  1741   000670  010F               	movlb	15	; () banked
  1742   000672  6F27               	movwf	39,b	;volatile
  1743   000674                     
  1744                           ; BSR set to: 15
  1745                           ;mcc_generated_files/ecan.c: 185:         TXB0D2 = tempCanMsg->frame.data2;
  1746   000674  0100               	movlb	0	; () banked
  1747   000676  EE20 F008          	lfsr	2,8
  1748   00067A  516D               	movf	CAN_transmit@tempCanMsg& (0+255),w,b
  1749   00067C  26D9               	addwf	fsr2l,f,c
  1750   00067E  516E               	movf	(CAN_transmit@tempCanMsg+1)& (0+255),w,b
  1751   000680  22DA               	addwfc	fsr2h,f,c
  1752   000682  50DF               	movf	indf2,w,c
  1753   000684  010F               	movlb	15	; () banked
  1754   000686  6F28               	movwf	40,b	;volatile
  1755   000688                     
  1756                           ; BSR set to: 15
  1757                           ;mcc_generated_files/ecan.c: 186:         TXB0D3 = tempCanMsg->frame.data3;
  1758   000688  0100               	movlb	0	; () banked
  1759   00068A  EE20 F009          	lfsr	2,9
  1760   00068E  516D               	movf	CAN_transmit@tempCanMsg& (0+255),w,b
  1761   000690  26D9               	addwf	fsr2l,f,c
  1762   000692  516E               	movf	(CAN_transmit@tempCanMsg+1)& (0+255),w,b
  1763   000694  22DA               	addwfc	fsr2h,f,c
  1764   000696  50DF               	movf	indf2,w,c
  1765   000698  010F               	movlb	15	; () banked
  1766   00069A  6F29               	movwf	41,b	;volatile
  1767   00069C                     
  1768                           ; BSR set to: 15
  1769                           ;mcc_generated_files/ecan.c: 187:         TXB0D4 = tempCanMsg->frame.data4;
  1770   00069C  0100               	movlb	0	; () banked
  1771   00069E  EE20 F00A          	lfsr	2,10
  1772   0006A2  516D               	movf	CAN_transmit@tempCanMsg& (0+255),w,b
  1773   0006A4  26D9               	addwf	fsr2l,f,c
  1774   0006A6  516E               	movf	(CAN_transmit@tempCanMsg+1)& (0+255),w,b
  1775   0006A8  22DA               	addwfc	fsr2h,f,c
  1776   0006AA  50DF               	movf	indf2,w,c
  1777   0006AC  010F               	movlb	15	; () banked
  1778   0006AE  6F2A               	movwf	42,b	;volatile
  1779   0006B0                     
  1780                           ; BSR set to: 15
  1781                           ;mcc_generated_files/ecan.c: 188:         TXB0D5 = tempCanMsg->frame.data5;
  1782   0006B0  0100               	movlb	0	; () banked
  1783   0006B2  EE20 F00B          	lfsr	2,11
  1784   0006B6  516D               	movf	CAN_transmit@tempCanMsg& (0+255),w,b
  1785   0006B8  26D9               	addwf	fsr2l,f,c
  1786   0006BA  516E               	movf	(CAN_transmit@tempCanMsg+1)& (0+255),w,b
  1787   0006BC  22DA               	addwfc	fsr2h,f,c
  1788   0006BE  50DF               	movf	indf2,w,c
  1789   0006C0  010F               	movlb	15	; () banked
  1790   0006C2  6F2B               	movwf	43,b	;volatile
  1791   0006C4                     
  1792                           ; BSR set to: 15
  1793                           ;mcc_generated_files/ecan.c: 189:         TXB0D6 = tempCanMsg->frame.data6;
  1794   0006C4  0100               	movlb	0	; () banked
  1795   0006C6  EE20 F00C          	lfsr	2,12
  1796   0006CA  516D               	movf	CAN_transmit@tempCanMsg& (0+255),w,b
  1797   0006CC  26D9               	addwf	fsr2l,f,c
  1798   0006CE  516E               	movf	(CAN_transmit@tempCanMsg+1)& (0+255),w,b
  1799   0006D0  22DA               	addwfc	fsr2h,f,c
  1800   0006D2  50DF               	movf	indf2,w,c
  1801   0006D4  010F               	movlb	15	; () banked
  1802   0006D6  6F2C               	movwf	44,b	;volatile
  1803   0006D8                     
  1804                           ; BSR set to: 15
  1805                           ;mcc_generated_files/ecan.c: 190:         TXB0D7 = tempCanMsg->frame.data7;
  1806   0006D8  0100               	movlb	0	; () banked
  1807   0006DA  EE20 F00D          	lfsr	2,13
  1808   0006DE  516D               	movf	CAN_transmit@tempCanMsg& (0+255),w,b
  1809   0006E0  26D9               	addwf	fsr2l,f,c
  1810   0006E2  516E               	movf	(CAN_transmit@tempCanMsg+1)& (0+255),w,b
  1811   0006E4  22DA               	addwfc	fsr2h,f,c
  1812   0006E6  50DF               	movf	indf2,w,c
  1813   0006E8  010F               	movlb	15	; () banked
  1814   0006EA  6F2D               	movwf	45,b	;volatile
  1815   0006EC                     
  1816                           ; BSR set to: 15
  1817                           ;mcc_generated_files/ecan.c: 192:         TXB0CONbits.TXREQ = 1;
  1818   0006EC  8720               	bsf	32,3,b	;volatile
  1819   0006EE                     l3024:
  1820                           
  1821                           ; BSR set to: 15
  1822                           ;mcc_generated_files/ecan.c: 195:     }
  1823   0006EE  EF9F  F004         	goto	l402
  1824   0006F2                     l397:
  1825                           
  1826                           ; BSR set to: 15
  1827   0006F2  B710               	btfsc	16,3,b	;volatile
  1828   0006F4  EF7E  F003         	goto	u1571
  1829   0006F8  EF80  F003         	goto	u1570
  1830   0006FC                     u1571:
  1831   0006FC  EF0C  F004         	goto	l399
  1832   000700                     u1570:
  1833   000700                     
  1834                           ; BSR set to: 15
  1835                           ;mcc_generated_files/ecan.c: 197:     {;mcc_generated_files/ecan.c: 199:         convert
      +                          CANid2Reg(tempCanMsg->frame.id, tempCanMsg->frame.idType, &tempEIDH, &tempEIDL, &tempSID
      +                          H, &tempSIDL);
  1836   000700  0100               	movlb	0	; () banked
  1837   000702  EE20 F001          	lfsr	2,1
  1838   000706  516D               	movf	CAN_transmit@tempCanMsg& (0+255),w,b
  1839   000708  26D9               	addwf	fsr2l,f,c
  1840   00070A  516E               	movf	(CAN_transmit@tempCanMsg+1)& (0+255),w,b
  1841   00070C  22DA               	addwfc	fsr2h,f,c
  1842   00070E  CFDE F060          	movff	postinc2,convertCANid2Reg@tempPassedInID
  1843   000712  CFDE F061          	movff	postinc2,convertCANid2Reg@tempPassedInID+1
  1844   000716  CFDE F062          	movff	postinc2,convertCANid2Reg@tempPassedInID+2
  1845   00071A  CFDE F063          	movff	postinc2,convertCANid2Reg@tempPassedInID+3
  1846   00071E  C06D  FFD9         	movff	CAN_transmit@tempCanMsg,fsr2l
  1847   000722  C06E  FFDA         	movff	CAN_transmit@tempCanMsg+1,fsr2h
  1848   000726  50DF               	movf	indf2,w,c
  1849   000728  6F64               	movwf	convertCANid2Reg@canIdType& (0+255),b
  1850   00072A  0E6F               	movlw	low CAN_transmit@tempEIDH
  1851   00072C  6F65               	movwf	convertCANid2Reg@passedInEIDH& (0+255),b
  1852   00072E  0E00               	movlw	high CAN_transmit@tempEIDH
  1853   000730  6F66               	movwf	(convertCANid2Reg@passedInEIDH+1)& (0+255),b
  1854   000732  0E70               	movlw	low CAN_transmit@tempEIDL
  1855   000734  6F67               	movwf	convertCANid2Reg@passedInEIDL& (0+255),b
  1856   000736  0E00               	movlw	high CAN_transmit@tempEIDL
  1857   000738  6F68               	movwf	(convertCANid2Reg@passedInEIDL+1)& (0+255),b
  1858   00073A  0E71               	movlw	low CAN_transmit@tempSIDH
  1859   00073C  6F69               	movwf	convertCANid2Reg@passedInSIDH& (0+255),b
  1860   00073E  0E00               	movlw	high CAN_transmit@tempSIDH
  1861   000740  6F6A               	movwf	(convertCANid2Reg@passedInSIDH+1)& (0+255),b
  1862   000742  0E72               	movlw	low CAN_transmit@tempSIDL
  1863   000744  6F6B               	movwf	convertCANid2Reg@passedInSIDL& (0+255),b
  1864   000746  0E00               	movlw	high CAN_transmit@tempSIDL
  1865   000748  6F6C               	movwf	(convertCANid2Reg@passedInSIDL+1)& (0+255),b
  1866   00074A  ECC5  F005         	call	_convertCANid2Reg	;wreg free
  1867   00074E                     
  1868                           ;mcc_generated_files/ecan.c: 201:         TXB1EIDH = tempEIDH;
  1869   00074E  C06F  FF13         	movff	CAN_transmit@tempEIDH,3859	;volatile
  1870   000752                     
  1871                           ;mcc_generated_files/ecan.c: 202:         TXB1EIDL = tempEIDL;
  1872   000752  C070  FF14         	movff	CAN_transmit@tempEIDL,3860	;volatile
  1873   000756                     
  1874                           ;mcc_generated_files/ecan.c: 203:         TXB1SIDH = tempSIDH;
  1875   000756  C071  FF11         	movff	CAN_transmit@tempSIDH,3857	;volatile
  1876   00075A                     
  1877                           ;mcc_generated_files/ecan.c: 204:         TXB1SIDL = tempSIDL;
  1878   00075A  C072  FF12         	movff	CAN_transmit@tempSIDL,3858	;volatile
  1879   00075E                     
  1880                           ;mcc_generated_files/ecan.c: 205:         TXB1DLC = tempCanMsg->frame.dlc;
  1881   00075E  0100               	movlb	0	; () banked
  1882   000760  EE20 F005          	lfsr	2,5
  1883   000764  516D               	movf	CAN_transmit@tempCanMsg& (0+255),w,b
  1884   000766  26D9               	addwf	fsr2l,f,c
  1885   000768  516E               	movf	(CAN_transmit@tempCanMsg+1)& (0+255),w,b
  1886   00076A  22DA               	addwfc	fsr2h,f,c
  1887   00076C  50DF               	movf	indf2,w,c
  1888   00076E  010F               	movlb	15	; () banked
  1889   000770  6F15               	movwf	21,b	;volatile
  1890   000772                     
  1891                           ; BSR set to: 15
  1892                           ;mcc_generated_files/ecan.c: 206:         TXB1D0 = tempCanMsg->frame.data0;
  1893   000772  0100               	movlb	0	; () banked
  1894   000774  EE20 F006          	lfsr	2,6
  1895   000778  516D               	movf	CAN_transmit@tempCanMsg& (0+255),w,b
  1896   00077A  26D9               	addwf	fsr2l,f,c
  1897   00077C  516E               	movf	(CAN_transmit@tempCanMsg+1)& (0+255),w,b
  1898   00077E  22DA               	addwfc	fsr2h,f,c
  1899   000780  50DF               	movf	indf2,w,c
  1900   000782  010F               	movlb	15	; () banked
  1901   000784  6F16               	movwf	22,b	;volatile
  1902   000786                     
  1903                           ; BSR set to: 15
  1904                           ;mcc_generated_files/ecan.c: 207:         TXB1D1 = tempCanMsg->frame.data1;
  1905   000786  0100               	movlb	0	; () banked
  1906   000788  EE20 F007          	lfsr	2,7
  1907   00078C  516D               	movf	CAN_transmit@tempCanMsg& (0+255),w,b
  1908   00078E  26D9               	addwf	fsr2l,f,c
  1909   000790  516E               	movf	(CAN_transmit@tempCanMsg+1)& (0+255),w,b
  1910   000792  22DA               	addwfc	fsr2h,f,c
  1911   000794  50DF               	movf	indf2,w,c
  1912   000796  010F               	movlb	15	; () banked
  1913   000798  6F17               	movwf	23,b	;volatile
  1914   00079A                     
  1915                           ; BSR set to: 15
  1916                           ;mcc_generated_files/ecan.c: 208:         TXB1D2 = tempCanMsg->frame.data2;
  1917   00079A  0100               	movlb	0	; () banked
  1918   00079C  EE20 F008          	lfsr	2,8
  1919   0007A0  516D               	movf	CAN_transmit@tempCanMsg& (0+255),w,b
  1920   0007A2  26D9               	addwf	fsr2l,f,c
  1921   0007A4  516E               	movf	(CAN_transmit@tempCanMsg+1)& (0+255),w,b
  1922   0007A6  22DA               	addwfc	fsr2h,f,c
  1923   0007A8  50DF               	movf	indf2,w,c
  1924   0007AA  010F               	movlb	15	; () banked
  1925   0007AC  6F18               	movwf	24,b	;volatile
  1926   0007AE                     
  1927                           ; BSR set to: 15
  1928                           ;mcc_generated_files/ecan.c: 209:         TXB1D3 = tempCanMsg->frame.data3;
  1929   0007AE  0100               	movlb	0	; () banked
  1930   0007B0  EE20 F009          	lfsr	2,9
  1931   0007B4  516D               	movf	CAN_transmit@tempCanMsg& (0+255),w,b
  1932   0007B6  26D9               	addwf	fsr2l,f,c
  1933   0007B8  516E               	movf	(CAN_transmit@tempCanMsg+1)& (0+255),w,b
  1934   0007BA  22DA               	addwfc	fsr2h,f,c
  1935   0007BC  50DF               	movf	indf2,w,c
  1936   0007BE  010F               	movlb	15	; () banked
  1937   0007C0  6F19               	movwf	25,b	;volatile
  1938   0007C2                     
  1939                           ; BSR set to: 15
  1940                           ;mcc_generated_files/ecan.c: 210:         TXB1D4 = tempCanMsg->frame.data4;
  1941   0007C2  0100               	movlb	0	; () banked
  1942   0007C4  EE20 F00A          	lfsr	2,10
  1943   0007C8  516D               	movf	CAN_transmit@tempCanMsg& (0+255),w,b
  1944   0007CA  26D9               	addwf	fsr2l,f,c
  1945   0007CC  516E               	movf	(CAN_transmit@tempCanMsg+1)& (0+255),w,b
  1946   0007CE  22DA               	addwfc	fsr2h,f,c
  1947   0007D0  50DF               	movf	indf2,w,c
  1948   0007D2  010F               	movlb	15	; () banked
  1949   0007D4  6F1A               	movwf	26,b	;volatile
  1950   0007D6                     
  1951                           ; BSR set to: 15
  1952                           ;mcc_generated_files/ecan.c: 211:         TXB1D5 = tempCanMsg->frame.data5;
  1953   0007D6  0100               	movlb	0	; () banked
  1954   0007D8  EE20 F00B          	lfsr	2,11
  1955   0007DC  516D               	movf	CAN_transmit@tempCanMsg& (0+255),w,b
  1956   0007DE  26D9               	addwf	fsr2l,f,c
  1957   0007E0  516E               	movf	(CAN_transmit@tempCanMsg+1)& (0+255),w,b
  1958   0007E2  22DA               	addwfc	fsr2h,f,c
  1959   0007E4  50DF               	movf	indf2,w,c
  1960   0007E6  010F               	movlb	15	; () banked
  1961   0007E8  6F1B               	movwf	27,b	;volatile
  1962   0007EA                     
  1963                           ; BSR set to: 15
  1964                           ;mcc_generated_files/ecan.c: 212:         TXB1D6 = tempCanMsg->frame.data6;
  1965   0007EA  0100               	movlb	0	; () banked
  1966   0007EC  EE20 F00C          	lfsr	2,12
  1967   0007F0  516D               	movf	CAN_transmit@tempCanMsg& (0+255),w,b
  1968   0007F2  26D9               	addwf	fsr2l,f,c
  1969   0007F4  516E               	movf	(CAN_transmit@tempCanMsg+1)& (0+255),w,b
  1970   0007F6  22DA               	addwfc	fsr2h,f,c
  1971   0007F8  50DF               	movf	indf2,w,c
  1972   0007FA  010F               	movlb	15	; () banked
  1973   0007FC  6F1C               	movwf	28,b	;volatile
  1974   0007FE                     
  1975                           ; BSR set to: 15
  1976                           ;mcc_generated_files/ecan.c: 213:         TXB1D7 = tempCanMsg->frame.data7;
  1977   0007FE  0100               	movlb	0	; () banked
  1978   000800  EE20 F00D          	lfsr	2,13
  1979   000804  516D               	movf	CAN_transmit@tempCanMsg& (0+255),w,b
  1980   000806  26D9               	addwf	fsr2l,f,c
  1981   000808  516E               	movf	(CAN_transmit@tempCanMsg+1)& (0+255),w,b
  1982   00080A  22DA               	addwfc	fsr2h,f,c
  1983   00080C  50DF               	movf	indf2,w,c
  1984   00080E  010F               	movlb	15	; () banked
  1985   000810  6F1D               	movwf	29,b	;volatile
  1986   000812                     
  1987                           ; BSR set to: 15
  1988                           ;mcc_generated_files/ecan.c: 215:         TXB1CONbits.TXREQ = 1;
  1989   000812  8710               	bsf	16,3,b	;volatile
  1990   000814  EF77  F003         	goto	l3024
  1991   000818                     l399:
  1992                           
  1993                           ; BSR set to: 15
  1994   000818  B700               	btfsc	0,3,b	;volatile
  1995   00081A  EF11  F004         	goto	u1581
  1996   00081E  EF13  F004         	goto	u1580
  1997   000822                     u1581:
  1998   000822  EF9F  F004         	goto	l398
  1999   000826                     u1580:
  2000   000826                     
  2001                           ; BSR set to: 15
  2002                           ;mcc_generated_files/ecan.c: 219:     {;mcc_generated_files/ecan.c: 221:         convert
      +                          CANid2Reg(tempCanMsg->frame.id, tempCanMsg->frame.idType, &tempEIDH, &tempEIDL, &tempSID
      +                          H, &tempSIDL);
  2003   000826  0100               	movlb	0	; () banked
  2004   000828  EE20 F001          	lfsr	2,1
  2005   00082C  516D               	movf	CAN_transmit@tempCanMsg& (0+255),w,b
  2006   00082E  26D9               	addwf	fsr2l,f,c
  2007   000830  516E               	movf	(CAN_transmit@tempCanMsg+1)& (0+255),w,b
  2008   000832  22DA               	addwfc	fsr2h,f,c
  2009   000834  CFDE F060          	movff	postinc2,convertCANid2Reg@tempPassedInID
  2010   000838  CFDE F061          	movff	postinc2,convertCANid2Reg@tempPassedInID+1
  2011   00083C  CFDE F062          	movff	postinc2,convertCANid2Reg@tempPassedInID+2
  2012   000840  CFDE F063          	movff	postinc2,convertCANid2Reg@tempPassedInID+3
  2013   000844  C06D  FFD9         	movff	CAN_transmit@tempCanMsg,fsr2l
  2014   000848  C06E  FFDA         	movff	CAN_transmit@tempCanMsg+1,fsr2h
  2015   00084C  50DF               	movf	indf2,w,c
  2016   00084E  6F64               	movwf	convertCANid2Reg@canIdType& (0+255),b
  2017   000850  0E6F               	movlw	low CAN_transmit@tempEIDH
  2018   000852  6F65               	movwf	convertCANid2Reg@passedInEIDH& (0+255),b
  2019   000854  0E00               	movlw	high CAN_transmit@tempEIDH
  2020   000856  6F66               	movwf	(convertCANid2Reg@passedInEIDH+1)& (0+255),b
  2021   000858  0E70               	movlw	low CAN_transmit@tempEIDL
  2022   00085A  6F67               	movwf	convertCANid2Reg@passedInEIDL& (0+255),b
  2023   00085C  0E00               	movlw	high CAN_transmit@tempEIDL
  2024   00085E  6F68               	movwf	(convertCANid2Reg@passedInEIDL+1)& (0+255),b
  2025   000860  0E71               	movlw	low CAN_transmit@tempSIDH
  2026   000862  6F69               	movwf	convertCANid2Reg@passedInSIDH& (0+255),b
  2027   000864  0E00               	movlw	high CAN_transmit@tempSIDH
  2028   000866  6F6A               	movwf	(convertCANid2Reg@passedInSIDH+1)& (0+255),b
  2029   000868  0E72               	movlw	low CAN_transmit@tempSIDL
  2030   00086A  6F6B               	movwf	convertCANid2Reg@passedInSIDL& (0+255),b
  2031   00086C  0E00               	movlw	high CAN_transmit@tempSIDL
  2032   00086E  6F6C               	movwf	(convertCANid2Reg@passedInSIDL+1)& (0+255),b
  2033   000870  ECC5  F005         	call	_convertCANid2Reg	;wreg free
  2034   000874                     
  2035                           ;mcc_generated_files/ecan.c: 223:         TXB2EIDH = tempEIDH;
  2036   000874  C06F  FF03         	movff	CAN_transmit@tempEIDH,3843	;volatile
  2037   000878                     
  2038                           ;mcc_generated_files/ecan.c: 224:         TXB2EIDL = tempEIDL;
  2039   000878  C070  FF04         	movff	CAN_transmit@tempEIDL,3844	;volatile
  2040   00087C                     
  2041                           ;mcc_generated_files/ecan.c: 225:         TXB2SIDH = tempSIDH;
  2042   00087C  C071  FF01         	movff	CAN_transmit@tempSIDH,3841	;volatile
  2043   000880                     
  2044                           ;mcc_generated_files/ecan.c: 226:         TXB2SIDL = tempSIDL;
  2045   000880  C072  FF02         	movff	CAN_transmit@tempSIDL,3842	;volatile
  2046   000884                     
  2047                           ;mcc_generated_files/ecan.c: 227:         TXB2DLC = tempCanMsg->frame.dlc;
  2048   000884  0100               	movlb	0	; () banked
  2049   000886  EE20 F005          	lfsr	2,5
  2050   00088A  516D               	movf	CAN_transmit@tempCanMsg& (0+255),w,b
  2051   00088C  26D9               	addwf	fsr2l,f,c
  2052   00088E  516E               	movf	(CAN_transmit@tempCanMsg+1)& (0+255),w,b
  2053   000890  22DA               	addwfc	fsr2h,f,c
  2054   000892  50DF               	movf	indf2,w,c
  2055   000894  010F               	movlb	15	; () banked
  2056   000896  6F05               	movwf	5,b	;volatile
  2057   000898                     
  2058                           ; BSR set to: 15
  2059                           ;mcc_generated_files/ecan.c: 228:         TXB2D0 = tempCanMsg->frame.data0;
  2060   000898  0100               	movlb	0	; () banked
  2061   00089A  EE20 F006          	lfsr	2,6
  2062   00089E  516D               	movf	CAN_transmit@tempCanMsg& (0+255),w,b
  2063   0008A0  26D9               	addwf	fsr2l,f,c
  2064   0008A2  516E               	movf	(CAN_transmit@tempCanMsg+1)& (0+255),w,b
  2065   0008A4  22DA               	addwfc	fsr2h,f,c
  2066   0008A6  50DF               	movf	indf2,w,c
  2067   0008A8  010F               	movlb	15	; () banked
  2068   0008AA  6F06               	movwf	6,b	;volatile
  2069   0008AC                     
  2070                           ; BSR set to: 15
  2071                           ;mcc_generated_files/ecan.c: 229:         TXB2D1 = tempCanMsg->frame.data1;
  2072   0008AC  0100               	movlb	0	; () banked
  2073   0008AE  EE20 F007          	lfsr	2,7
  2074   0008B2  516D               	movf	CAN_transmit@tempCanMsg& (0+255),w,b
  2075   0008B4  26D9               	addwf	fsr2l,f,c
  2076   0008B6  516E               	movf	(CAN_transmit@tempCanMsg+1)& (0+255),w,b
  2077   0008B8  22DA               	addwfc	fsr2h,f,c
  2078   0008BA  50DF               	movf	indf2,w,c
  2079   0008BC  010F               	movlb	15	; () banked
  2080   0008BE  6F07               	movwf	7,b	;volatile
  2081   0008C0                     
  2082                           ; BSR set to: 15
  2083                           ;mcc_generated_files/ecan.c: 230:         TXB2D2 = tempCanMsg->frame.data2;
  2084   0008C0  0100               	movlb	0	; () banked
  2085   0008C2  EE20 F008          	lfsr	2,8
  2086   0008C6  516D               	movf	CAN_transmit@tempCanMsg& (0+255),w,b
  2087   0008C8  26D9               	addwf	fsr2l,f,c
  2088   0008CA  516E               	movf	(CAN_transmit@tempCanMsg+1)& (0+255),w,b
  2089   0008CC  22DA               	addwfc	fsr2h,f,c
  2090   0008CE  50DF               	movf	indf2,w,c
  2091   0008D0  010F               	movlb	15	; () banked
  2092   0008D2  6F08               	movwf	8,b	;volatile
  2093   0008D4                     
  2094                           ; BSR set to: 15
  2095                           ;mcc_generated_files/ecan.c: 231:         TXB2D3 = tempCanMsg->frame.data3;
  2096   0008D4  0100               	movlb	0	; () banked
  2097   0008D6  EE20 F009          	lfsr	2,9
  2098   0008DA  516D               	movf	CAN_transmit@tempCanMsg& (0+255),w,b
  2099   0008DC  26D9               	addwf	fsr2l,f,c
  2100   0008DE  516E               	movf	(CAN_transmit@tempCanMsg+1)& (0+255),w,b
  2101   0008E0  22DA               	addwfc	fsr2h,f,c
  2102   0008E2  50DF               	movf	indf2,w,c
  2103   0008E4  010F               	movlb	15	; () banked
  2104   0008E6  6F09               	movwf	9,b	;volatile
  2105   0008E8                     
  2106                           ; BSR set to: 15
  2107                           ;mcc_generated_files/ecan.c: 232:         TXB2D4 = tempCanMsg->frame.data4;
  2108   0008E8  0100               	movlb	0	; () banked
  2109   0008EA  EE20 F00A          	lfsr	2,10
  2110   0008EE  516D               	movf	CAN_transmit@tempCanMsg& (0+255),w,b
  2111   0008F0  26D9               	addwf	fsr2l,f,c
  2112   0008F2  516E               	movf	(CAN_transmit@tempCanMsg+1)& (0+255),w,b
  2113   0008F4  22DA               	addwfc	fsr2h,f,c
  2114   0008F6  50DF               	movf	indf2,w,c
  2115   0008F8  010F               	movlb	15	; () banked
  2116   0008FA  6F0A               	movwf	10,b	;volatile
  2117   0008FC                     
  2118                           ; BSR set to: 15
  2119                           ;mcc_generated_files/ecan.c: 233:         TXB2D5 = tempCanMsg->frame.data5;
  2120   0008FC  0100               	movlb	0	; () banked
  2121   0008FE  EE20 F00B          	lfsr	2,11
  2122   000902  516D               	movf	CAN_transmit@tempCanMsg& (0+255),w,b
  2123   000904  26D9               	addwf	fsr2l,f,c
  2124   000906  516E               	movf	(CAN_transmit@tempCanMsg+1)& (0+255),w,b
  2125   000908  22DA               	addwfc	fsr2h,f,c
  2126   00090A  50DF               	movf	indf2,w,c
  2127   00090C  010F               	movlb	15	; () banked
  2128   00090E  6F0B               	movwf	11,b	;volatile
  2129   000910                     
  2130                           ; BSR set to: 15
  2131                           ;mcc_generated_files/ecan.c: 234:         TXB2D6 = tempCanMsg->frame.data6;
  2132   000910  0100               	movlb	0	; () banked
  2133   000912  EE20 F00C          	lfsr	2,12
  2134   000916  516D               	movf	CAN_transmit@tempCanMsg& (0+255),w,b
  2135   000918  26D9               	addwf	fsr2l,f,c
  2136   00091A  516E               	movf	(CAN_transmit@tempCanMsg+1)& (0+255),w,b
  2137   00091C  22DA               	addwfc	fsr2h,f,c
  2138   00091E  50DF               	movf	indf2,w,c
  2139   000920  010F               	movlb	15	; () banked
  2140   000922  6F0C               	movwf	12,b	;volatile
  2141   000924                     
  2142                           ; BSR set to: 15
  2143                           ;mcc_generated_files/ecan.c: 235:         TXB2D7 = tempCanMsg->frame.data7;
  2144   000924  0100               	movlb	0	; () banked
  2145   000926  EE20 F00D          	lfsr	2,13
  2146   00092A  516D               	movf	CAN_transmit@tempCanMsg& (0+255),w,b
  2147   00092C  26D9               	addwf	fsr2l,f,c
  2148   00092E  516E               	movf	(CAN_transmit@tempCanMsg+1)& (0+255),w,b
  2149   000930  22DA               	addwfc	fsr2h,f,c
  2150   000932  50DF               	movf	indf2,w,c
  2151   000934  010F               	movlb	15	; () banked
  2152   000936  6F0D               	movwf	13,b	;volatile
  2153   000938                     
  2154                           ; BSR set to: 15
  2155                           ;mcc_generated_files/ecan.c: 237:         TXB2CONbits.TXREQ = 1;
  2156   000938  8700               	bsf	0,3,b	;volatile
  2157   00093A  EF77  F003         	goto	l3024
  2158   00093E                     l398:
  2159   00093E                     l402:
  2160                           
  2161                           ; BSR set to: 15
  2162   00093E  0012               	return		;funcret
  2163   000940                     __end_of_CAN_transmit:
  2164                           	callstack 0
  2165                           
  2166 ;; *************** function _convertCANid2Reg *****************
  2167 ;; Defined at:
  2168 ;;		line 403 in file "mcc_generated_files/ecan.c"
  2169 ;; Parameters:    Size  Location     Type
  2170 ;;  tempPassedIn    4    0[BANK0 ] unsigned long 
  2171 ;;  canIdType       1    4[BANK0 ] unsigned char 
  2172 ;;  passedInEIDH    2    5[BANK0 ] PTR unsigned char 
  2173 ;;		 -> CAN_transmit@tempEIDH(1), 
  2174 ;;  passedInEIDL    2    7[BANK0 ] PTR unsigned char 
  2175 ;;		 -> CAN_transmit@tempEIDL(1), 
  2176 ;;  passedInSIDH    2    9[BANK0 ] PTR unsigned char 
  2177 ;;		 -> CAN_transmit@tempSIDH(1), 
  2178 ;;  passedInSIDL    2   11[BANK0 ] PTR unsigned char 
  2179 ;;		 -> CAN_transmit@tempSIDL(1), 
  2180 ;; Auto vars:     Size  Location     Type
  2181 ;;  wipSIDL         1   29[COMRAM] unsigned char 
  2182 ;; Return value:  Size  Location     Type
  2183 ;;                  1    wreg      void 
  2184 ;; Registers used:
  2185 ;;		wreg, fsr2l, fsr2h, status,2, status,0
  2186 ;; Tracked objects:
  2187 ;;		On entry : 0/0
  2188 ;;		On exit  : 0/0
  2189 ;;		Unchanged: 0/0
  2190 ;; Data sizes:     COMRAM   BANK0   BANK1   BANK2   BANK3   BANK4   BANK5   BANK6   BANK7   BANK8   BANK9  BANK10  BANK1
      +1  BANK12  BANK13  BANK14
  2191 ;;      Params:         0      13       0       0       0       0       0       0       0       0       0       0       
      +0       0       0       0
  2192 ;;      Locals:         1       0       0       0       0       0       0       0       0       0       0       0       
      +0       0       0       0
  2193 ;;      Temps:          4       0       0       0       0       0       0       0       0       0       0       0       
      +0       0       0       0
  2194 ;;      Totals:         5      13       0       0       0       0       0       0       0       0       0       0       
      +0       0       0       0
  2195 ;;Total ram usage:       18 bytes
  2196 ;; Hardware stack levels used: 1
  2197 ;; Hardware stack levels required when called: 5
  2198 ;; This function calls:
  2199 ;;		Nothing
  2200 ;; This function is called by:
  2201 ;;		_CAN_transmit
  2202 ;; This function uses a non-reentrant model
  2203 ;;
  2204                           
  2205                           	psect	text3
  2206   000B8A                     __ptext3:
  2207                           	callstack 0
  2208   000B8A                     _convertCANid2Reg:
  2209                           	callstack 23
  2210   000B8A                     
  2211                           ;mcc_generated_files/ecan.c: 407:     if (canIdType == 2) {
  2212   000B8A  0E02               	movlw	2
  2213   000B8C  0100               	movlb	0	; () banked
  2214   000B8E  1964               	xorwf	convertCANid2Reg@canIdType& (0+255),w,b
  2215   000B90  A4D8               	btfss	status,2,c
  2216   000B92  EFCD  F005         	goto	u1511
  2217   000B96  EFCF  F005         	goto	u1510
  2218   000B9A                     u1511:
  2219   000B9A  EF52  F006         	goto	l2918
  2220   000B9E                     u1510:
  2221   000B9E                     
  2222                           ; BSR set to: 0
  2223                           ;mcc_generated_files/ecan.c: 410:         *passedInEIDL = 0xFF & tempPassedInID;
  2224   000B9E  C067  FFD9         	movff	convertCANid2Reg@passedInEIDL,fsr2l
  2225   000BA2  C068  FFDA         	movff	convertCANid2Reg@passedInEIDL+1,fsr2h
  2226   000BA6  C060  FFDF         	movff	convertCANid2Reg@tempPassedInID,indf2
  2227   000BAA                     
  2228                           ; BSR set to: 0
  2229                           ;mcc_generated_files/ecan.c: 411:         tempPassedInID = tempPassedInID >> 8;
  2230   000BAA  C060  F03F         	movff	convertCANid2Reg@tempPassedInID,??_convertCANid2Reg
  2231   000BAE  C061  F040         	movff	convertCANid2Reg@tempPassedInID+1,??_convertCANid2Reg+1
  2232   000BB2  C062  F041         	movff	convertCANid2Reg@tempPassedInID+2,??_convertCANid2Reg+2
  2233   000BB6  C063  F042         	movff	convertCANid2Reg@tempPassedInID+3,??_convertCANid2Reg+3
  2234   000BBA  C040  F03F         	movff	??_convertCANid2Reg+1,??_convertCANid2Reg
  2235   000BBE  C041  F040         	movff	??_convertCANid2Reg+2,??_convertCANid2Reg+1
  2236   000BC2  C042  F041         	movff	??_convertCANid2Reg+3,??_convertCANid2Reg+2
  2237   000BC6  6A42               	clrf	(??_convertCANid2Reg+3)^0,c
  2238   000BC8  C03F  F060         	movff	??_convertCANid2Reg,convertCANid2Reg@tempPassedInID
  2239   000BCC  C040  F061         	movff	??_convertCANid2Reg+1,convertCANid2Reg@tempPassedInID+1
  2240   000BD0  C041  F062         	movff	??_convertCANid2Reg+2,convertCANid2Reg@tempPassedInID+2
  2241   000BD4  C042  F063         	movff	??_convertCANid2Reg+3,convertCANid2Reg@tempPassedInID+3
  2242   000BD8                     
  2243                           ; BSR set to: 0
  2244                           ;mcc_generated_files/ecan.c: 414:         *passedInEIDH = 0xFF & tempPassedInID;
  2245   000BD8  C065  FFD9         	movff	convertCANid2Reg@passedInEIDH,fsr2l
  2246   000BDC  C066  FFDA         	movff	convertCANid2Reg@passedInEIDH+1,fsr2h
  2247   000BE0  C060  FFDF         	movff	convertCANid2Reg@tempPassedInID,indf2
  2248                           
  2249                           ;mcc_generated_files/ecan.c: 415:         tempPassedInID = tempPassedInID >> 8;
  2250   000BE4  C060  F03F         	movff	convertCANid2Reg@tempPassedInID,??_convertCANid2Reg
  2251   000BE8  C061  F040         	movff	convertCANid2Reg@tempPassedInID+1,??_convertCANid2Reg+1
  2252   000BEC  C062  F041         	movff	convertCANid2Reg@tempPassedInID+2,??_convertCANid2Reg+2
  2253   000BF0  C063  F042         	movff	convertCANid2Reg@tempPassedInID+3,??_convertCANid2Reg+3
  2254   000BF4  C040  F03F         	movff	??_convertCANid2Reg+1,??_convertCANid2Reg
  2255   000BF8  C041  F040         	movff	??_convertCANid2Reg+2,??_convertCANid2Reg+1
  2256   000BFC  C042  F041         	movff	??_convertCANid2Reg+3,??_convertCANid2Reg+2
  2257   000C00  6A42               	clrf	(??_convertCANid2Reg+3)^0,c
  2258   000C02  C03F  F060         	movff	??_convertCANid2Reg,convertCANid2Reg@tempPassedInID
  2259   000C06  C040  F061         	movff	??_convertCANid2Reg+1,convertCANid2Reg@tempPassedInID+1
  2260   000C0A  C041  F062         	movff	??_convertCANid2Reg+2,convertCANid2Reg@tempPassedInID+2
  2261   000C0E  C042  F063         	movff	??_convertCANid2Reg+3,convertCANid2Reg@tempPassedInID+3
  2262   000C12                     
  2263                           ; BSR set to: 0
  2264                           ;mcc_generated_files/ecan.c: 419:         wipSIDL = 0x03 & tempPassedInID;
  2265   000C12  5160               	movf	convertCANid2Reg@tempPassedInID& (0+255),w,b
  2266   000C14  0B03               	andlw	3
  2267   000C16  6E43               	movwf	convertCANid2Reg@wipSIDL^0,c
  2268   000C18                     
  2269                           ; BSR set to: 0
  2270                           ;mcc_generated_files/ecan.c: 420:         tempPassedInID = tempPassedInID << 3;
  2271   000C18  C060  F03F         	movff	convertCANid2Reg@tempPassedInID,??_convertCANid2Reg
  2272   000C1C  C061  F040         	movff	convertCANid2Reg@tempPassedInID+1,??_convertCANid2Reg+1
  2273   000C20  C062  F041         	movff	convertCANid2Reg@tempPassedInID+2,??_convertCANid2Reg+2
  2274   000C24  C063  F042         	movff	convertCANid2Reg@tempPassedInID+3,??_convertCANid2Reg+3
  2275   000C28  0E03               	movlw	3
  2276   000C2A                     u1525:
  2277   000C2A  90D8               	bcf	status,0,c
  2278   000C2C  363F               	rlcf	??_convertCANid2Reg^0,f,c
  2279   000C2E  3640               	rlcf	(??_convertCANid2Reg+1)^0,f,c
  2280   000C30  3641               	rlcf	(??_convertCANid2Reg+2)^0,f,c
  2281   000C32  3642               	rlcf	(??_convertCANid2Reg+3)^0,f,c
  2282   000C34  2EE8               	decfsz	wreg,f,c
  2283   000C36  EF15  F006         	goto	u1525
  2284   000C3A  C03F  F060         	movff	??_convertCANid2Reg,convertCANid2Reg@tempPassedInID
  2285   000C3E  C040  F061         	movff	??_convertCANid2Reg+1,convertCANid2Reg@tempPassedInID+1
  2286   000C42  C041  F062         	movff	??_convertCANid2Reg+2,convertCANid2Reg@tempPassedInID+2
  2287   000C46  C042  F063         	movff	??_convertCANid2Reg+3,convertCANid2Reg@tempPassedInID+3
  2288   000C4A                     
  2289                           ; BSR set to: 0
  2290                           ;mcc_generated_files/ecan.c: 421:         wipSIDL = (0xE0 & tempPassedInID) + wipSIDL;
  2291   000C4A  5160               	movf	convertCANid2Reg@tempPassedInID& (0+255),w,b
  2292   000C4C  0BE0               	andlw	224
  2293   000C4E  2443               	addwf	convertCANid2Reg@wipSIDL^0,w,c
  2294   000C50  6E43               	movwf	convertCANid2Reg@wipSIDL^0,c
  2295   000C52                     
  2296                           ; BSR set to: 0
  2297                           ;mcc_generated_files/ecan.c: 422:         wipSIDL = (uint8_t)(wipSIDL + 0x08);
  2298   000C52  5043               	movf	convertCANid2Reg@wipSIDL^0,w,c
  2299   000C54  0F08               	addlw	8
  2300   000C56  6E43               	movwf	convertCANid2Reg@wipSIDL^0,c
  2301   000C58                     
  2302                           ; BSR set to: 0
  2303                           ;mcc_generated_files/ecan.c: 423:         *passedInSIDL = (uint8_t)(0xEB & wipSIDL);
  2304   000C58  5043               	movf	convertCANid2Reg@wipSIDL^0,w,c
  2305   000C5A  0BEB               	andlw	235
  2306   000C5C  C06B  FFD9         	movff	convertCANid2Reg@passedInSIDL,fsr2l
  2307   000C60  C06C  FFDA         	movff	convertCANid2Reg@passedInSIDL+1,fsr2h
  2308   000C64  6EDF               	movwf	indf2,c
  2309   000C66                     l2914:
  2310                           
  2311                           ; BSR set to: 0
  2312                           ;mcc_generated_files/ecan.c: 426:         tempPassedInID = tempPassedInID >> 8;
  2313   000C66  C060  F03F         	movff	convertCANid2Reg@tempPassedInID,??_convertCANid2Reg
  2314   000C6A  C061  F040         	movff	convertCANid2Reg@tempPassedInID+1,??_convertCANid2Reg+1
  2315   000C6E  C062  F041         	movff	convertCANid2Reg@tempPassedInID+2,??_convertCANid2Reg+2
  2316   000C72  C063  F042         	movff	convertCANid2Reg@tempPassedInID+3,??_convertCANid2Reg+3
  2317   000C76  C040  F03F         	movff	??_convertCANid2Reg+1,??_convertCANid2Reg
  2318   000C7A  C041  F040         	movff	??_convertCANid2Reg+2,??_convertCANid2Reg+1
  2319   000C7E  C042  F041         	movff	??_convertCANid2Reg+3,??_convertCANid2Reg+2
  2320   000C82  6A42               	clrf	(??_convertCANid2Reg+3)^0,c
  2321   000C84  C03F  F060         	movff	??_convertCANid2Reg,convertCANid2Reg@tempPassedInID
  2322   000C88  C040  F061         	movff	??_convertCANid2Reg+1,convertCANid2Reg@tempPassedInID+1
  2323   000C8C  C041  F062         	movff	??_convertCANid2Reg+2,convertCANid2Reg@tempPassedInID+2
  2324   000C90  C042  F063         	movff	??_convertCANid2Reg+3,convertCANid2Reg@tempPassedInID+3
  2325   000C94                     
  2326                           ; BSR set to: 0
  2327                           ;mcc_generated_files/ecan.c: 427:         *passedInSIDH = 0xFF & tempPassedInID;
  2328   000C94  C069  FFD9         	movff	convertCANid2Reg@passedInSIDH,fsr2l
  2329   000C98  C06A  FFDA         	movff	convertCANid2Reg@passedInSIDH+1,fsr2h
  2330   000C9C  C060  FFDF         	movff	convertCANid2Reg@tempPassedInID,indf2
  2331                           
  2332                           ;mcc_generated_files/ecan.c: 428:     }
  2333   000CA0  EF7F  F006         	goto	l440
  2334   000CA4                     l2918:
  2335                           
  2336                           ; BSR set to: 0
  2337                           ;mcc_generated_files/ecan.c: 430:     {;mcc_generated_files/ecan.c: 431:         *passed
      +                          InEIDH = 0;
  2338   000CA4  C065  FFD9         	movff	convertCANid2Reg@passedInEIDH,fsr2l
  2339   000CA8  C066  FFDA         	movff	convertCANid2Reg@passedInEIDH+1,fsr2h
  2340   000CAC  0E00               	movlw	0
  2341   000CAE  6EDF               	movwf	indf2,c
  2342                           
  2343                           ;mcc_generated_files/ecan.c: 432:         *passedInEIDL = 0;
  2344   000CB0  C067  FFD9         	movff	convertCANid2Reg@passedInEIDL,fsr2l
  2345   000CB4  C068  FFDA         	movff	convertCANid2Reg@passedInEIDL+1,fsr2h
  2346   000CB8  0E00               	movlw	0
  2347   000CBA  6EDF               	movwf	indf2,c
  2348   000CBC                     
  2349                           ; BSR set to: 0
  2350                           ;mcc_generated_files/ecan.c: 433:         tempPassedInID = tempPassedInID << 5;
  2351   000CBC  C060  F03F         	movff	convertCANid2Reg@tempPassedInID,??_convertCANid2Reg
  2352   000CC0  C061  F040         	movff	convertCANid2Reg@tempPassedInID+1,??_convertCANid2Reg+1
  2353   000CC4  C062  F041         	movff	convertCANid2Reg@tempPassedInID+2,??_convertCANid2Reg+2
  2354   000CC8  C063  F042         	movff	convertCANid2Reg@tempPassedInID+3,??_convertCANid2Reg+3
  2355   000CCC  0E05               	movlw	5
  2356   000CCE                     u1535:
  2357   000CCE  90D8               	bcf	status,0,c
  2358   000CD0  363F               	rlcf	??_convertCANid2Reg^0,f,c
  2359   000CD2  3640               	rlcf	(??_convertCANid2Reg+1)^0,f,c
  2360   000CD4  3641               	rlcf	(??_convertCANid2Reg+2)^0,f,c
  2361   000CD6  3642               	rlcf	(??_convertCANid2Reg+3)^0,f,c
  2362   000CD8  2EE8               	decfsz	wreg,f,c
  2363   000CDA  EF67  F006         	goto	u1535
  2364   000CDE  C03F  F060         	movff	??_convertCANid2Reg,convertCANid2Reg@tempPassedInID
  2365   000CE2  C040  F061         	movff	??_convertCANid2Reg+1,convertCANid2Reg@tempPassedInID+1
  2366   000CE6  C041  F062         	movff	??_convertCANid2Reg+2,convertCANid2Reg@tempPassedInID+2
  2367   000CEA  C042  F063         	movff	??_convertCANid2Reg+3,convertCANid2Reg@tempPassedInID+3
  2368   000CEE                     
  2369                           ; BSR set to: 0
  2370                           ;mcc_generated_files/ecan.c: 434:         *passedInSIDL = 0xFF & tempPassedInID;
  2371   000CEE  C06B  FFD9         	movff	convertCANid2Reg@passedInSIDL,fsr2l
  2372   000CF2  C06C  FFDA         	movff	convertCANid2Reg@passedInSIDL+1,fsr2h
  2373   000CF6  C060  FFDF         	movff	convertCANid2Reg@tempPassedInID,indf2
  2374   000CFA  EF33  F006         	goto	l2914
  2375   000CFE                     l440:
  2376                           
  2377                           ; BSR set to: 0
  2378   000CFE  0012               	return		;funcret
  2379   000D00                     __end_of_convertCANid2Reg:
  2380                           	callstack 0
  2381                           
  2382 ;; *************** function _TMR2_StopTimer *****************
  2383 ;; Defined at:
  2384 ;;		line 93 in file "mcc_generated_files/tmr2.c"
  2385 ;; Parameters:    Size  Location     Type
  2386 ;;		None
  2387 ;; Auto vars:     Size  Location     Type
  2388 ;;		None
  2389 ;; Return value:  Size  Location     Type
  2390 ;;                  1    wreg      void 
  2391 ;; Registers used:
  2392 ;;		None
  2393 ;; Tracked objects:
  2394 ;;		On entry : 0/0
  2395 ;;		On exit  : 0/0
  2396 ;;		Unchanged: 0/0
  2397 ;; Data sizes:     COMRAM   BANK0   BANK1   BANK2   BANK3   BANK4   BANK5   BANK6   BANK7   BANK8   BANK9  BANK10  BANK1
      +1  BANK12  BANK13  BANK14
  2398 ;;      Params:         0       0       0       0       0       0       0       0       0       0       0       0       
      +0       0       0       0
  2399 ;;      Locals:         0       0       0       0       0       0       0       0       0       0       0       0       
      +0       0       0       0
  2400 ;;      Temps:          0       0       0       0       0       0       0       0       0       0       0       0       
      +0       0       0       0
  2401 ;;      Totals:         0       0       0       0       0       0       0       0       0       0       0       0       
      +0       0       0       0
  2402 ;;Total ram usage:        0 bytes
  2403 ;; Hardware stack levels used: 1
  2404 ;; Hardware stack levels required when called: 5
  2405 ;; This function calls:
  2406 ;;		Nothing
  2407 ;; This function is called by:
  2408 ;;		_main
  2409 ;; This function uses a non-reentrant model
  2410 ;;
  2411                           
  2412                           	psect	text4
  2413   0012E6                     __ptext4:
  2414                           	callstack 0
  2415   0012E6                     _TMR2_StopTimer:
  2416                           	callstack 25
  2417   0012E6                     
  2418                           ;mcc_generated_files/tmr2.c: 96:     T2CONbits.TMR2ON = 0;
  2419   0012E6  94CA               	bcf	202,2,c	;volatile
  2420   0012E8  0012               	return		;funcret
  2421   0012EA                     __end_of_TMR2_StopTimer:
  2422                           	callstack 0
  2423                           
  2424 ;; *************** function _TMR2_StartTimer *****************
  2425 ;; Defined at:
  2426 ;;		line 87 in file "mcc_generated_files/tmr2.c"
  2427 ;; Parameters:    Size  Location     Type
  2428 ;;		None
  2429 ;; Auto vars:     Size  Location     Type
  2430 ;;		None
  2431 ;; Return value:  Size  Location     Type
  2432 ;;                  1    wreg      void 
  2433 ;; Registers used:
  2434 ;;		None
  2435 ;; Tracked objects:
  2436 ;;		On entry : 0/0
  2437 ;;		On exit  : 0/0
  2438 ;;		Unchanged: 0/0
  2439 ;; Data sizes:     COMRAM   BANK0   BANK1   BANK2   BANK3   BANK4   BANK5   BANK6   BANK7   BANK8   BANK9  BANK10  BANK1
      +1  BANK12  BANK13  BANK14
  2440 ;;      Params:         0       0       0       0       0       0       0       0       0       0       0       0       
      +0       0       0       0
  2441 ;;      Locals:         0       0       0       0       0       0       0       0       0       0       0       0       
      +0       0       0       0
  2442 ;;      Temps:          0       0       0       0       0       0       0       0       0       0       0       0       
      +0       0       0       0
  2443 ;;      Totals:         0       0       0       0       0       0       0       0       0       0       0       0       
      +0       0       0       0
  2444 ;;Total ram usage:        0 bytes
  2445 ;; Hardware stack levels used: 1
  2446 ;; Hardware stack levels required when called: 5
  2447 ;; This function calls:
  2448 ;;		Nothing
  2449 ;; This function is called by:
  2450 ;;		_main
  2451 ;; This function uses a non-reentrant model
  2452 ;;
  2453                           
  2454                           	psect	text5
  2455   0012EA                     __ptext5:
  2456                           	callstack 0
  2457   0012EA                     _TMR2_StartTimer:
  2458                           	callstack 25
  2459   0012EA                     
  2460                           ;mcc_generated_files/tmr2.c: 90:     T2CONbits.TMR2ON = 1;
  2461   0012EA  84CA               	bsf	202,2,c	;volatile
  2462   0012EC  0012               	return		;funcret
  2463   0012EE                     __end_of_TMR2_StartTimer:
  2464                           	callstack 0
  2465                           
  2466 ;; *************** function _TMR1_StopTimer *****************
  2467 ;; Defined at:
  2468 ;;		line 99 in file "mcc_generated_files/tmr1.c"
  2469 ;; Parameters:    Size  Location     Type
  2470 ;;		None
  2471 ;; Auto vars:     Size  Location     Type
  2472 ;;		None
  2473 ;; Return value:  Size  Location     Type
  2474 ;;                  1    wreg      void 
  2475 ;; Registers used:
  2476 ;;		None
  2477 ;; Tracked objects:
  2478 ;;		On entry : 0/0
  2479 ;;		On exit  : 0/0
  2480 ;;		Unchanged: 0/0
  2481 ;; Data sizes:     COMRAM   BANK0   BANK1   BANK2   BANK3   BANK4   BANK5   BANK6   BANK7   BANK8   BANK9  BANK10  BANK1
      +1  BANK12  BANK13  BANK14
  2482 ;;      Params:         0       0       0       0       0       0       0       0       0       0       0       0       
      +0       0       0       0
  2483 ;;      Locals:         0       0       0       0       0       0       0       0       0       0       0       0       
      +0       0       0       0
  2484 ;;      Temps:          0       0       0       0       0       0       0       0       0       0       0       0       
      +0       0       0       0
  2485 ;;      Totals:         0       0       0       0       0       0       0       0       0       0       0       0       
      +0       0       0       0
  2486 ;;Total ram usage:        0 bytes
  2487 ;; Hardware stack levels used: 1
  2488 ;; Hardware stack levels required when called: 5
  2489 ;; This function calls:
  2490 ;;		Nothing
  2491 ;; This function is called by:
  2492 ;;		_main
  2493 ;; This function uses a non-reentrant model
  2494 ;;
  2495                           
  2496                           	psect	text6
  2497   0012EE                     __ptext6:
  2498                           	callstack 0
  2499   0012EE                     _TMR1_StopTimer:
  2500                           	callstack 25
  2501   0012EE                     
  2502                           ;mcc_generated_files/tmr1.c: 102:     T1CONbits.TMR1ON = 0;
  2503   0012EE  90CD               	bcf	205,0,c	;volatile
  2504   0012F0  0012               	return		;funcret
  2505   0012F2                     __end_of_TMR1_StopTimer:
  2506                           	callstack 0
  2507                           
  2508 ;; *************** function _TMR1_StartTimer *****************
  2509 ;; Defined at:
  2510 ;;		line 93 in file "mcc_generated_files/tmr1.c"
  2511 ;; Parameters:    Size  Location     Type
  2512 ;;		None
  2513 ;; Auto vars:     Size  Location     Type
  2514 ;;		None
  2515 ;; Return value:  Size  Location     Type
  2516 ;;                  1    wreg      void 
  2517 ;; Registers used:
  2518 ;;		None
  2519 ;; Tracked objects:
  2520 ;;		On entry : 0/0
  2521 ;;		On exit  : 0/0
  2522 ;;		Unchanged: 0/0
  2523 ;; Data sizes:     COMRAM   BANK0   BANK1   BANK2   BANK3   BANK4   BANK5   BANK6   BANK7   BANK8   BANK9  BANK10  BANK1
      +1  BANK12  BANK13  BANK14
  2524 ;;      Params:         0       0       0       0       0       0       0       0       0       0       0       0       
      +0       0       0       0
  2525 ;;      Locals:         0       0       0       0       0       0       0       0       0       0       0       0       
      +0       0       0       0
  2526 ;;      Temps:          0       0       0       0       0       0       0       0       0       0       0       0       
      +0       0       0       0
  2527 ;;      Totals:         0       0       0       0       0       0       0       0       0       0       0       0       
      +0       0       0       0
  2528 ;;Total ram usage:        0 bytes
  2529 ;; Hardware stack levels used: 1
  2530 ;; Hardware stack levels required when called: 5
  2531 ;; This function calls:
  2532 ;;		Nothing
  2533 ;; This function is called by:
  2534 ;;		_main
  2535 ;; This function uses a non-reentrant model
  2536 ;;
  2537                           
  2538                           	psect	text7
  2539   0012F2                     __ptext7:
  2540                           	callstack 0
  2541   0012F2                     _TMR1_StartTimer:
  2542                           	callstack 25
  2543   0012F2                     
  2544                           ;mcc_generated_files/tmr1.c: 96:     T1CONbits.TMR1ON = 1;
  2545   0012F2  80CD               	bsf	205,0,c	;volatile
  2546   0012F4  0012               	return		;funcret
  2547   0012F6                     __end_of_TMR1_StartTimer:
  2548                           	callstack 0
  2549                           
  2550 ;; *************** function _SYSTEM_Initialize *****************
  2551 ;; Defined at:
  2552 ;;		line 50 in file "mcc_generated_files/mcc.c"
  2553 ;; Parameters:    Size  Location     Type
  2554 ;;		None
  2555 ;; Auto vars:     Size  Location     Type
  2556 ;;		None
  2557 ;; Return value:  Size  Location     Type
  2558 ;;                  1    wreg      void 
  2559 ;; Registers used:
  2560 ;;		wreg, status,2, status,0, cstack
  2561 ;; Tracked objects:
  2562 ;;		On entry : 0/0
  2563 ;;		On exit  : 0/0
  2564 ;;		Unchanged: 0/0
  2565 ;; Data sizes:     COMRAM   BANK0   BANK1   BANK2   BANK3   BANK4   BANK5   BANK6   BANK7   BANK8   BANK9  BANK10  BANK1
      +1  BANK12  BANK13  BANK14
  2566 ;;      Params:         0       0       0       0       0       0       0       0       0       0       0       0       
      +0       0       0       0
  2567 ;;      Locals:         0       0       0       0       0       0       0       0       0       0       0       0       
      +0       0       0       0
  2568 ;;      Temps:          0       0       0       0       0       0       0       0       0       0       0       0       
      +0       0       0       0
  2569 ;;      Totals:         0       0       0       0       0       0       0       0       0       0       0       0       
      +0       0       0       0
  2570 ;;Total ram usage:        0 bytes
  2571 ;; Hardware stack levels used: 1
  2572 ;; Hardware stack levels required when called: 7
  2573 ;; This function calls:
  2574 ;;		_ECAN_Initialize
  2575 ;;		_INTERRUPT_Initialize
  2576 ;;		_OSCILLATOR_Initialize
  2577 ;;		_PIN_MANAGER_Initialize
  2578 ;;		_TMR1_Initialize
  2579 ;;		_TMR2_Initialize
  2580 ;; This function is called by:
  2581 ;;		_main
  2582 ;; This function uses a non-reentrant model
  2583 ;;
  2584                           
  2585                           	psect	text8
  2586   001284                     __ptext8:
  2587                           	callstack 0
  2588   001284                     _SYSTEM_Initialize:
  2589                           	callstack 23
  2590   001284                     
  2591                           ;mcc_generated_files/mcc.c: 53:     INTERRUPT_Initialize();
  2592   001284  EC7B  F009         	call	_INTERRUPT_Initialize	;wreg free
  2593   001288                     
  2594                           ;mcc_generated_files/mcc.c: 54:     PIN_MANAGER_Initialize();
  2595   001288  ECDB  F008         	call	_PIN_MANAGER_Initialize	;wreg free
  2596   00128C                     
  2597                           ;mcc_generated_files/mcc.c: 55:     OSCILLATOR_Initialize();
  2598   00128C  EC4F  F009         	call	_OSCILLATOR_Initialize	;wreg free
  2599   001290                     
  2600                           ;mcc_generated_files/mcc.c: 56:     TMR2_Initialize();
  2601   001290  EC16  F009         	call	_TMR2_Initialize	;wreg free
  2602   001294                     
  2603                           ;mcc_generated_files/mcc.c: 57:     TMR1_Initialize();
  2604   001294  EC5F  F008         	call	_TMR1_Initialize	;wreg free
  2605   001298                     
  2606                           ;mcc_generated_files/mcc.c: 58:     ECAN_Initialize();
  2607   001298  EC1D  F007         	call	_ECAN_Initialize	;wreg free
  2608   00129C  0012               	return		;funcret
  2609   00129E                     __end_of_SYSTEM_Initialize:
  2610                           	callstack 0
  2611                           
  2612 ;; *************** function _TMR2_Initialize *****************
  2613 ;; Defined at:
  2614 ;;		line 64 in file "mcc_generated_files/tmr2.c"
  2615 ;; Parameters:    Size  Location     Type
  2616 ;;		None
  2617 ;; Auto vars:     Size  Location     Type
  2618 ;;		None
  2619 ;; Return value:  Size  Location     Type
  2620 ;;                  1    wreg      void 
  2621 ;; Registers used:
  2622 ;;		wreg, status,2, status,0, cstack
  2623 ;; Tracked objects:
  2624 ;;		On entry : 0/0
  2625 ;;		On exit  : 0/0
  2626 ;;		Unchanged: 0/0
  2627 ;; Data sizes:     COMRAM   BANK0   BANK1   BANK2   BANK3   BANK4   BANK5   BANK6   BANK7   BANK8   BANK9  BANK10  BANK1
      +1  BANK12  BANK13  BANK14
  2628 ;;      Params:         0       0       0       0       0       0       0       0       0       0       0       0       
      +0       0       0       0
  2629 ;;      Locals:         0       0       0       0       0       0       0       0       0       0       0       0       
      +0       0       0       0
  2630 ;;      Temps:          0       0       0       0       0       0       0       0       0       0       0       0       
      +0       0       0       0
  2631 ;;      Totals:         0       0       0       0       0       0       0       0       0       0       0       0       
      +0       0       0       0
  2632 ;;Total ram usage:        0 bytes
  2633 ;; Hardware stack levels used: 1
  2634 ;; Hardware stack levels required when called: 6
  2635 ;; This function calls:
  2636 ;;		_TMR2_SetInterruptHandler
  2637 ;; This function is called by:
  2638 ;;		_SYSTEM_Initialize
  2639 ;;		_main
  2640 ;; This function uses a non-reentrant model
  2641 ;;
  2642                           
  2643                           	psect	text9
  2644   00122C                     __ptext9:
  2645                           	callstack 0
  2646   00122C                     _TMR2_Initialize:
  2647                           	callstack 24
  2648   00122C                     
  2649                           ;mcc_generated_files/tmr2.c: 69:     PR2 = 0xC2;
  2650   00122C  0EC2               	movlw	194
  2651   00122E  6ECB               	movwf	203,c	;volatile
  2652                           
  2653                           ;mcc_generated_files/tmr2.c: 72:     TMR2 = 0x00;
  2654   001230  0E00               	movlw	0
  2655   001232  6ECC               	movwf	204,c	;volatile
  2656   001234                     
  2657                           ;mcc_generated_files/tmr2.c: 75:     PIR1bits.TMR2IF = 0;
  2658   001234  929E               	bcf	158,1,c	;volatile
  2659   001236                     
  2660                           ;mcc_generated_files/tmr2.c: 78:     PIE1bits.TMR2IE = 1;
  2661   001236  829D               	bsf	157,1,c	;volatile
  2662   001238                     
  2663                           ;mcc_generated_files/tmr2.c: 81:     TMR2_SetInterruptHandler(TMR2_DefaultInterruptHandl
      +                          er);
  2664   001238  0EFA               	movlw	low _TMR2_DefaultInterruptHandler
  2665   00123A  6E3F               	movwf	TMR2_SetInterruptHandler@InterruptHandler^0,c
  2666   00123C  0E12               	movlw	high _TMR2_DefaultInterruptHandler
  2667   00123E  6E40               	movwf	(TMR2_SetInterruptHandler@InterruptHandler+1)^0,c
  2668   001240  EC5F  F009         	call	_TMR2_SetInterruptHandler	;wreg free
  2669   001244                     
  2670                           ;mcc_generated_files/tmr2.c: 84:     T2CON = 0x7E;
  2671   001244  0E7E               	movlw	126
  2672   001246  6ECA               	movwf	202,c	;volatile
  2673   001248  0012               	return		;funcret
  2674   00124A                     __end_of_TMR2_Initialize:
  2675                           	callstack 0
  2676                           
  2677 ;; *************** function _TMR2_SetInterruptHandler *****************
  2678 ;; Defined at:
  2679 ;;		line 147 in file "mcc_generated_files/tmr2.c"
  2680 ;; Parameters:    Size  Location     Type
  2681 ;;  InterruptHan    2   25[COMRAM] PTR FTN()void 
  2682 ;;		 -> interruption_2(1), TMR2_DefaultInterruptHandler(1), 
  2683 ;; Auto vars:     Size  Location     Type
  2684 ;;		None
  2685 ;; Return value:  Size  Location     Type
  2686 ;;                  1    wreg      void 
  2687 ;; Registers used:
  2688 ;;		wreg, status,2, status,0
  2689 ;; Tracked objects:
  2690 ;;		On entry : 0/0
  2691 ;;		On exit  : 0/0
  2692 ;;		Unchanged: 0/0
  2693 ;; Data sizes:     COMRAM   BANK0   BANK1   BANK2   BANK3   BANK4   BANK5   BANK6   BANK7   BANK8   BANK9  BANK10  BANK1
      +1  BANK12  BANK13  BANK14
  2694 ;;      Params:         2       0       0       0       0       0       0       0       0       0       0       0       
      +0       0       0       0
  2695 ;;      Locals:         0       0       0       0       0       0       0       0       0       0       0       0       
      +0       0       0       0
  2696 ;;      Temps:          0       0       0       0       0       0       0       0       0       0       0       0       
      +0       0       0       0
  2697 ;;      Totals:         2       0       0       0       0       0       0       0       0       0       0       0       
      +0       0       0       0
  2698 ;;Total ram usage:        2 bytes
  2699 ;; Hardware stack levels used: 1
  2700 ;; Hardware stack levels required when called: 5
  2701 ;; This function calls:
  2702 ;;		Nothing
  2703 ;; This function is called by:
  2704 ;;		_TMR2_Initialize
  2705 ;;		_main
  2706 ;; This function uses a non-reentrant model
  2707 ;;
  2708                           
  2709                           	psect	text10
  2710   0012BE                     __ptext10:
  2711                           	callstack 0
  2712   0012BE                     _TMR2_SetInterruptHandler:
  2713                           	callstack 25
  2714   0012BE                     
  2715                           ;mcc_generated_files/tmr2.c: 148:     TMR2_InterruptHandler = InterruptHandler;
  2716   0012BE  C03F  F08A         	movff	TMR2_SetInterruptHandler@InterruptHandler,_TMR2_InterruptHandler
  2717   0012C2  C040  F08B         	movff	TMR2_SetInterruptHandler@InterruptHandler+1,_TMR2_InterruptHandler+1
  2718   0012C6  0012               	return		;funcret
  2719   0012C8                     __end_of_TMR2_SetInterruptHandler:
  2720                           	callstack 0
  2721                           
  2722 ;; *************** function _TMR1_Initialize *****************
  2723 ;; Defined at:
  2724 ;;		line 64 in file "mcc_generated_files/tmr1.c"
  2725 ;; Parameters:    Size  Location     Type
  2726 ;;		None
  2727 ;; Auto vars:     Size  Location     Type
  2728 ;;		None
  2729 ;; Return value:  Size  Location     Type
  2730 ;;                  1    wreg      void 
  2731 ;; Registers used:
  2732 ;;		wreg, status,2, status,0, cstack
  2733 ;; Tracked objects:
  2734 ;;		On entry : 0/0
  2735 ;;		On exit  : 0/0
  2736 ;;		Unchanged: 0/0
  2737 ;; Data sizes:     COMRAM   BANK0   BANK1   BANK2   BANK3   BANK4   BANK5   BANK6   BANK7   BANK8   BANK9  BANK10  BANK1
      +1  BANK12  BANK13  BANK14
  2738 ;;      Params:         0       0       0       0       0       0       0       0       0       0       0       0       
      +0       0       0       0
  2739 ;;      Locals:         0       0       0       0       0       0       0       0       0       0       0       0       
      +0       0       0       0
  2740 ;;      Temps:          2       0       0       0       0       0       0       0       0       0       0       0       
      +0       0       0       0
  2741 ;;      Totals:         2       0       0       0       0       0       0       0       0       0       0       0       
      +0       0       0       0
  2742 ;;Total ram usage:        2 bytes
  2743 ;; Hardware stack levels used: 1
  2744 ;; Hardware stack levels required when called: 6
  2745 ;; This function calls:
  2746 ;;		_TMR1_SetInterruptHandler
  2747 ;; This function is called by:
  2748 ;;		_SYSTEM_Initialize
  2749 ;;		_main
  2750 ;; This function uses a non-reentrant model
  2751 ;;
  2752                           
  2753                           	psect	text11
  2754   0010BE                     __ptext11:
  2755                           	callstack 0
  2756   0010BE                     _TMR1_Initialize:
  2757                           	callstack 24
  2758   0010BE                     
  2759                           ;mcc_generated_files/tmr1.c: 69:     T1GCON = 0x00;
  2760   0010BE  0E00               	movlw	0
  2761   0010C0  6EAA               	movwf	170,c	;volatile
  2762                           
  2763                           ;mcc_generated_files/tmr1.c: 72:     TMR1H = 0xEC;
  2764   0010C2  0EEC               	movlw	236
  2765   0010C4  6ECF               	movwf	207,c	;volatile
  2766                           
  2767                           ;mcc_generated_files/tmr1.c: 75:     TMR1L = 0x78;
  2768   0010C6  0E78               	movlw	120
  2769   0010C8  6ECE               	movwf	206,c	;volatile
  2770   0010CA                     
  2771                           ;mcc_generated_files/tmr1.c: 78:     PIR1bits.TMR1IF = 0;
  2772   0010CA  909E               	bcf	158,0,c	;volatile
  2773   0010CC                     
  2774                           ;mcc_generated_files/tmr1.c: 81:     timer1ReloadVal=(uint16_t)((TMR1H << 8) | TMR1L);
  2775   0010CC  50CE               	movf	206,w,c	;volatile
  2776   0010CE  CFCF F041          	movff	4047,??_TMR1_Initialize	;volatile
  2777   0010D2  6A42               	clrf	(??_TMR1_Initialize+1)^0,c
  2778   0010D4  C041  F042         	movff	??_TMR1_Initialize,??_TMR1_Initialize+1
  2779   0010D8  6A41               	clrf	??_TMR1_Initialize^0,c
  2780   0010DA  1041               	iorwf	??_TMR1_Initialize^0,w,c
  2781   0010DC  6E44               	movwf	_timer1ReloadVal^0,c	;volatile
  2782   0010DE  5042               	movf	(??_TMR1_Initialize+1)^0,w,c
  2783   0010E0  6E45               	movwf	(_timer1ReloadVal+1)^0,c	;volatile
  2784   0010E2                     
  2785                           ;mcc_generated_files/tmr1.c: 84:     PIE1bits.TMR1IE = 1;
  2786   0010E2  809D               	bsf	157,0,c	;volatile
  2787   0010E4                     
  2788                           ;mcc_generated_files/tmr1.c: 87:     TMR1_SetInterruptHandler(TMR1_DefaultInterruptHandl
      +                          er);
  2789   0010E4  0EFC               	movlw	low _TMR1_DefaultInterruptHandler
  2790   0010E6  6E3F               	movwf	TMR1_SetInterruptHandler@InterruptHandler^0,c
  2791   0010E8  0E12               	movlw	high _TMR1_DefaultInterruptHandler
  2792   0010EA  6E40               	movwf	(TMR1_SetInterruptHandler@InterruptHandler+1)^0,c
  2793   0010EC  EC64  F009         	call	_TMR1_SetInterruptHandler	;wreg free
  2794   0010F0                     
  2795                           ;mcc_generated_files/tmr1.c: 90:     T1CON = 0x01;
  2796   0010F0  0E01               	movlw	1
  2797   0010F2  6ECD               	movwf	205,c	;volatile
  2798   0010F4  0012               	return		;funcret
  2799   0010F6                     __end_of_TMR1_Initialize:
  2800                           	callstack 0
  2801                           
  2802 ;; *************** function _TMR1_SetInterruptHandler *****************
  2803 ;; Defined at:
  2804 ;;		line 185 in file "mcc_generated_files/tmr1.c"
  2805 ;; Parameters:    Size  Location     Type
  2806 ;;  InterruptHan    2   25[COMRAM] PTR FTN()void 
  2807 ;;		 -> interruption_1(1), TMR1_DefaultInterruptHandler(1), 
  2808 ;; Auto vars:     Size  Location     Type
  2809 ;;		None
  2810 ;; Return value:  Size  Location     Type
  2811 ;;                  1    wreg      void 
  2812 ;; Registers used:
  2813 ;;		wreg, status,2, status,0
  2814 ;; Tracked objects:
  2815 ;;		On entry : 0/0
  2816 ;;		On exit  : 0/0
  2817 ;;		Unchanged: 0/0
  2818 ;; Data sizes:     COMRAM   BANK0   BANK1   BANK2   BANK3   BANK4   BANK5   BANK6   BANK7   BANK8   BANK9  BANK10  BANK1
      +1  BANK12  BANK13  BANK14
  2819 ;;      Params:         2       0       0       0       0       0       0       0       0       0       0       0       
      +0       0       0       0
  2820 ;;      Locals:         0       0       0       0       0       0       0       0       0       0       0       0       
      +0       0       0       0
  2821 ;;      Temps:          0       0       0       0       0       0       0       0       0       0       0       0       
      +0       0       0       0
  2822 ;;      Totals:         2       0       0       0       0       0       0       0       0       0       0       0       
      +0       0       0       0
  2823 ;;Total ram usage:        2 bytes
  2824 ;; Hardware stack levels used: 1
  2825 ;; Hardware stack levels required when called: 5
  2826 ;; This function calls:
  2827 ;;		Nothing
  2828 ;; This function is called by:
  2829 ;;		_TMR1_Initialize
  2830 ;;		_main
  2831 ;; This function uses a non-reentrant model
  2832 ;;
  2833                           
  2834                           	psect	text12
  2835   0012C8                     __ptext12:
  2836                           	callstack 0
  2837   0012C8                     _TMR1_SetInterruptHandler:
  2838                           	callstack 25
  2839   0012C8                     
  2840                           ;mcc_generated_files/tmr1.c: 186:     TMR1_InterruptHandler = InterruptHandler;
  2841   0012C8  C03F  F088         	movff	TMR1_SetInterruptHandler@InterruptHandler,_TMR1_InterruptHandler
  2842   0012CC  C040  F089         	movff	TMR1_SetInterruptHandler@InterruptHandler+1,_TMR1_InterruptHandler+1
  2843   0012D0  0012               	return		;funcret
  2844   0012D2                     __end_of_TMR1_SetInterruptHandler:
  2845                           	callstack 0
  2846                           
  2847 ;; *************** function _PIN_MANAGER_Initialize *****************
  2848 ;; Defined at:
  2849 ;;		line 55 in file "mcc_generated_files/pin_manager.c"
  2850 ;; Parameters:    Size  Location     Type
  2851 ;;		None
  2852 ;; Auto vars:     Size  Location     Type
  2853 ;;		None
  2854 ;; Return value:  Size  Location     Type
  2855 ;;                  1    wreg      void 
  2856 ;; Registers used:
  2857 ;;		wreg, status,2
  2858 ;; Tracked objects:
  2859 ;;		On entry : 0/0
  2860 ;;		On exit  : 0/0
  2861 ;;		Unchanged: 0/0
  2862 ;; Data sizes:     COMRAM   BANK0   BANK1   BANK2   BANK3   BANK4   BANK5   BANK6   BANK7   BANK8   BANK9  BANK10  BANK1
      +1  BANK12  BANK13  BANK14
  2863 ;;      Params:         0       0       0       0       0       0       0       0       0       0       0       0       
      +0       0       0       0
  2864 ;;      Locals:         0       0       0       0       0       0       0       0       0       0       0       0       
      +0       0       0       0
  2865 ;;      Temps:          0       0       0       0       0       0       0       0       0       0       0       0       
      +0       0       0       0
  2866 ;;      Totals:         0       0       0       0       0       0       0       0       0       0       0       0       
      +0       0       0       0
  2867 ;;Total ram usage:        0 bytes
  2868 ;; Hardware stack levels used: 1
  2869 ;; Hardware stack levels required when called: 5
  2870 ;; This function calls:
  2871 ;;		Nothing
  2872 ;; This function is called by:
  2873 ;;		_SYSTEM_Initialize
  2874 ;; This function uses a non-reentrant model
  2875 ;;
  2876                           
  2877                           	psect	text13
  2878   0011B6                     __ptext13:
  2879                           	callstack 0
  2880   0011B6                     _PIN_MANAGER_Initialize:
  2881                           	callstack 24
  2882   0011B6                     
  2883                           ;mcc_generated_files/pin_manager.c: 60:     LATA = 0x00;
  2884   0011B6  0E00               	movlw	0
  2885   0011B8  6E89               	movwf	137,c	;volatile
  2886                           
  2887                           ;mcc_generated_files/pin_manager.c: 61:     LATB = 0x00;
  2888   0011BA  0E00               	movlw	0
  2889   0011BC  6E8A               	movwf	138,c	;volatile
  2890                           
  2891                           ;mcc_generated_files/pin_manager.c: 62:     LATC = 0x00;
  2892   0011BE  0E00               	movlw	0
  2893   0011C0  6E8B               	movwf	139,c	;volatile
  2894                           
  2895                           ;mcc_generated_files/pin_manager.c: 67:     TRISA = 0xC7;
  2896   0011C2  0EC7               	movlw	199
  2897   0011C4  6E92               	movwf	146,c	;volatile
  2898                           
  2899                           ;mcc_generated_files/pin_manager.c: 68:     TRISB = 0xFB;
  2900   0011C6  0EFB               	movlw	251
  2901   0011C8  6E93               	movwf	147,c	;volatile
  2902   0011CA                     
  2903                           ;mcc_generated_files/pin_manager.c: 69:     TRISC = 0xFF;
  2904   0011CA  6894               	setf	148,c	;volatile
  2905                           
  2906                           ;mcc_generated_files/pin_manager.c: 74:     ANCON0 = 0x18;
  2907   0011CC  0E18               	movlw	24
  2908   0011CE  010F               	movlb	15	; () banked
  2909   0011D0  6F5D               	movwf	93,b	;volatile
  2910                           
  2911                           ;mcc_generated_files/pin_manager.c: 75:     ANCON1 = 0x07;
  2912   0011D2  0E07               	movlw	7
  2913   0011D4  6F5C               	movwf	92,b	;volatile
  2914                           
  2915                           ;mcc_generated_files/pin_manager.c: 80:     WPUB = 0x00;
  2916   0011D6  0E00               	movlw	0
  2917   0011D8  6F5B               	movwf	91,b	;volatile
  2918   0011DA                     
  2919                           ; BSR set to: 15
  2920                           ;mcc_generated_files/pin_manager.c: 81:     INTCON2bits.nRBPU = 1;
  2921   0011DA  8EF1               	bsf	241,7,c	;volatile
  2922   0011DC                     
  2923                           ; BSR set to: 15
  2924   0011DC  0012               	return		;funcret
  2925   0011DE                     __end_of_PIN_MANAGER_Initialize:
  2926                           	callstack 0
  2927                           
  2928 ;; *************** function _OSCILLATOR_Initialize *****************
  2929 ;; Defined at:
  2930 ;;		line 61 in file "mcc_generated_files/mcc.c"
  2931 ;; Parameters:    Size  Location     Type
  2932 ;;		None
  2933 ;; Auto vars:     Size  Location     Type
  2934 ;;		None
  2935 ;; Return value:  Size  Location     Type
  2936 ;;                  1    wreg      void 
  2937 ;; Registers used:
  2938 ;;		wreg, status,2
  2939 ;; Tracked objects:
  2940 ;;		On entry : 0/0
  2941 ;;		On exit  : 0/0
  2942 ;;		Unchanged: 0/0
  2943 ;; Data sizes:     COMRAM   BANK0   BANK1   BANK2   BANK3   BANK4   BANK5   BANK6   BANK7   BANK8   BANK9  BANK10  BANK1
      +1  BANK12  BANK13  BANK14
  2944 ;;      Params:         0       0       0       0       0       0       0       0       0       0       0       0       
      +0       0       0       0
  2945 ;;      Locals:         0       0       0       0       0       0       0       0       0       0       0       0       
      +0       0       0       0
  2946 ;;      Temps:          0       0       0       0       0       0       0       0       0       0       0       0       
      +0       0       0       0
  2947 ;;      Totals:         0       0       0       0       0       0       0       0       0       0       0       0       
      +0       0       0       0
  2948 ;;Total ram usage:        0 bytes
  2949 ;; Hardware stack levels used: 1
  2950 ;; Hardware stack levels required when called: 5
  2951 ;; This function calls:
  2952 ;;		Nothing
  2953 ;; This function is called by:
  2954 ;;		_SYSTEM_Initialize
  2955 ;; This function uses a non-reentrant model
  2956 ;;
  2957                           
  2958                           	psect	text14
  2959   00129E                     __ptext14:
  2960                           	callstack 0
  2961   00129E                     _OSCILLATOR_Initialize:
  2962                           	callstack 24
  2963   00129E                     
  2964                           ;mcc_generated_files/mcc.c: 64:     OSCCON = 0x60;
  2965   00129E  0E60               	movlw	96
  2966   0012A0  6ED3               	movwf	211,c	;volatile
  2967                           
  2968                           ;mcc_generated_files/mcc.c: 66:     OSCCON2 = 0x00;
  2969   0012A2  0E00               	movlw	0
  2970   0012A4  6ED2               	movwf	210,c	;volatile
  2971                           
  2972                           ;mcc_generated_files/mcc.c: 68:     OSCTUNE = 0x00;
  2973   0012A6  0E00               	movlw	0
  2974   0012A8  6E9B               	movwf	155,c	;volatile
  2975                           
  2976                           ;mcc_generated_files/mcc.c: 70:     REFOCON = 0x00;
  2977   0012AA  0E00               	movlw	0
  2978   0012AC  6E9A               	movwf	154,c	;volatile
  2979   0012AE  0012               	return		;funcret
  2980   0012B0                     __end_of_OSCILLATOR_Initialize:
  2981                           	callstack 0
  2982                           
  2983 ;; *************** function _INTERRUPT_Initialize *****************
  2984 ;; Defined at:
  2985 ;;		line 52 in file "mcc_generated_files/interrupt_manager.c"
  2986 ;; Parameters:    Size  Location     Type
  2987 ;;		None
  2988 ;; Auto vars:     Size  Location     Type
  2989 ;;		None
  2990 ;; Return value:  Size  Location     Type
  2991 ;;                  1    wreg      void 
  2992 ;; Registers used:
  2993 ;;		None
  2994 ;; Tracked objects:
  2995 ;;		On entry : 0/0
  2996 ;;		On exit  : 0/0
  2997 ;;		Unchanged: 0/0
  2998 ;; Data sizes:     COMRAM   BANK0   BANK1   BANK2   BANK3   BANK4   BANK5   BANK6   BANK7   BANK8   BANK9  BANK10  BANK1
      +1  BANK12  BANK13  BANK14
  2999 ;;      Params:         0       0       0       0       0       0       0       0       0       0       0       0       
      +0       0       0       0
  3000 ;;      Locals:         0       0       0       0       0       0       0       0       0       0       0       0       
      +0       0       0       0
  3001 ;;      Temps:          0       0       0       0       0       0       0       0       0       0       0       0       
      +0       0       0       0
  3002 ;;      Totals:         0       0       0       0       0       0       0       0       0       0       0       0       
      +0       0       0       0
  3003 ;;Total ram usage:        0 bytes
  3004 ;; Hardware stack levels used: 1
  3005 ;; Hardware stack levels required when called: 5
  3006 ;; This function calls:
  3007 ;;		Nothing
  3008 ;; This function is called by:
  3009 ;;		_SYSTEM_Initialize
  3010 ;; This function uses a non-reentrant model
  3011 ;;
  3012                           
  3013                           	psect	text15
  3014   0012F6                     __ptext15:
  3015                           	callstack 0
  3016   0012F6                     _INTERRUPT_Initialize:
  3017                           	callstack 24
  3018   0012F6                     
  3019                           ;mcc_generated_files/interrupt_manager.c: 55:     RCONbits.IPEN = 0;
  3020   0012F6  9ED0               	bcf	208,7,c	;volatile
  3021   0012F8  0012               	return		;funcret
  3022   0012FA                     __end_of_INTERRUPT_Initialize:
  3023                           	callstack 0
  3024                           
  3025 ;; *************** function _ECAN_Initialize *****************
  3026 ;; Defined at:
  3027 ;;		line 65 in file "mcc_generated_files/ecan.c"
  3028 ;; Parameters:    Size  Location     Type
  3029 ;;		None
  3030 ;; Auto vars:     Size  Location     Type
  3031 ;;		None
  3032 ;; Return value:  Size  Location     Type
  3033 ;;                  1    wreg      void 
  3034 ;; Registers used:
  3035 ;;		wreg, status,2, status,0, cstack
  3036 ;; Tracked objects:
  3037 ;;		On entry : 0/0
  3038 ;;		On exit  : 0/0
  3039 ;;		Unchanged: 0/0
  3040 ;; Data sizes:     COMRAM   BANK0   BANK1   BANK2   BANK3   BANK4   BANK5   BANK6   BANK7   BANK8   BANK9  BANK10  BANK1
      +1  BANK12  BANK13  BANK14
  3041 ;;      Params:         0       0       0       0       0       0       0       0       0       0       0       0       
      +0       0       0       0
  3042 ;;      Locals:         0       0       0       0       0       0       0       0       0       0       0       0       
      +0       0       0       0
  3043 ;;      Temps:          1       0       0       0       0       0       0       0       0       0       0       0       
      +0       0       0       0
  3044 ;;      Totals:         1       0       0       0       0       0       0       0       0       0       0       0       
      +0       0       0       0
  3045 ;;Total ram usage:        1 bytes
  3046 ;; Hardware stack levels used: 1
  3047 ;; Hardware stack levels required when called: 6
  3048 ;; This function calls:
  3049 ;;		_ECAN_SetRXB0InterruptHandler
  3050 ;; This function is called by:
  3051 ;;		_SYSTEM_Initialize
  3052 ;; This function uses a non-reentrant model
  3053 ;;
  3054                           
  3055                           	psect	text16
  3056   000E3A                     __ptext16:
  3057                           	callstack 0
  3058   000E3A                     _ECAN_Initialize:
  3059                           	callstack 23
  3060   000E3A                     
  3061                           ;mcc_generated_files/ecan.c: 67:     CANCON = 0x80;
  3062   000E3A  0E80               	movlw	128
  3063   000E3C  6E6F               	movwf	111,c	;volatile
  3064   000E3E                     l2964:
  3065   000E3E  506E               	movf	110,w,c	;volatile
  3066   000E40  0BE0               	andlw	224
  3067   000E42  0A80               	xorlw	128
  3068   000E44  A4D8               	btfss	status,2,c
  3069   000E46  EF27  F007         	goto	u1541
  3070   000E4A  EF29  F007         	goto	u1540
  3071   000E4E                     u1541:
  3072   000E4E  EF1F  F007         	goto	l2964
  3073   000E52                     u1540:
  3074   000E52                     
  3075                           ;mcc_generated_files/ecan.c: 73:     ECANCON = 0x00;
  3076   000E52  0E00               	movlw	0
  3077   000E54  6E72               	movwf	114,c	;volatile
  3078                           
  3079                           ;mcc_generated_files/ecan.c: 78:     CIOCON = 0x20;
  3080   000E56  0E20               	movlw	32
  3081   000E58  6E70               	movwf	112,c	;volatile
  3082   000E5A                     
  3083                           ;mcc_generated_files/ecan.c: 92:     RXM0EIDH = 0xFF;
  3084   000E5A  010E               	movlb	14	; () banked
  3085   000E5C  69FA               	setf	250,b	;volatile
  3086   000E5E                     
  3087                           ; BSR set to: 14
  3088                           ;mcc_generated_files/ecan.c: 93:     RXM0EIDL = 0xFF;
  3089   000E5E  69FB               	setf	251,b	;volatile
  3090   000E60                     
  3091                           ; BSR set to: 14
  3092                           ;mcc_generated_files/ecan.c: 94:     RXM0SIDH = 0xFF;
  3093   000E60  69F8               	setf	248,b	;volatile
  3094                           
  3095                           ;mcc_generated_files/ecan.c: 95:     RXM0SIDL = 0xE3;
  3096   000E62  0EE3               	movlw	227
  3097   000E64  6FF9               	movwf	249,b	;volatile
  3098   000E66                     
  3099                           ; BSR set to: 14
  3100                           ;mcc_generated_files/ecan.c: 96:     RXM1EIDH = 0xFF;
  3101   000E66  69FE               	setf	254,b	;volatile
  3102   000E68                     
  3103                           ; BSR set to: 14
  3104                           ;mcc_generated_files/ecan.c: 97:     RXM1EIDL = 0xFF;
  3105   000E68  69FF               	setf	255,b	;volatile
  3106   000E6A                     
  3107                           ; BSR set to: 14
  3108                           ;mcc_generated_files/ecan.c: 98:     RXM1SIDH = 0xFF;
  3109   000E6A  69FC               	setf	252,b	;volatile
  3110                           
  3111                           ;mcc_generated_files/ecan.c: 99:     RXM1SIDL = 0xE3;
  3112   000E6C  0EE3               	movlw	227
  3113   000E6E  6FFD               	movwf	253,b	;volatile
  3114                           
  3115                           ;mcc_generated_files/ecan.c: 104:     RXF0EIDH = 0x00;
  3116   000E70  0E00               	movlw	0
  3117   000E72  6FE2               	movwf	226,b	;volatile
  3118                           
  3119                           ;mcc_generated_files/ecan.c: 105:     RXF0EIDL = 0x00;
  3120   000E74  0E00               	movlw	0
  3121   000E76  6FE3               	movwf	227,b	;volatile
  3122                           
  3123                           ;mcc_generated_files/ecan.c: 106:     RXF0SIDH = 0x04;
  3124   000E78  0E04               	movlw	4
  3125   000E7A  6FE0               	movwf	224,b	;volatile
  3126                           
  3127                           ;mcc_generated_files/ecan.c: 107:     RXF0SIDL = 0x20;
  3128   000E7C  0E20               	movlw	32
  3129   000E7E  6FE1               	movwf	225,b	;volatile
  3130                           
  3131                           ;mcc_generated_files/ecan.c: 108:     RXF1EIDH = 0x00;
  3132   000E80  0E00               	movlw	0
  3133   000E82  6FE6               	movwf	230,b	;volatile
  3134                           
  3135                           ;mcc_generated_files/ecan.c: 109:     RXF1EIDL = 0x00;
  3136   000E84  0E00               	movlw	0
  3137   000E86  6FE7               	movwf	231,b	;volatile
  3138                           
  3139                           ;mcc_generated_files/ecan.c: 110:     RXF1SIDH = 0x00;
  3140   000E88  0E00               	movlw	0
  3141   000E8A  6FE4               	movwf	228,b	;volatile
  3142                           
  3143                           ;mcc_generated_files/ecan.c: 111:     RXF1SIDL = 0x00;
  3144   000E8C  0E00               	movlw	0
  3145   000E8E  6FE5               	movwf	229,b	;volatile
  3146                           
  3147                           ;mcc_generated_files/ecan.c: 112:     RXF2EIDH = 0x00;
  3148   000E90  0E00               	movlw	0
  3149   000E92  6FEA               	movwf	234,b	;volatile
  3150                           
  3151                           ;mcc_generated_files/ecan.c: 113:     RXF2EIDL = 0x00;
  3152   000E94  0E00               	movlw	0
  3153   000E96  6FEB               	movwf	235,b	;volatile
  3154                           
  3155                           ;mcc_generated_files/ecan.c: 114:     RXF2SIDH = 0x00;
  3156   000E98  0E00               	movlw	0
  3157   000E9A  6FE8               	movwf	232,b	;volatile
  3158                           
  3159                           ;mcc_generated_files/ecan.c: 115:     RXF2SIDL = 0x00;
  3160   000E9C  0E00               	movlw	0
  3161   000E9E  6FE9               	movwf	233,b	;volatile
  3162                           
  3163                           ;mcc_generated_files/ecan.c: 116:     RXF3EIDH = 0x00;
  3164   000EA0  0E00               	movlw	0
  3165   000EA2  6FEE               	movwf	238,b	;volatile
  3166                           
  3167                           ;mcc_generated_files/ecan.c: 117:     RXF3EIDL = 0x00;
  3168   000EA4  0E00               	movlw	0
  3169   000EA6  6FEF               	movwf	239,b	;volatile
  3170                           
  3171                           ;mcc_generated_files/ecan.c: 118:     RXF3SIDH = 0x00;
  3172   000EA8  0E00               	movlw	0
  3173   000EAA  6FEC               	movwf	236,b	;volatile
  3174                           
  3175                           ;mcc_generated_files/ecan.c: 119:     RXF3SIDL = 0x00;
  3176   000EAC  0E00               	movlw	0
  3177   000EAE  6FED               	movwf	237,b	;volatile
  3178                           
  3179                           ;mcc_generated_files/ecan.c: 120:     RXF4EIDH = 0x00;
  3180   000EB0  0E00               	movlw	0
  3181   000EB2  6FF2               	movwf	242,b	;volatile
  3182                           
  3183                           ;mcc_generated_files/ecan.c: 121:     RXF4EIDL = 0x00;
  3184   000EB4  0E00               	movlw	0
  3185   000EB6  6FF3               	movwf	243,b	;volatile
  3186                           
  3187                           ;mcc_generated_files/ecan.c: 122:     RXF4SIDH = 0x00;
  3188   000EB8  0E00               	movlw	0
  3189   000EBA  6FF0               	movwf	240,b	;volatile
  3190                           
  3191                           ;mcc_generated_files/ecan.c: 123:     RXF4SIDL = 0x00;
  3192   000EBC  0E00               	movlw	0
  3193   000EBE  6FF1               	movwf	241,b	;volatile
  3194                           
  3195                           ;mcc_generated_files/ecan.c: 124:     RXF5EIDH = 0x00;
  3196   000EC0  0E00               	movlw	0
  3197   000EC2  6FF6               	movwf	246,b	;volatile
  3198                           
  3199                           ;mcc_generated_files/ecan.c: 125:     RXF5EIDL = 0x00;
  3200   000EC4  0E00               	movlw	0
  3201   000EC6  6FF7               	movwf	247,b	;volatile
  3202                           
  3203                           ;mcc_generated_files/ecan.c: 126:     RXF5SIDH = 0x00;
  3204   000EC8  0E00               	movlw	0
  3205   000ECA  6FF4               	movwf	244,b	;volatile
  3206                           
  3207                           ;mcc_generated_files/ecan.c: 127:     RXF5SIDL = 0x00;
  3208   000ECC  0E00               	movlw	0
  3209   000ECE  6FF5               	movwf	245,b	;volatile
  3210                           
  3211                           ;mcc_generated_files/ecan.c: 142:     BRGCON1 = 0x31;
  3212   000ED0  0E31               	movlw	49
  3213   000ED2  6F43               	movwf	67,b	;volatile
  3214                           
  3215                           ;mcc_generated_files/ecan.c: 143:     BRGCON2 = 0xA8;
  3216   000ED4  0EA8               	movlw	168
  3217   000ED6  6F44               	movwf	68,b	;volatile
  3218                           
  3219                           ;mcc_generated_files/ecan.c: 144:     BRGCON3 = 0x81;
  3220   000ED8  0E81               	movlw	129
  3221   000EDA  6F45               	movwf	69,b	;volatile
  3222   000EDC                     
  3223                           ; BSR set to: 14
  3224                           ;mcc_generated_files/ecan.c: 146:     ECAN_SetRXB0InterruptHandler(RXB0DefaultInterruptH
      +                          andler);
  3225   000EDC  0EFE               	movlw	low _RXB0DefaultInterruptHandler
  3226   000EDE  6E3F               	movwf	ECAN_SetRXB0InterruptHandler@handler^0,c
  3227   000EE0  0E12               	movlw	high _RXB0DefaultInterruptHandler
  3228   000EE2  6E40               	movwf	(ECAN_SetRXB0InterruptHandler@handler+1)^0,c
  3229   000EE4  EC69  F009         	call	_ECAN_SetRXB0InterruptHandler	;wreg free
  3230   000EE8                     
  3231                           ;mcc_generated_files/ecan.c: 147:     PIR5bits.RXB0IF = 0;
  3232   000EE8  9077               	bcf	119,0,c	;volatile
  3233   000EEA                     
  3234                           ;mcc_generated_files/ecan.c: 148:     PIE5bits.RXB0IE = 1;
  3235   000EEA  8076               	bsf	118,0,c	;volatile
  3236   000EEC                     
  3237                           ;mcc_generated_files/ecan.c: 150:     CANCON = 0x00;
  3238   000EEC  0E00               	movlw	0
  3239   000EEE  6E6F               	movwf	111,c	;volatile
  3240   000EF0                     l2988:
  3241   000EF0  CF6E F041          	movff	3950,??_ECAN_Initialize	;volatile
  3242   000EF4  0EE0               	movlw	224
  3243   000EF6  1641               	andwf	??_ECAN_Initialize^0,f,c
  3244   000EF8  A4D8               	btfss	status,2,c
  3245   000EFA  EF81  F007         	goto	u1551
  3246   000EFE  EF83  F007         	goto	u1550
  3247   000F02                     u1551:
  3248   000F02  EF78  F007         	goto	l2988
  3249   000F06                     u1550:
  3250   000F06  0012               	return		;funcret
  3251   000F08                     __end_of_ECAN_Initialize:
  3252                           	callstack 0
  3253                           
  3254 ;; *************** function _ECAN_SetRXB0InterruptHandler *****************
  3255 ;; Defined at:
  3256 ;;		line 440 in file "mcc_generated_files/ecan.c"
  3257 ;; Parameters:    Size  Location     Type
  3258 ;;  handler         2   25[COMRAM] PTR FTN()void 
  3259 ;;		 -> reception_TTCAN(1), RXB0DefaultInterruptHandler(1), 
  3260 ;; Auto vars:     Size  Location     Type
  3261 ;;		None
  3262 ;; Return value:  Size  Location     Type
  3263 ;;                  1    wreg      void 
  3264 ;; Registers used:
  3265 ;;		wreg, status,2, status,0
  3266 ;; Tracked objects:
  3267 ;;		On entry : 0/0
  3268 ;;		On exit  : 0/0
  3269 ;;		Unchanged: 0/0
  3270 ;; Data sizes:     COMRAM   BANK0   BANK1   BANK2   BANK3   BANK4   BANK5   BANK6   BANK7   BANK8   BANK9  BANK10  BANK1
      +1  BANK12  BANK13  BANK14
  3271 ;;      Params:         2       0       0       0       0       0       0       0       0       0       0       0       
      +0       0       0       0
  3272 ;;      Locals:         0       0       0       0       0       0       0       0       0       0       0       0       
      +0       0       0       0
  3273 ;;      Temps:          0       0       0       0       0       0       0       0       0       0       0       0       
      +0       0       0       0
  3274 ;;      Totals:         2       0       0       0       0       0       0       0       0       0       0       0       
      +0       0       0       0
  3275 ;;Total ram usage:        2 bytes
  3276 ;; Hardware stack levels used: 1
  3277 ;; Hardware stack levels required when called: 5
  3278 ;; This function calls:
  3279 ;;		Nothing
  3280 ;; This function is called by:
  3281 ;;		_ECAN_Initialize
  3282 ;;		_main
  3283 ;; This function uses a non-reentrant model
  3284 ;;
  3285                           
  3286                           	psect	text17
  3287   0012D2                     __ptext17:
  3288                           	callstack 0
  3289   0012D2                     _ECAN_SetRXB0InterruptHandler:
  3290                           	callstack 23
  3291   0012D2                     
  3292                           ;mcc_generated_files/ecan.c: 440: void ECAN_SetRXB0InterruptHandler(void (*handler)(void
      +                          ));mcc_generated_files/ecan.c: 441: {;mcc_generated_files/ecan.c: 442:     RXB0Interrupt
      +                          Handler = handler;
  3293   0012D2  C03F  F00F         	movff	ECAN_SetRXB0InterruptHandler@handler,_RXB0InterruptHandler
  3294   0012D6  C040  F010         	movff	ECAN_SetRXB0InterruptHandler@handler+1,_RXB0InterruptHandler+1
  3295   0012DA  0012               	return		;funcret
  3296   0012DC                     __end_of_ECAN_SetRXB0InterruptHandler:
  3297                           	callstack 0
  3298                           
  3299 ;; *************** function _INTERRUPT_InterruptManager *****************
  3300 ;; Defined at:
  3301 ;;		line 58 in file "mcc_generated_files/interrupt_manager.c"
  3302 ;; Parameters:    Size  Location     Type
  3303 ;;		None
  3304 ;; Auto vars:     Size  Location     Type
  3305 ;;		None
  3306 ;; Return value:  Size  Location     Type
  3307 ;;                  1    wreg      void 
  3308 ;; Registers used:
  3309 ;;		wreg, fsr2l, fsr2h, status,2, status,0, pcl, pclath, pclatu, tosl, cstack
  3310 ;; Tracked objects:
  3311 ;;		On entry : 0/0
  3312 ;;		On exit  : 0/0
  3313 ;;		Unchanged: 0/0
  3314 ;; Data sizes:     COMRAM   BANK0   BANK1   BANK2   BANK3   BANK4   BANK5   BANK6   BANK7   BANK8   BANK9  BANK10  BANK1
      +1  BANK12  BANK13  BANK14
  3315 ;;      Params:         0       0       0       0       0       0       0       0       0       0       0       0       
      +0       0       0       0
  3316 ;;      Locals:         0       0       0       0       0       0       0       0       0       0       0       0       
      +0       0       0       0
  3317 ;;      Temps:          4       0       0       0       0       0       0       0       0       0       0       0       
      +0       0       0       0
  3318 ;;      Totals:         4       0       0       0       0       0       0       0       0       0       0       0       
      +0       0       0       0
  3319 ;;Total ram usage:        4 bytes
  3320 ;; Hardware stack levels used: 1
  3321 ;; Hardware stack levels required when called: 4
  3322 ;; This function calls:
  3323 ;;		_ECAN_RXB0I_ISR
  3324 ;;		_TMR1_ISR
  3325 ;;		_TMR2_ISR
  3326 ;; This function is called by:
  3327 ;;		Interrupt level 2
  3328 ;; This function uses a non-reentrant model
  3329 ;;
  3330                           
  3331                           	psect	intcode
  3332   000008                     __pintcode:
  3333                           	callstack 0
  3334   000008                     _INTERRUPT_InterruptManager:
  3335                           	callstack 23
  3336                           
  3337                           ;incstack = 0
  3338   000008  8246               	bsf	int$flags,1,c	;set compiler interrupt flag (level 2)
  3339   00000A  CFFA F03B          	movff	pclath,??_INTERRUPT_InterruptManager
  3340   00000E  CFFB F03C          	movff	pclatu,??_INTERRUPT_InterruptManager+1
  3341   000012  CFD9 F03D          	movff	fsr2l,??_INTERRUPT_InterruptManager+2
  3342   000016  CFDA F03E          	movff	fsr2h,??_INTERRUPT_InterruptManager+3
  3343   00001A                     
  3344                           ;mcc_generated_files/interrupt_manager.c: 61:     if(INTCONbits.PEIE == 1)
  3345   00001A  ACF2               	btfss	242,6,c	;volatile
  3346   00001C  EF12  F000         	goto	i2u105_41
  3347   000020  EF14  F000         	goto	i2u105_40
  3348   000024                     i2u105_41:
  3349   000024  EF4A  F000         	goto	i2l142
  3350   000028                     i2u105_40:
  3351   000028                     
  3352                           ;mcc_generated_files/interrupt_manager.c: 62:     {;mcc_generated_files/interrupt_manage
      +                          r.c: 63:         if(PIE5bits.RXB0IE == 1 && PIR5bits.RXB0IF == 1)
  3353   000028  A076               	btfss	118,0,c	;volatile
  3354   00002A  EF19  F000         	goto	i2u106_41
  3355   00002E  EF1B  F000         	goto	i2u106_40
  3356   000032                     i2u106_41:
  3357   000032  EF26  F000         	goto	i2l135
  3358   000036                     i2u106_40:
  3359   000036  A077               	btfss	119,0,c	;volatile
  3360   000038  EF20  F000         	goto	i2u107_41
  3361   00003C  EF22  F000         	goto	i2u107_40
  3362   000040                     i2u107_41:
  3363   000040  EF26  F000         	goto	i2l135
  3364   000044                     i2u107_40:
  3365   000044                     
  3366                           ;mcc_generated_files/interrupt_manager.c: 64:         {;mcc_generated_files/interrupt_ma
      +                          nager.c: 65:             ECAN_RXB0I_ISR();
  3367   000044  EC25  F009         	call	_ECAN_RXB0I_ISR	;wreg free
  3368                           
  3369                           ;mcc_generated_files/interrupt_manager.c: 66:         }
  3370   000048  EF4A  F000         	goto	i2l142
  3371   00004C                     i2l135:
  3372   00004C  A29D               	btfss	157,1,c	;volatile
  3373   00004E  EF2B  F000         	goto	i2u108_41
  3374   000052  EF2D  F000         	goto	i2u108_40
  3375   000056                     i2u108_41:
  3376   000056  EF38  F000         	goto	i2l137
  3377   00005A                     i2u108_40:
  3378   00005A  A29E               	btfss	158,1,c	;volatile
  3379   00005C  EF32  F000         	goto	i2u109_41
  3380   000060  EF34  F000         	goto	i2u109_40
  3381   000064                     i2u109_41:
  3382   000064  EF38  F000         	goto	i2l137
  3383   000068                     i2u109_40:
  3384   000068                     
  3385                           ;mcc_generated_files/interrupt_manager.c: 68:         {;mcc_generated_files/interrupt_ma
      +                          nager.c: 69:             TMR2_ISR();
  3386   000068  ECC6  F008         	call	_TMR2_ISR	;wreg free
  3387                           
  3388                           ;mcc_generated_files/interrupt_manager.c: 70:         }
  3389   00006C  EF4A  F000         	goto	i2l142
  3390   000070                     i2l137:
  3391   000070  A09D               	btfss	157,0,c	;volatile
  3392   000072  EF3D  F000         	goto	i2u110_41
  3393   000076  EF3F  F000         	goto	i2u110_40
  3394   00007A                     i2u110_41:
  3395   00007A  EF4A  F000         	goto	i2l136
  3396   00007E                     i2u110_40:
  3397   00007E  A09E               	btfss	158,0,c	;volatile
  3398   000080  EF44  F000         	goto	i2u111_41
  3399   000084  EF46  F000         	goto	i2u111_40
  3400   000088                     i2u111_41:
  3401   000088  EF4A  F000         	goto	i2l136
  3402   00008C                     i2u111_40:
  3403   00008C                     
  3404                           ;mcc_generated_files/interrupt_manager.c: 72:         {;mcc_generated_files/interrupt_ma
      +                          nager.c: 73:             TMR1_ISR();
  3405   00008C  EC7B  F008         	call	_TMR1_ISR	;wreg free
  3406                           
  3407                           ;mcc_generated_files/interrupt_manager.c: 74:         }
  3408   000090  EF4A  F000         	goto	i2l142
  3409   000094                     i2l136:
  3410   000094                     i2l142:
  3411   000094  C03E  FFDA         	movff	??_INTERRUPT_InterruptManager+3,fsr2h
  3412   000098  C03D  FFD9         	movff	??_INTERRUPT_InterruptManager+2,fsr2l
  3413   00009C  C03C  FFFB         	movff	??_INTERRUPT_InterruptManager+1,pclatu
  3414   0000A0  C03B  FFFA         	movff	??_INTERRUPT_InterruptManager,pclath
  3415   0000A4  9246               	bcf	int$flags,1,c	;clear compiler interrupt flag (level 2)
  3416   0000A6  0011               	retfie		f
  3417   0000A8                     __end_of_INTERRUPT_InterruptManager:
  3418                           	callstack 0
  3419                           
  3420 ;; *************** function _TMR2_ISR *****************
  3421 ;; Defined at:
  3422 ;;		line 119 in file "mcc_generated_files/tmr2.c"
  3423 ;; Parameters:    Size  Location     Type
  3424 ;;		None
  3425 ;; Auto vars:     Size  Location     Type
  3426 ;;		None
  3427 ;; Return value:  Size  Location     Type
  3428 ;;                  1    wreg      void 
  3429 ;; Registers used:
  3430 ;;		wreg, status,2, status,0, pcl, pclath, pclatu, tosl, cstack
  3431 ;; Tracked objects:
  3432 ;;		On entry : 0/0
  3433 ;;		On exit  : 0/0
  3434 ;;		Unchanged: 0/0
  3435 ;; Data sizes:     COMRAM   BANK0   BANK1   BANK2   BANK3   BANK4   BANK5   BANK6   BANK7   BANK8   BANK9  BANK10  BANK1
      +1  BANK12  BANK13  BANK14
  3436 ;;      Params:         0       0       0       0       0       0       0       0       0       0       0       0       
      +0       0       0       0
  3437 ;;      Locals:         0       0       0       0       0       0       0       0       0       0       0       0       
      +0       0       0       0
  3438 ;;      Temps:          0       0       0       0       0       0       0       0       0       0       0       0       
      +0       0       0       0
  3439 ;;      Totals:         0       0       0       0       0       0       0       0       0       0       0       0       
      +0       0       0       0
  3440 ;;Total ram usage:        0 bytes
  3441 ;; Hardware stack levels used: 1
  3442 ;; Hardware stack levels required when called: 2
  3443 ;; This function calls:
  3444 ;;		_TMR2_CallBack
  3445 ;; This function is called by:
  3446 ;;		_INTERRUPT_InterruptManager
  3447 ;; This function uses a non-reentrant model
  3448 ;;
  3449                           
  3450                           	psect	text19
  3451   00118C                     __ptext19:
  3452                           	callstack 0
  3453   00118C                     _TMR2_ISR:
  3454                           	callstack 24
  3455   00118C                     
  3456                           ;mcc_generated_files/tmr2.c: 121:     static volatile unsigned int CountCallBack = 0;;mc
      +                          c_generated_files/tmr2.c: 124:     PIR1bits.TMR2IF = 0;
  3457   00118C  929E               	bcf	158,1,c	;volatile
  3458   00118E                     
  3459                           ;mcc_generated_files/tmr2.c: 127:     if (++CountCallBack >= 100)
  3460   00118E  4A11               	infsnz	TMR2_ISR@CountCallBack^0,f,c	;volatile
  3461   001190  2A12               	incf	(TMR2_ISR@CountCallBack+1)^0,f,c	;volatile
  3462   001192  5012               	movf	(TMR2_ISR@CountCallBack+1)^0,w,c	;volatile
  3463   001194  E109               	bnz	i2u102_40
  3464   001196  0E64               	movlw	100
  3465   001198  5C11               	subwf	TMR2_ISR@CountCallBack^0,w,c	;volatile
  3466   00119A  A0D8               	btfss	status,0,c
  3467   00119C  EFD2  F008         	goto	i2u102_41
  3468   0011A0  EFD4  F008         	goto	i2u102_40
  3469   0011A4                     i2u102_41:
  3470   0011A4  EFDA  F008         	goto	i2l72
  3471   0011A8                     i2u102_40:
  3472   0011A8                     
  3473                           ;mcc_generated_files/tmr2.c: 128:     {;mcc_generated_files/tmr2.c: 130:         TMR2_Ca
      +                          llBack();
  3474   0011A8  EC96  F008         	call	_TMR2_CallBack	;wreg free
  3475   0011AC                     
  3476                           ;mcc_generated_files/tmr2.c: 133:         CountCallBack = 0;
  3477   0011AC  0E00               	movlw	0
  3478   0011AE  6E12               	movwf	(TMR2_ISR@CountCallBack+1)^0,c	;volatile
  3479   0011B0  0E00               	movlw	0
  3480   0011B2  6E11               	movwf	TMR2_ISR@CountCallBack^0,c	;volatile
  3481   0011B4                     i2l72:
  3482   0011B4  0012               	return		;funcret
  3483   0011B6                     __end_of_TMR2_ISR:
  3484                           	callstack 0
  3485                           
  3486 ;; *************** function _TMR2_CallBack *****************
  3487 ;; Defined at:
  3488 ;;		line 137 in file "mcc_generated_files/tmr2.c"
  3489 ;; Parameters:    Size  Location     Type
  3490 ;;		None
  3491 ;; Auto vars:     Size  Location     Type
  3492 ;;		None
  3493 ;; Return value:  Size  Location     Type
  3494 ;;                  1    wreg      void 
  3495 ;; Registers used:
  3496 ;;		wreg, status,2, status,0, pcl, pclath, pclatu, tosl, cstack
  3497 ;; Tracked objects:
  3498 ;;		On entry : 0/0
  3499 ;;		On exit  : 0/0
  3500 ;;		Unchanged: 0/0
  3501 ;; Data sizes:     COMRAM   BANK0   BANK1   BANK2   BANK3   BANK4   BANK5   BANK6   BANK7   BANK8   BANK9  BANK10  BANK1
      +1  BANK12  BANK13  BANK14
  3502 ;;      Params:         0       0       0       0       0       0       0       0       0       0       0       0       
      +0       0       0       0
  3503 ;;      Locals:         0       0       0       0       0       0       0       0       0       0       0       0       
      +0       0       0       0
  3504 ;;      Temps:          0       0       0       0       0       0       0       0       0       0       0       0       
      +0       0       0       0
  3505 ;;      Totals:         0       0       0       0       0       0       0       0       0       0       0       0       
      +0       0       0       0
  3506 ;;Total ram usage:        0 bytes
  3507 ;; Hardware stack levels used: 1
  3508 ;; Hardware stack levels required when called: 1
  3509 ;; This function calls:
  3510 ;;		Absolute function
  3511 ;;		_TMR2_DefaultInterruptHandler
  3512 ;;		_interruption_2
  3513 ;; This function is called by:
  3514 ;;		_TMR2_ISR
  3515 ;; This function uses a non-reentrant model
  3516 ;;
  3517                           
  3518                           	psect	text20
  3519   00112C                     __ptext20:
  3520                           	callstack 0
  3521   00112C                     _TMR2_CallBack:
  3522                           	callstack 24
  3523   00112C                     
  3524                           ;mcc_generated_files/tmr2.c: 141:     if(TMR2_InterruptHandler)
  3525   00112C  0100               	movlb	0	; () banked
  3526   00112E  518A               	movf	_TMR2_InterruptHandler& (0+255),w,b
  3527   001130  118B               	iorwf	(_TMR2_InterruptHandler+1)& (0+255),w,b
  3528   001132  B4D8               	btfsc	status,2,c
  3529   001134  EF9E  F008         	goto	i2u90_41
  3530   001138  EFA0  F008         	goto	i2u90_40
  3531   00113C                     i2u90_41:
  3532   00113C  EFAD  F008         	goto	i2l76
  3533   001140                     i2u90_40:
  3534   001140                     
  3535                           ; BSR set to: 0
  3536                           ;mcc_generated_files/tmr2.c: 142:     {;mcc_generated_files/tmr2.c: 143:         TMR2_In
      +                          terruptHandler();
  3537   001140  D802               	call	i2u91_48
  3538   001142  EFAD  F008         	goto	i2u91_49
  3539   001146                     i2u91_48:
  3540   001146  0005               	push	
  3541   001148  6EFA               	movwf	pclath,c
  3542   00114A  518A               	movf	_TMR2_InterruptHandler& (0+255),w,b
  3543   00114C  6EFD               	movwf	tosl,c
  3544   00114E  518B               	movf	(_TMR2_InterruptHandler+1)& (0+255),w,b
  3545   001150  6EFE               	movwf	tosh,c
  3546   001152  50F8               	movf	tblptru,w,c
  3547   001154  6EFF               	movwf	tosu,c
  3548   001156  50FA               	movf	pclath,w,c
  3549   001158  0012               	return		;indir
  3550   00115A                     i2u91_49:
  3551   00115A                     i2l76:
  3552   00115A  0012               	return		;funcret
  3553   00115C                     __end_of_TMR2_CallBack:
  3554                           	callstack 0
  3555                           
  3556 ;; *************** function _TMR2_DefaultInterruptHandler *****************
  3557 ;; Defined at:
  3558 ;;		line 151 in file "mcc_generated_files/tmr2.c"
  3559 ;; Parameters:    Size  Location     Type
  3560 ;;		None
  3561 ;; Auto vars:     Size  Location     Type
  3562 ;;		None
  3563 ;; Return value:  Size  Location     Type
  3564 ;;                  1    wreg      void 
  3565 ;; Registers used:
  3566 ;;		None
  3567 ;; Tracked objects:
  3568 ;;		On entry : 0/0
  3569 ;;		On exit  : 0/0
  3570 ;;		Unchanged: 0/0
  3571 ;; Data sizes:     COMRAM   BANK0   BANK1   BANK2   BANK3   BANK4   BANK5   BANK6   BANK7   BANK8   BANK9  BANK10  BANK1
      +1  BANK12  BANK13  BANK14
  3572 ;;      Params:         0       0       0       0       0       0       0       0       0       0       0       0       
      +0       0       0       0
  3573 ;;      Locals:         0       0       0       0       0       0       0       0       0       0       0       0       
      +0       0       0       0
  3574 ;;      Temps:          0       0       0       0       0       0       0       0       0       0       0       0       
      +0       0       0       0
  3575 ;;      Totals:         0       0       0       0       0       0       0       0       0       0       0       0       
      +0       0       0       0
  3576 ;;Total ram usage:        0 bytes
  3577 ;; Hardware stack levels used: 1
  3578 ;; This function calls:
  3579 ;;		Nothing
  3580 ;; This function is called by:
  3581 ;;		_TMR2_Initialize
  3582 ;;		_TMR2_CallBack
  3583 ;; This function uses a non-reentrant model
  3584 ;;
  3585                           
  3586                           	psect	text21
  3587   0012FA                     __ptext21:
  3588                           	callstack 0
  3589   0012FA                     _TMR2_DefaultInterruptHandler:
  3590                           	callstack 24
  3591   0012FA  0012               	return		;funcret
  3592   0012FC                     __end_of_TMR2_DefaultInterruptHandler:
  3593                           	callstack 0
  3594                           
  3595 ;; *************** function _interruption_2 *****************
  3596 ;; Defined at:
  3597 ;;		line 81 in file "main.c"
  3598 ;; Parameters:    Size  Location     Type
  3599 ;;		None
  3600 ;; Auto vars:     Size  Location     Type
  3601 ;;		None
  3602 ;; Return value:  Size  Location     Type
  3603 ;;                  1    wreg      void 
  3604 ;; Registers used:
  3605 ;;		wreg, status,2
  3606 ;; Tracked objects:
  3607 ;;		On entry : 0/0
  3608 ;;		On exit  : 0/0
  3609 ;;		Unchanged: 0/0
  3610 ;; Data sizes:     COMRAM   BANK0   BANK1   BANK2   BANK3   BANK4   BANK5   BANK6   BANK7   BANK8   BANK9  BANK10  BANK1
      +1  BANK12  BANK13  BANK14
  3611 ;;      Params:         0       0       0       0       0       0       0       0       0       0       0       0       
      +0       0       0       0
  3612 ;;      Locals:         0       0       0       0       0       0       0       0       0       0       0       0       
      +0       0       0       0
  3613 ;;      Temps:          0       0       0       0       0       0       0       0       0       0       0       0       
      +0       0       0       0
  3614 ;;      Totals:         0       0       0       0       0       0       0       0       0       0       0       0       
      +0       0       0       0
  3615 ;;Total ram usage:        0 bytes
  3616 ;; Hardware stack levels used: 1
  3617 ;; This function calls:
  3618 ;;		Nothing
  3619 ;; This function is called by:
  3620 ;;		_main
  3621 ;;		_TMR2_CallBack
  3622 ;; This function uses a non-reentrant model
  3623 ;;
  3624                           
  3625                           	psect	text22
  3626   0012DC                     __ptext22:
  3627                           	callstack 0
  3628   0012DC                     _interruption_2:
  3629                           	callstack 24
  3630   0012DC                     
  3631                           ;main.c: 83:     flag_interrupt_2 = 1;
  3632   0012DC  0E00               	movlw	0
  3633   0012DE  6E0A               	movwf	(_flag_interrupt_2+1)^0,c
  3634   0012E0  0E01               	movlw	1
  3635   0012E2  6E09               	movwf	_flag_interrupt_2^0,c
  3636   0012E4  0012               	return		;funcret
  3637   0012E6                     __end_of_interruption_2:
  3638                           	callstack 0
  3639                           
  3640 ;; *************** function _TMR1_ISR *****************
  3641 ;; Defined at:
  3642 ;;		line 157 in file "mcc_generated_files/tmr1.c"
  3643 ;; Parameters:    Size  Location     Type
  3644 ;;		None
  3645 ;; Auto vars:     Size  Location     Type
  3646 ;;		None
  3647 ;; Return value:  Size  Location     Type
  3648 ;;                  1    wreg      void 
  3649 ;; Registers used:
  3650 ;;		wreg, status,2, status,0, pcl, pclath, pclatu, tosl, cstack
  3651 ;; Tracked objects:
  3652 ;;		On entry : 0/0
  3653 ;;		On exit  : 0/0
  3654 ;;		Unchanged: 0/0
  3655 ;; Data sizes:     COMRAM   BANK0   BANK1   BANK2   BANK3   BANK4   BANK5   BANK6   BANK7   BANK8   BANK9  BANK10  BANK1
      +1  BANK12  BANK13  BANK14
  3656 ;;      Params:         0       0       0       0       0       0       0       0       0       0       0       0       
      +0       0       0       0
  3657 ;;      Locals:         0       0       0       0       0       0       0       0       0       0       0       0       
      +0       0       0       0
  3658 ;;      Temps:          0       0       0       0       0       0       0       0       0       0       0       0       
      +0       0       0       0
  3659 ;;      Totals:         0       0       0       0       0       0       0       0       0       0       0       0       
      +0       0       0       0
  3660 ;;Total ram usage:        0 bytes
  3661 ;; Hardware stack levels used: 1
  3662 ;; Hardware stack levels required when called: 2
  3663 ;; This function calls:
  3664 ;;		_TMR1_CallBack
  3665 ;;		_TMR1_WriteTimer
  3666 ;; This function is called by:
  3667 ;;		_INTERRUPT_InterruptManager
  3668 ;; This function uses a non-reentrant model
  3669 ;;
  3670                           
  3671                           	psect	text23
  3672   0010F6                     __ptext23:
  3673                           	callstack 0
  3674   0010F6                     _TMR1_ISR:
  3675                           	callstack 24
  3676   0010F6                     
  3677                           ;mcc_generated_files/tmr1.c: 159:     static volatile unsigned int CountCallBack = 0;;mc
      +                          c_generated_files/tmr1.c: 162:     PIR1bits.TMR1IF = 0;
  3678   0010F6  909E               	bcf	158,0,c	;volatile
  3679   0010F8                     
  3680                           ;mcc_generated_files/tmr1.c: 163:     TMR1_WriteTimer(timer1ReloadVal);
  3681   0010F8  C044  F026         	movff	_timer1ReloadVal,TMR1_WriteTimer@timerVal	;volatile
  3682   0010FC  C045  F027         	movff	_timer1ReloadVal+1,TMR1_WriteTimer@timerVal+1	;volatile
  3683   001100  ECEF  F008         	call	_TMR1_WriteTimer	;wreg free
  3684   001104                     
  3685                           ;mcc_generated_files/tmr1.c: 166:     if (++CountCallBack >= 20)
  3686   001104  4A0D               	infsnz	TMR1_ISR@CountCallBack^0,f,c	;volatile
  3687   001106  2A0E               	incf	(TMR1_ISR@CountCallBack+1)^0,f,c	;volatile
  3688   001108  500E               	movf	(TMR1_ISR@CountCallBack+1)^0,w,c	;volatile
  3689   00110A  E109               	bnz	i2u104_40
  3690   00110C  0E14               	movlw	20
  3691   00110E  5C0D               	subwf	TMR1_ISR@CountCallBack^0,w,c	;volatile
  3692   001110  A0D8               	btfss	status,0,c
  3693   001112  EF8D  F008         	goto	i2u104_41
  3694   001116  EF8F  F008         	goto	i2u104_40
  3695   00111A                     i2u104_41:
  3696   00111A  EF95  F008         	goto	i2l504
  3697   00111E                     i2u104_40:
  3698   00111E                     
  3699                           ;mcc_generated_files/tmr1.c: 167:     {;mcc_generated_files/tmr1.c: 169:         TMR1_Ca
      +                          llBack();
  3700   00111E  ECAE  F008         	call	_TMR1_CallBack	;wreg free
  3701   001122                     
  3702                           ;mcc_generated_files/tmr1.c: 172:         CountCallBack = 0;
  3703   001122  0E00               	movlw	0
  3704   001124  6E0E               	movwf	(TMR1_ISR@CountCallBack+1)^0,c	;volatile
  3705   001126  0E00               	movlw	0
  3706   001128  6E0D               	movwf	TMR1_ISR@CountCallBack^0,c	;volatile
  3707   00112A                     i2l504:
  3708   00112A  0012               	return		;funcret
  3709   00112C                     __end_of_TMR1_ISR:
  3710                           	callstack 0
  3711                           
  3712 ;; *************** function _TMR1_CallBack *****************
  3713 ;; Defined at:
  3714 ;;		line 176 in file "mcc_generated_files/tmr1.c"
  3715 ;; Parameters:    Size  Location     Type
  3716 ;;		None
  3717 ;; Auto vars:     Size  Location     Type
  3718 ;;		None
  3719 ;; Return value:  Size  Location     Type
  3720 ;;                  1    wreg      void 
  3721 ;; Registers used:
  3722 ;;		wreg, status,2, status,0, pcl, pclath, pclatu, tosl, cstack
  3723 ;; Tracked objects:
  3724 ;;		On entry : 0/0
  3725 ;;		On exit  : 0/0
  3726 ;;		Unchanged: 0/0
  3727 ;; Data sizes:     COMRAM   BANK0   BANK1   BANK2   BANK3   BANK4   BANK5   BANK6   BANK7   BANK8   BANK9  BANK10  BANK1
      +1  BANK12  BANK13  BANK14
  3728 ;;      Params:         0       0       0       0       0       0       0       0       0       0       0       0       
      +0       0       0       0
  3729 ;;      Locals:         0       0       0       0       0       0       0       0       0       0       0       0       
      +0       0       0       0
  3730 ;;      Temps:          0       0       0       0       0       0       0       0       0       0       0       0       
      +0       0       0       0
  3731 ;;      Totals:         0       0       0       0       0       0       0       0       0       0       0       0       
      +0       0       0       0
  3732 ;;Total ram usage:        0 bytes
  3733 ;; Hardware stack levels used: 1
  3734 ;; Hardware stack levels required when called: 1
  3735 ;; This function calls:
  3736 ;;		Absolute function
  3737 ;;		_TMR1_DefaultInterruptHandler
  3738 ;;		_interruption_1
  3739 ;; This function is called by:
  3740 ;;		_TMR1_ISR
  3741 ;; This function uses a non-reentrant model
  3742 ;;
  3743                           
  3744                           	psect	text24
  3745   00115C                     __ptext24:
  3746                           	callstack 0
  3747   00115C                     _TMR1_CallBack:
  3748                           	callstack 24
  3749   00115C                     
  3750                           ;mcc_generated_files/tmr1.c: 179:     if(TMR1_InterruptHandler)
  3751   00115C  0100               	movlb	0	; () banked
  3752   00115E  5188               	movf	_TMR1_InterruptHandler& (0+255),w,b
  3753   001160  1189               	iorwf	(_TMR1_InterruptHandler+1)& (0+255),w,b
  3754   001162  B4D8               	btfsc	status,2,c
  3755   001164  EFB6  F008         	goto	i2u97_41
  3756   001168  EFB8  F008         	goto	i2u97_40
  3757   00116C                     i2u97_41:
  3758   00116C  EFC5  F008         	goto	i2l508
  3759   001170                     i2u97_40:
  3760   001170                     
  3761                           ; BSR set to: 0
  3762                           ;mcc_generated_files/tmr1.c: 180:     {;mcc_generated_files/tmr1.c: 181:         TMR1_In
      +                          terruptHandler();
  3763   001170  D802               	call	i2u98_48
  3764   001172  EFC5  F008         	goto	i2u98_49
  3765   001176                     i2u98_48:
  3766   001176  0005               	push	
  3767   001178  6EFA               	movwf	pclath,c
  3768   00117A  5188               	movf	_TMR1_InterruptHandler& (0+255),w,b
  3769   00117C  6EFD               	movwf	tosl,c
  3770   00117E  5189               	movf	(_TMR1_InterruptHandler+1)& (0+255),w,b
  3771   001180  6EFE               	movwf	tosh,c
  3772   001182  50F8               	movf	tblptru,w,c
  3773   001184  6EFF               	movwf	tosu,c
  3774   001186  50FA               	movf	pclath,w,c
  3775   001188  0012               	return		;indir
  3776   00118A                     i2u98_49:
  3777   00118A                     i2l508:
  3778   00118A  0012               	return		;funcret
  3779   00118C                     __end_of_TMR1_CallBack:
  3780                           	callstack 0
  3781                           
  3782 ;; *************** function _TMR1_DefaultInterruptHandler *****************
  3783 ;; Defined at:
  3784 ;;		line 189 in file "mcc_generated_files/tmr1.c"
  3785 ;; Parameters:    Size  Location     Type
  3786 ;;		None
  3787 ;; Auto vars:     Size  Location     Type
  3788 ;;		None
  3789 ;; Return value:  Size  Location     Type
  3790 ;;                  1    wreg      void 
  3791 ;; Registers used:
  3792 ;;		None
  3793 ;; Tracked objects:
  3794 ;;		On entry : 0/0
  3795 ;;		On exit  : 0/0
  3796 ;;		Unchanged: 0/0
  3797 ;; Data sizes:     COMRAM   BANK0   BANK1   BANK2   BANK3   BANK4   BANK5   BANK6   BANK7   BANK8   BANK9  BANK10  BANK1
      +1  BANK12  BANK13  BANK14
  3798 ;;      Params:         0       0       0       0       0       0       0       0       0       0       0       0       
      +0       0       0       0
  3799 ;;      Locals:         0       0       0       0       0       0       0       0       0       0       0       0       
      +0       0       0       0
  3800 ;;      Temps:          0       0       0       0       0       0       0       0       0       0       0       0       
      +0       0       0       0
  3801 ;;      Totals:         0       0       0       0       0       0       0       0       0       0       0       0       
      +0       0       0       0
  3802 ;;Total ram usage:        0 bytes
  3803 ;; Hardware stack levels used: 1
  3804 ;; This function calls:
  3805 ;;		Nothing
  3806 ;; This function is called by:
  3807 ;;		_TMR1_Initialize
  3808 ;;		_TMR1_CallBack
  3809 ;; This function uses a non-reentrant model
  3810 ;;
  3811                           
  3812                           	psect	text25
  3813   0012FC                     __ptext25:
  3814                           	callstack 0
  3815   0012FC                     _TMR1_DefaultInterruptHandler:
  3816                           	callstack 24
  3817   0012FC  0012               	return		;funcret
  3818   0012FE                     __end_of_TMR1_DefaultInterruptHandler:
  3819                           	callstack 0
  3820                           
  3821 ;; *************** function _interruption_1 *****************
  3822 ;; Defined at:
  3823 ;;		line 86 in file "main.c"
  3824 ;; Parameters:    Size  Location     Type
  3825 ;;		None
  3826 ;; Auto vars:     Size  Location     Type
  3827 ;;		None
  3828 ;; Return value:  Size  Location     Type
  3829 ;;                  1    wreg      void 
  3830 ;; Registers used:
  3831 ;;		wreg, status,2, status,0
  3832 ;; Tracked objects:
  3833 ;;		On entry : 0/0
  3834 ;;		On exit  : 0/0
  3835 ;;		Unchanged: 0/0
  3836 ;; Data sizes:     COMRAM   BANK0   BANK1   BANK2   BANK3   BANK4   BANK5   BANK6   BANK7   BANK8   BANK9  BANK10  BANK1
      +1  BANK12  BANK13  BANK14
  3837 ;;      Params:         0       0       0       0       0       0       0       0       0       0       0       0       
      +0       0       0       0
  3838 ;;      Locals:         0       0       0       0       0       0       0       0       0       0       0       0       
      +0       0       0       0
  3839 ;;      Temps:          0       0       0       0       0       0       0       0       0       0       0       0       
      +0       0       0       0
  3840 ;;      Totals:         0       0       0       0       0       0       0       0       0       0       0       0       
      +0       0       0       0
  3841 ;;Total ram usage:        0 bytes
  3842 ;; Hardware stack levels used: 1
  3843 ;; This function calls:
  3844 ;;		Nothing
  3845 ;; This function is called by:
  3846 ;;		_main
  3847 ;;		_TMR1_CallBack
  3848 ;; This function uses a non-reentrant model
  3849 ;;
  3850                           
  3851                           	psect	text26
  3852   001268                     __ptext26:
  3853                           	callstack 0
  3854   001268                     _interruption_1:
  3855                           	callstack 24
  3856   001268                     
  3857                           ;main.c: 88:     if (MSG_id_recever != 0x00)
  3858   001268  5001               	movf	_MSG_id_recever^0,w,c
  3859   00126A  1002               	iorwf	(_MSG_id_recever+1)^0,w,c
  3860   00126C  1003               	iorwf	(_MSG_id_recever+2)^0,w,c
  3861   00126E  1004               	iorwf	(_MSG_id_recever+3)^0,w,c
  3862   001270  B4D8               	btfsc	status,2,c
  3863   001272  EF3D  F009         	goto	i2u89_41
  3864   001276  EF3F  F009         	goto	i2u89_40
  3865   00127A                     i2u89_41:
  3866   00127A  EF41  F009         	goto	i2l581
  3867   00127E                     i2u89_40:
  3868   00127E                     
  3869                           ;main.c: 89:     {;main.c: 90:         compteurTTCAN++;
  3870   00127E  4A0B               	infsnz	_compteurTTCAN^0,f,c
  3871   001280  2A0C               	incf	(_compteurTTCAN+1)^0,f,c
  3872   001282                     i2l581:
  3873   001282  0012               	return		;funcret
  3874   001284                     __end_of_interruption_1:
  3875                           	callstack 0
  3876                           
  3877 ;; *************** function _ECAN_RXB0I_ISR *****************
  3878 ;; Defined at:
  3879 ;;		line 445 in file "mcc_generated_files/ecan.c"
  3880 ;; Parameters:    Size  Location     Type
  3881 ;;		None
  3882 ;; Auto vars:     Size  Location     Type
  3883 ;;		None
  3884 ;; Return value:  Size  Location     Type
  3885 ;;                  1    wreg      void 
  3886 ;; Registers used:
  3887 ;;		wreg, fsr2l, fsr2h, status,2, status,0, pcl, pclath, pclatu, tosl, cstack
  3888 ;; Tracked objects:
  3889 ;;		On entry : 0/0
  3890 ;;		On exit  : 0/0
  3891 ;;		Unchanged: 0/0
  3892 ;; Data sizes:     COMRAM   BANK0   BANK1   BANK2   BANK3   BANK4   BANK5   BANK6   BANK7   BANK8   BANK9  BANK10  BANK1
      +1  BANK12  BANK13  BANK14
  3893 ;;      Params:         0       0       0       0       0       0       0       0       0       0       0       0       
      +0       0       0       0
  3894 ;;      Locals:         0       0       0       0       0       0       0       0       0       0       0       0       
      +0       0       0       0
  3895 ;;      Temps:          0       0       0       0       0       0       0       0       0       0       0       0       
      +0       0       0       0
  3896 ;;      Totals:         0       0       0       0       0       0       0       0       0       0       0       0       
      +0       0       0       0
  3897 ;;Total ram usage:        0 bytes
  3898 ;; Hardware stack levels used: 1
  3899 ;; Hardware stack levels required when called: 3
  3900 ;; This function calls:
  3901 ;;		Absolute function
  3902 ;;		_RXB0DefaultInterruptHandler
  3903 ;;		_reception_TTCAN
  3904 ;; This function is called by:
  3905 ;;		_INTERRUPT_InterruptManager
  3906 ;; This function uses a non-reentrant model
  3907 ;;
  3908                           
  3909                           	psect	text27
  3910   00124A                     __ptext27:
  3911                           	callstack 0
  3912   00124A                     _ECAN_RXB0I_ISR:
  3913                           	callstack 23
  3914   00124A                     
  3915                           ;mcc_generated_files/ecan.c: 447:     RXB0InterruptHandler();
  3916   00124A  D802               	call	i2u103_48
  3917   00124C  EF32  F009         	goto	i2u103_49
  3918   001250                     i2u103_48:
  3919   001250  0005               	push	
  3920   001252  6EFA               	movwf	pclath,c
  3921   001254  500F               	movf	_RXB0InterruptHandler^0,w,c
  3922   001256  6EFD               	movwf	tosl,c
  3923   001258  5010               	movf	(_RXB0InterruptHandler+1)^0,w,c
  3924   00125A  6EFE               	movwf	tosh,c
  3925   00125C  50F8               	movf	tblptru,w,c
  3926   00125E  6EFF               	movwf	tosu,c
  3927   001260  50FA               	movf	pclath,w,c
  3928   001262  0012               	return		;indir
  3929   001264                     i2u103_49:
  3930   001264                     
  3931                           ;mcc_generated_files/ecan.c: 448:     PIR5bits.RXB0IF = 0;
  3932   001264  9077               	bcf	119,0,c	;volatile
  3933   001266  0012               	return		;funcret
  3934   001268                     __end_of_ECAN_RXB0I_ISR:
  3935                           	callstack 0
  3936                           
  3937 ;; *************** function _RXB0DefaultInterruptHandler *****************
  3938 ;; Defined at:
  3939 ;;		line 63 in file "mcc_generated_files/ecan.c"
  3940 ;; Parameters:    Size  Location     Type
  3941 ;;		None
  3942 ;; Auto vars:     Size  Location     Type
  3943 ;;		None
  3944 ;; Return value:  Size  Location     Type
  3945 ;;                  1    wreg      void 
  3946 ;; Registers used:
  3947 ;;		None
  3948 ;; Tracked objects:
  3949 ;;		On entry : 0/0
  3950 ;;		On exit  : 0/0
  3951 ;;		Unchanged: 0/0
  3952 ;; Data sizes:     COMRAM   BANK0   BANK1   BANK2   BANK3   BANK4   BANK5   BANK6   BANK7   BANK8   BANK9  BANK10  BANK1
      +1  BANK12  BANK13  BANK14
  3953 ;;      Params:         0       0       0       0       0       0       0       0       0       0       0       0       
      +0       0       0       0
  3954 ;;      Locals:         0       0       0       0       0       0       0       0       0       0       0       0       
      +0       0       0       0
  3955 ;;      Temps:          0       0       0       0       0       0       0       0       0       0       0       0       
      +0       0       0       0
  3956 ;;      Totals:         0       0       0       0       0       0       0       0       0       0       0       0       
      +0       0       0       0
  3957 ;;Total ram usage:        0 bytes
  3958 ;; Hardware stack levels used: 1
  3959 ;; This function calls:
  3960 ;;		Nothing
  3961 ;; This function is called by:
  3962 ;;		_ECAN_Initialize
  3963 ;;		_ECAN_RXB0I_ISR
  3964 ;; This function uses a non-reentrant model
  3965 ;;
  3966                           
  3967                           	psect	text28
  3968   0012FE                     __ptext28:
  3969                           	callstack 0
  3970   0012FE                     _RXB0DefaultInterruptHandler:
  3971                           	callstack 25
  3972   0012FE  0012               	return		;funcret
  3973   001300                     __end_of_RXB0DefaultInterruptHandler:
  3974                           	callstack 0
  3975                           
  3976 ;; *************** function _reception_TTCAN *****************
  3977 ;; Defined at:
  3978 ;;		line 177 in file "main.c"
  3979 ;; Parameters:    Size  Location     Type
  3980 ;;		None
  3981 ;; Auto vars:     Size  Location     Type
  3982 ;;		None
  3983 ;; Return value:  Size  Location     Type
  3984 ;;                  1    wreg      void 
  3985 ;; Registers used:
  3986 ;;		wreg, fsr2l, fsr2h, status,2, status,0, cstack
  3987 ;; Tracked objects:
  3988 ;;		On entry : 0/0
  3989 ;;		On exit  : 0/0
  3990 ;;		Unchanged: 0/0
  3991 ;; Data sizes:     COMRAM   BANK0   BANK1   BANK2   BANK3   BANK4   BANK5   BANK6   BANK7   BANK8   BANK9  BANK10  BANK1
      +1  BANK12  BANK13  BANK14
  3992 ;;      Params:         0       0       0       0       0       0       0       0       0       0       0       0       
      +0       0       0       0
  3993 ;;      Locals:         0       0       0       0       0       0       0       0       0       0       0       0       
      +0       0       0       0
  3994 ;;      Temps:          0       0       0       0       0       0       0       0       0       0       0       0       
      +0       0       0       0
  3995 ;;      Totals:         0       0       0       0       0       0       0       0       0       0       0       0       
      +0       0       0       0
  3996 ;;Total ram usage:        0 bytes
  3997 ;; Hardware stack levels used: 1
  3998 ;; Hardware stack levels required when called: 2
  3999 ;; This function calls:
  4000 ;;		_CAN_receive
  4001 ;;		_TMR1_Reload
  4002 ;; This function is called by:
  4003 ;;		_main
  4004 ;;		_ECAN_RXB0I_ISR
  4005 ;; This function uses a non-reentrant model
  4006 ;;
  4007                           
  4008                           	psect	text29
  4009   000FC6                     __ptext29:
  4010                           	callstack 0
  4011   000FC6                     _reception_TTCAN:
  4012                           	callstack 23
  4013   000FC6                     
  4014                           ;main.c: 179:     CAN_receive(&rxMessage);
  4015   000FC6  0E7A               	movlw	low _rxMessage
  4016   000FC8  6E39               	movwf	CAN_receive@tempCanMsg^0,c
  4017   000FCA  0E00               	movlw	high _rxMessage
  4018   000FCC  6E3A               	movwf	(CAN_receive@tempCanMsg+1)^0,c
  4019   000FCE  ECA0  F004         	call	_CAN_receive	;wreg free
  4020   000FD2                     
  4021                           ;main.c: 180:     MSG_id_recever = rxMessage.frame.id;
  4022   000FD2  C07B  F001         	movff	_rxMessage+1,_MSG_id_recever
  4023   000FD6  C07C  F002         	movff	_rxMessage+2,_MSG_id_recever+1
  4024   000FDA  C07D  F003         	movff	_rxMessage+3,_MSG_id_recever+2
  4025   000FDE  C07E  F004         	movff	_rxMessage+4,_MSG_id_recever+3
  4026   000FE2                     
  4027                           ;main.c: 182:     if (MSG_id_recever == 0x00) {
  4028   000FE2  5001               	movf	_MSG_id_recever^0,w,c
  4029   000FE4  1002               	iorwf	(_MSG_id_recever+1)^0,w,c
  4030   000FE6  1003               	iorwf	(_MSG_id_recever+2)^0,w,c
  4031   000FE8  1004               	iorwf	(_MSG_id_recever+3)^0,w,c
  4032   000FEA  A4D8               	btfss	status,2,c
  4033   000FEC  EFFA  F007         	goto	i2u99_41
  4034   000FF0  EFFC  F007         	goto	i2u99_40
  4035   000FF4                     i2u99_41:
  4036   000FF4  EF04  F008         	goto	i2l2516
  4037   000FF8                     i2u99_40:
  4038   000FF8                     
  4039                           ;main.c: 184:         TMR1_Reload();
  4040   000FF8  EC58  F009         	call	_TMR1_Reload	;wreg free
  4041   000FFC                     
  4042                           ;main.c: 185:         compteurTTCAN = 0;
  4043   000FFC  0E00               	movlw	0
  4044   000FFE  6E0C               	movwf	(_compteurTTCAN+1)^0,c
  4045   001000  0E00               	movlw	0
  4046   001002  6E0B               	movwf	_compteurTTCAN^0,c
  4047                           
  4048                           ;main.c: 187:     } else {
  4049   001004  EF22  F008         	goto	i2l600
  4050   001008                     i2l2516:
  4051                           
  4052                           ;main.c: 189:         if (MSG_id_recever == 0x21)
  4053   001008  0E21               	movlw	33
  4054   00100A  1801               	xorwf	_MSG_id_recever^0,w,c
  4055   00100C  1002               	iorwf	(_MSG_id_recever+1)^0,w,c
  4056   00100E  1003               	iorwf	(_MSG_id_recever+2)^0,w,c
  4057   001010  1004               	iorwf	(_MSG_id_recever+3)^0,w,c
  4058   001012  A4D8               	btfss	status,2,c
  4059   001014  EF0E  F008         	goto	i2u100_41
  4060   001018  EF10  F008         	goto	i2u100_40
  4061   00101C                     i2u100_41:
  4062   00101C  EF14  F008         	goto	i2l2520
  4063   001020                     i2u100_40:
  4064   001020                     
  4065                           ;main.c: 190:         {;main.c: 191:             mode_transmition = rxMessage.frame.data
      +                          0;
  4066   001020  C080  F017         	movff	_rxMessage+6,_mode_transmition
  4067                           
  4068                           ;main.c: 193:         }
  4069   001024  EF22  F008         	goto	i2l600
  4070   001028                     i2l2520:
  4071   001028  0E31               	movlw	49
  4072   00102A  1801               	xorwf	_MSG_id_recever^0,w,c
  4073   00102C  1002               	iorwf	(_MSG_id_recever+1)^0,w,c
  4074   00102E  1003               	iorwf	(_MSG_id_recever+2)^0,w,c
  4075   001030  1004               	iorwf	(_MSG_id_recever+3)^0,w,c
  4076   001032  A4D8               	btfss	status,2,c
  4077   001034  EF1E  F008         	goto	i2u101_41
  4078   001038  EF20  F008         	goto	i2u101_40
  4079   00103C                     i2u101_41:
  4080   00103C  EF22  F008         	goto	i2l600
  4081   001040                     i2u101_40:
  4082   001040                     
  4083                           ;main.c: 196:         {;main.c: 197:             vitesse_vehicule = (int8_t) rxMessage.f
      +                          rame.data0;
  4084   001040  C080  F016         	movff	_rxMessage+6,_vitesse_vehicule
  4085   001044                     i2l600:
  4086   001044  0012               	return		;funcret
  4087   001046                     __end_of_reception_TTCAN:
  4088                           	callstack 0
  4089                           
  4090 ;; *************** function _TMR1_Reload *****************
  4091 ;; Defined at:
  4092 ;;		line 142 in file "mcc_generated_files/tmr1.c"
  4093 ;; Parameters:    Size  Location     Type
  4094 ;;		None
  4095 ;; Auto vars:     Size  Location     Type
  4096 ;;		None
  4097 ;; Return value:  Size  Location     Type
  4098 ;;                  1    wreg      void 
  4099 ;; Registers used:
  4100 ;;		wreg, status,2, cstack
  4101 ;; Tracked objects:
  4102 ;;		On entry : 0/0
  4103 ;;		On exit  : 0/0
  4104 ;;		Unchanged: 0/0
  4105 ;; Data sizes:     COMRAM   BANK0   BANK1   BANK2   BANK3   BANK4   BANK5   BANK6   BANK7   BANK8   BANK9  BANK10  BANK1
      +1  BANK12  BANK13  BANK14
  4106 ;;      Params:         0       0       0       0       0       0       0       0       0       0       0       0       
      +0       0       0       0
  4107 ;;      Locals:         0       0       0       0       0       0       0       0       0       0       0       0       
      +0       0       0       0
  4108 ;;      Temps:          0       0       0       0       0       0       0       0       0       0       0       0       
      +0       0       0       0
  4109 ;;      Totals:         0       0       0       0       0       0       0       0       0       0       0       0       
      +0       0       0       0
  4110 ;;Total ram usage:        0 bytes
  4111 ;; Hardware stack levels used: 1
  4112 ;; Hardware stack levels required when called: 1
  4113 ;; This function calls:
  4114 ;;		_TMR1_WriteTimer
  4115 ;; This function is called by:
  4116 ;;		_reception_TTCAN
  4117 ;; This function uses a non-reentrant model
  4118 ;;
  4119                           
  4120                           	psect	text30
  4121   0012B0                     __ptext30:
  4122                           	callstack 0
  4123   0012B0                     _TMR1_Reload:
  4124                           	callstack 23
  4125   0012B0                     
  4126                           ;mcc_generated_files/tmr1.c: 144:     TMR1_WriteTimer(timer1ReloadVal);
  4127   0012B0  C044  F026         	movff	_timer1ReloadVal,TMR1_WriteTimer@timerVal	;volatile
  4128   0012B4  C045  F027         	movff	_timer1ReloadVal+1,TMR1_WriteTimer@timerVal+1	;volatile
  4129   0012B8  ECEF  F008         	call	_TMR1_WriteTimer	;wreg free
  4130   0012BC  0012               	return		;funcret
  4131   0012BE                     __end_of_TMR1_Reload:
  4132                           	callstack 0
  4133                           
  4134 ;; *************** function _TMR1_WriteTimer *****************
  4135 ;; Defined at:
  4136 ;;		line 120 in file "mcc_generated_files/tmr1.c"
  4137 ;; Parameters:    Size  Location     Type
  4138 ;;  timerVal        2    0[COMRAM] unsigned short 
  4139 ;; Auto vars:     Size  Location     Type
  4140 ;;		None
  4141 ;; Return value:  Size  Location     Type
  4142 ;;                  1    wreg      void 
  4143 ;; Registers used:
  4144 ;;		wreg, status,2
  4145 ;; Tracked objects:
  4146 ;;		On entry : 0/0
  4147 ;;		On exit  : 0/0
  4148 ;;		Unchanged: 0/0
  4149 ;; Data sizes:     COMRAM   BANK0   BANK1   BANK2   BANK3   BANK4   BANK5   BANK6   BANK7   BANK8   BANK9  BANK10  BANK1
      +1  BANK12  BANK13  BANK14
  4150 ;;      Params:         2       0       0       0       0       0       0       0       0       0       0       0       
      +0       0       0       0
  4151 ;;      Locals:         0       0       0       0       0       0       0       0       0       0       0       0       
      +0       0       0       0
  4152 ;;      Temps:          0       0       0       0       0       0       0       0       0       0       0       0       
      +0       0       0       0
  4153 ;;      Totals:         2       0       0       0       0       0       0       0       0       0       0       0       
      +0       0       0       0
  4154 ;;Total ram usage:        2 bytes
  4155 ;; Hardware stack levels used: 1
  4156 ;; This function calls:
  4157 ;;		Nothing
  4158 ;; This function is called by:
  4159 ;;		_TMR1_Reload
  4160 ;;		_TMR1_ISR
  4161 ;; This function uses a non-reentrant model
  4162 ;;
  4163                           
  4164                           	psect	text31
  4165   0011DE                     __ptext31:
  4166                           	callstack 0
  4167   0011DE                     _TMR1_WriteTimer:
  4168                           	callstack 25
  4169   0011DE                     
  4170                           ;mcc_generated_files/tmr1.c: 120: void TMR1_WriteTimer(uint16_t timerVal);mcc_generated_
      +                          files/tmr1.c: 121: {;mcc_generated_files/tmr1.c: 122:     if (T1CONbits.nT1SYNC == 1)
  4171   0011DE  A4CD               	btfss	205,2,c	;volatile
  4172   0011E0  EFF4  F008         	goto	i2u81_41
  4173   0011E4  EFF6  F008         	goto	i2u81_40
  4174   0011E8                     i2u81_41:
  4175   0011E8  EFFE  F008         	goto	i2l2214
  4176   0011EC                     i2u81_40:
  4177   0011EC                     
  4178                           ;mcc_generated_files/tmr1.c: 123:     {;mcc_generated_files/tmr1.c: 125:         T1CONbi
      +                          ts.TMR1ON = 0;
  4179   0011EC  90CD               	bcf	205,0,c	;volatile
  4180   0011EE                     
  4181                           ;mcc_generated_files/tmr1.c: 128:         TMR1H = (uint8_t)(timerVal >> 8);
  4182   0011EE  5027               	movf	(TMR1_WriteTimer@timerVal+1)^0,w,c
  4183   0011F0  6ECF               	movwf	207,c	;volatile
  4184   0011F2                     
  4185                           ;mcc_generated_files/tmr1.c: 129:         TMR1L = (uint8_t)timerVal;
  4186   0011F2  C026  FFCE         	movff	TMR1_WriteTimer@timerVal,4046	;volatile
  4187   0011F6                     
  4188                           ;mcc_generated_files/tmr1.c: 132:         T1CONbits.TMR1ON =1;
  4189   0011F6  80CD               	bsf	205,0,c	;volatile
  4190                           
  4191                           ;mcc_generated_files/tmr1.c: 133:     }
  4192   0011F8  EF02  F009         	goto	i2l489
  4193   0011FC                     i2l2214:
  4194                           
  4195                           ;mcc_generated_files/tmr1.c: 135:     {;mcc_generated_files/tmr1.c: 137:         TMR1H =
      +                           (uint8_t)(timerVal >> 8);
  4196   0011FC  5027               	movf	(TMR1_WriteTimer@timerVal+1)^0,w,c
  4197   0011FE  6ECF               	movwf	207,c	;volatile
  4198   001200                     
  4199                           ;mcc_generated_files/tmr1.c: 138:         TMR1L = (uint8_t)timerVal;
  4200   001200  C026  FFCE         	movff	TMR1_WriteTimer@timerVal,4046	;volatile
  4201   001204                     i2l489:
  4202   001204  0012               	return		;funcret
  4203   001206                     __end_of_TMR1_WriteTimer:
  4204                           	callstack 0
  4205                           
  4206 ;; *************** function _CAN_receive *****************
  4207 ;; Defined at:
  4208 ;;		line 244 in file "mcc_generated_files/ecan.c"
  4209 ;; Parameters:    Size  Location     Type
  4210 ;;  tempCanMsg      2   19[COMRAM] PTR struct .
  4211 ;;		 -> rxMessage(14), 
  4212 ;; Auto vars:     Size  Location     Type
  4213 ;;  returnValue     1    0        unsigned char 
  4214 ;; Return value:  Size  Location     Type
  4215 ;;                  1    wreg      unsigned char 
  4216 ;; Registers used:
  4217 ;;		wreg, fsr2l, fsr2h, status,2, status,0, cstack
  4218 ;; Tracked objects:
  4219 ;;		On entry : 0/0
  4220 ;;		On exit  : 0/0
  4221 ;;		Unchanged: 0/0
  4222 ;; Data sizes:     COMRAM   BANK0   BANK1   BANK2   BANK3   BANK4   BANK5   BANK6   BANK7   BANK8   BANK9  BANK10  BANK1
      +1  BANK12  BANK13  BANK14
  4223 ;;      Params:         2       0       0       0       0       0       0       0       0       0       0       0       
      +0       0       0       0
  4224 ;;      Locals:         0       0       0       0       0       0       0       0       0       0       0       0       
      +0       0       0       0
  4225 ;;      Temps:          0       0       0       0       0       0       0       0       0       0       0       0       
      +0       0       0       0
  4226 ;;      Totals:         2       0       0       0       0       0       0       0       0       0       0       0       
      +0       0       0       0
  4227 ;;Total ram usage:        2 bytes
  4228 ;; Hardware stack levels used: 1
  4229 ;; Hardware stack levels required when called: 1
  4230 ;; This function calls:
  4231 ;;		_convertReg2ExtendedCANid
  4232 ;;		_convertReg2StandardCANid
  4233 ;; This function is called by:
  4234 ;;		_reception_TTCAN
  4235 ;; This function uses a non-reentrant model
  4236 ;;
  4237                           
  4238                           	psect	text32
  4239   000940                     __ptext32:
  4240                           	callstack 0
  4241   000940                     _CAN_receive:
  4242                           	callstack 23
  4243   000940                     
  4244                           ;mcc_generated_files/ecan.c: 249:     if (RXB0CONbits.RXFUL != 0)
  4245   000940  AE60               	btfss	96,7,c	;volatile
  4246   000942  EFA5  F004         	goto	i2u85_41
  4247   000946  EFA7  F004         	goto	i2u85_40
  4248   00094A                     i2u85_41:
  4249   00094A  EF31  F005         	goto	i2l405
  4250   00094E                     i2u85_40:
  4251   00094E                     
  4252                           ;mcc_generated_files/ecan.c: 250:     {;mcc_generated_files/ecan.c: 251:         if ((RX
      +                          B0SIDL & 0x08) == 0x08)
  4253   00094E  A662               	btfss	98,3,c	;volatile
  4254   000950  EFAC  F004         	goto	i2u86_41
  4255   000954  EFAE  F004         	goto	i2u86_40
  4256   000958                     i2u86_41:
  4257   000958  EFCD  F004         	goto	i2l2266
  4258   00095C                     i2u86_40:
  4259   00095C                     
  4260                           ;mcc_generated_files/ecan.c: 252:         {;mcc_generated_files/ecan.c: 254:            
      +                           tempCanMsg->frame.idType = (uint8_t) 2;
  4261   00095C  C039  FFD9         	movff	CAN_receive@tempCanMsg,fsr2l
  4262   000960  C03A  FFDA         	movff	CAN_receive@tempCanMsg+1,fsr2h
  4263   000964  0E02               	movlw	2
  4264   000966  6EDF               	movwf	indf2,c
  4265   000968                     
  4266                           ;mcc_generated_files/ecan.c: 255:             tempCanMsg->frame.id = convertReg2Extended
      +                          CANid(RXB0EIDH, RXB0EIDL, RXB0SIDH, RXB0SIDL);
  4267   000968  CF64 F026          	movff	3940,convertReg2ExtendedCANid@tempRXBn_EIDL	;volatile
  4268   00096C  CF61 F027          	movff	3937,convertReg2ExtendedCANid@tempRXBn_SIDH	;volatile
  4269   000970  CF62 F028          	movff	3938,convertReg2ExtendedCANid@tempRXBn_SIDL	;volatile
  4270   000974  5063               	movf	99,w,c	;volatile
  4271   000976  EC80  F006         	call	_convertReg2ExtendedCANid
  4272   00097A  EE20 F001          	lfsr	2,1
  4273   00097E  5039               	movf	CAN_receive@tempCanMsg^0,w,c
  4274   000980  26D9               	addwf	fsr2l,f,c
  4275   000982  503A               	movf	(CAN_receive@tempCanMsg+1)^0,w,c
  4276   000984  22DA               	addwfc	fsr2h,f,c
  4277   000986  C026  FFDE         	movff	?_convertReg2ExtendedCANid,postinc2
  4278   00098A  C027  FFDE         	movff	?_convertReg2ExtendedCANid+1,postinc2
  4279   00098E  C028  FFDE         	movff	?_convertReg2ExtendedCANid+2,postinc2
  4280   000992  C029  FFDE         	movff	?_convertReg2ExtendedCANid+3,postinc2
  4281                           
  4282                           ;mcc_generated_files/ecan.c: 256:         }
  4283   000996  EFE6  F004         	goto	i2l2270
  4284   00099A                     i2l2266:
  4285                           
  4286                           ;mcc_generated_files/ecan.c: 258:         {;mcc_generated_files/ecan.c: 260:            
      +                           tempCanMsg->frame.idType = (uint8_t) 1;
  4287   00099A  C039  FFD9         	movff	CAN_receive@tempCanMsg,fsr2l
  4288   00099E  C03A  FFDA         	movff	CAN_receive@tempCanMsg+1,fsr2h
  4289   0009A2  0E01               	movlw	1
  4290   0009A4  6EDF               	movwf	indf2,c
  4291   0009A6                     
  4292                           ;mcc_generated_files/ecan.c: 261:             tempCanMsg->frame.id = convertReg2Standard
      +                          CANid(RXB0SIDH, RXB0SIDL);
  4293   0009A6  CF62 F026          	movff	3938,convertReg2StandardCANid@tempRXBn_SIDL	;volatile
  4294   0009AA  5061               	movf	97,w,c	;volatile
  4295   0009AC  EC23  F008         	call	_convertReg2StandardCANid
  4296   0009B0  EE20 F001          	lfsr	2,1
  4297   0009B4  5039               	movf	CAN_receive@tempCanMsg^0,w,c
  4298   0009B6  26D9               	addwf	fsr2l,f,c
  4299   0009B8  503A               	movf	(CAN_receive@tempCanMsg+1)^0,w,c
  4300   0009BA  22DA               	addwfc	fsr2h,f,c
  4301   0009BC  C026  FFDE         	movff	?_convertReg2StandardCANid,postinc2
  4302   0009C0  C027  FFDE         	movff	?_convertReg2StandardCANid+1,postinc2
  4303   0009C4  C028  FFDE         	movff	?_convertReg2StandardCANid+2,postinc2
  4304   0009C8  C029  FFDE         	movff	?_convertReg2StandardCANid+3,postinc2
  4305   0009CC                     i2l2270:
  4306                           
  4307                           ;mcc_generated_files/ecan.c: 264:         tempCanMsg->frame.dlc = RXB0DLC;
  4308   0009CC  EE20 F005          	lfsr	2,5
  4309   0009D0  5039               	movf	CAN_receive@tempCanMsg^0,w,c
  4310   0009D2  26D9               	addwf	fsr2l,f,c
  4311   0009D4  503A               	movf	(CAN_receive@tempCanMsg+1)^0,w,c
  4312   0009D6  22DA               	addwfc	fsr2h,f,c
  4313   0009D8  CF65 FFDF          	movff	3941,indf2	;volatile
  4314   0009DC                     
  4315                           ;mcc_generated_files/ecan.c: 265:         tempCanMsg->frame.data0 = RXB0D0;
  4316   0009DC  EE20 F006          	lfsr	2,6
  4317   0009E0  5039               	movf	CAN_receive@tempCanMsg^0,w,c
  4318   0009E2  26D9               	addwf	fsr2l,f,c
  4319   0009E4  503A               	movf	(CAN_receive@tempCanMsg+1)^0,w,c
  4320   0009E6  22DA               	addwfc	fsr2h,f,c
  4321   0009E8  CF66 FFDF          	movff	3942,indf2	;volatile
  4322   0009EC                     
  4323                           ;mcc_generated_files/ecan.c: 266:         tempCanMsg->frame.data1 = RXB0D1;
  4324   0009EC  EE20 F007          	lfsr	2,7
  4325   0009F0  5039               	movf	CAN_receive@tempCanMsg^0,w,c
  4326   0009F2  26D9               	addwf	fsr2l,f,c
  4327   0009F4  503A               	movf	(CAN_receive@tempCanMsg+1)^0,w,c
  4328   0009F6  22DA               	addwfc	fsr2h,f,c
  4329   0009F8  CF67 FFDF          	movff	3943,indf2	;volatile
  4330   0009FC                     
  4331                           ;mcc_generated_files/ecan.c: 267:         tempCanMsg->frame.data2 = RXB0D2;
  4332   0009FC  EE20 F008          	lfsr	2,8
  4333   000A00  5039               	movf	CAN_receive@tempCanMsg^0,w,c
  4334   000A02  26D9               	addwf	fsr2l,f,c
  4335   000A04  503A               	movf	(CAN_receive@tempCanMsg+1)^0,w,c
  4336   000A06  22DA               	addwfc	fsr2h,f,c
  4337   000A08  CF68 FFDF          	movff	3944,indf2	;volatile
  4338   000A0C                     
  4339                           ;mcc_generated_files/ecan.c: 268:         tempCanMsg->frame.data3 = RXB0D3;
  4340   000A0C  EE20 F009          	lfsr	2,9
  4341   000A10  5039               	movf	CAN_receive@tempCanMsg^0,w,c
  4342   000A12  26D9               	addwf	fsr2l,f,c
  4343   000A14  503A               	movf	(CAN_receive@tempCanMsg+1)^0,w,c
  4344   000A16  22DA               	addwfc	fsr2h,f,c
  4345   000A18  CF69 FFDF          	movff	3945,indf2	;volatile
  4346   000A1C                     
  4347                           ;mcc_generated_files/ecan.c: 269:         tempCanMsg->frame.data4 = RXB0D4;
  4348   000A1C  EE20 F00A          	lfsr	2,10
  4349   000A20  5039               	movf	CAN_receive@tempCanMsg^0,w,c
  4350   000A22  26D9               	addwf	fsr2l,f,c
  4351   000A24  503A               	movf	(CAN_receive@tempCanMsg+1)^0,w,c
  4352   000A26  22DA               	addwfc	fsr2h,f,c
  4353   000A28  CF6A FFDF          	movff	3946,indf2	;volatile
  4354   000A2C                     
  4355                           ;mcc_generated_files/ecan.c: 270:         tempCanMsg->frame.data5 = RXB0D5;
  4356   000A2C  EE20 F00B          	lfsr	2,11
  4357   000A30  5039               	movf	CAN_receive@tempCanMsg^0,w,c
  4358   000A32  26D9               	addwf	fsr2l,f,c
  4359   000A34  503A               	movf	(CAN_receive@tempCanMsg+1)^0,w,c
  4360   000A36  22DA               	addwfc	fsr2h,f,c
  4361   000A38  CF6B FFDF          	movff	3947,indf2	;volatile
  4362   000A3C                     
  4363                           ;mcc_generated_files/ecan.c: 271:         tempCanMsg->frame.data6 = RXB0D6;
  4364   000A3C  EE20 F00C          	lfsr	2,12
  4365   000A40  5039               	movf	CAN_receive@tempCanMsg^0,w,c
  4366   000A42  26D9               	addwf	fsr2l,f,c
  4367   000A44  503A               	movf	(CAN_receive@tempCanMsg+1)^0,w,c
  4368   000A46  22DA               	addwfc	fsr2h,f,c
  4369   000A48  CF6C FFDF          	movff	3948,indf2	;volatile
  4370   000A4C                     
  4371                           ;mcc_generated_files/ecan.c: 272:         tempCanMsg->frame.data7 = RXB0D7;
  4372   000A4C  EE20 F00D          	lfsr	2,13
  4373   000A50  5039               	movf	CAN_receive@tempCanMsg^0,w,c
  4374   000A52  26D9               	addwf	fsr2l,f,c
  4375   000A54  503A               	movf	(CAN_receive@tempCanMsg+1)^0,w,c
  4376   000A56  22DA               	addwfc	fsr2h,f,c
  4377   000A58  CF6D FFDF          	movff	3949,indf2	;volatile
  4378   000A5C                     
  4379                           ;mcc_generated_files/ecan.c: 273:         RXB0CONbits.RXFUL = 0;
  4380   000A5C  9E60               	bcf	96,7,c	;volatile
  4381   000A5E                     i2l2290:
  4382                           
  4383                           ;mcc_generated_files/ecan.c: 275:     }
  4384   000A5E  EFC4  F005         	goto	i2l412
  4385   000A62                     i2l405:
  4386   000A62  010F               	movlb	15	; () banked
  4387   000A64  AF30               	btfss	48,7,b	;volatile
  4388   000A66  EF37  F005         	goto	i2u87_41
  4389   000A6A  EF39  F005         	goto	i2u87_40
  4390   000A6E                     i2u87_41:
  4391   000A6E  EFC4  F005         	goto	i2l412
  4392   000A72                     i2u87_40:
  4393   000A72                     
  4394                           ; BSR set to: 15
  4395                           ;mcc_generated_files/ecan.c: 277:     {;mcc_generated_files/ecan.c: 278:         if ((RX
      +                          B1SIDL & 0x08) == 0x08)
  4396   000A72  A732               	btfss	50,3,b	;volatile
  4397   000A74  EF3E  F005         	goto	i2u88_41
  4398   000A78  EF40  F005         	goto	i2u88_40
  4399   000A7C                     i2u88_41:
  4400   000A7C  EF5F  F005         	goto	i2l2298
  4401   000A80                     i2u88_40:
  4402   000A80                     
  4403                           ; BSR set to: 15
  4404                           ;mcc_generated_files/ecan.c: 279:         {;mcc_generated_files/ecan.c: 281:            
      +                           tempCanMsg->frame.idType = (uint8_t) 2;
  4405   000A80  C039  FFD9         	movff	CAN_receive@tempCanMsg,fsr2l
  4406   000A84  C03A  FFDA         	movff	CAN_receive@tempCanMsg+1,fsr2h
  4407   000A88  0E02               	movlw	2
  4408   000A8A  6EDF               	movwf	indf2,c
  4409   000A8C                     
  4410                           ; BSR set to: 15
  4411                           ;mcc_generated_files/ecan.c: 282:             tempCanMsg->frame.id = convertReg2Extended
      +                          CANid(RXB1EIDH, RXB1EIDL, RXB1SIDH, RXB1SIDL);
  4412   000A8C  CF34 F026          	movff	3892,convertReg2ExtendedCANid@tempRXBn_EIDL	;volatile
  4413   000A90  CF31 F027          	movff	3889,convertReg2ExtendedCANid@tempRXBn_SIDH	;volatile
  4414   000A94  CF32 F028          	movff	3890,convertReg2ExtendedCANid@tempRXBn_SIDL	;volatile
  4415   000A98  5133               	movf	51,w,b	;volatile
  4416   000A9A  EC80  F006         	call	_convertReg2ExtendedCANid
  4417   000A9E  EE20 F001          	lfsr	2,1
  4418   000AA2  5039               	movf	CAN_receive@tempCanMsg^0,w,c
  4419   000AA4  26D9               	addwf	fsr2l,f,c
  4420   000AA6  503A               	movf	(CAN_receive@tempCanMsg+1)^0,w,c
  4421   000AA8  22DA               	addwfc	fsr2h,f,c
  4422   000AAA  C026  FFDE         	movff	?_convertReg2ExtendedCANid,postinc2
  4423   000AAE  C027  FFDE         	movff	?_convertReg2ExtendedCANid+1,postinc2
  4424   000AB2  C028  FFDE         	movff	?_convertReg2ExtendedCANid+2,postinc2
  4425   000AB6  C029  FFDE         	movff	?_convertReg2ExtendedCANid+3,postinc2
  4426                           
  4427                           ;mcc_generated_files/ecan.c: 283:         }
  4428   000ABA  EF78  F005         	goto	i2l2302
  4429   000ABE                     i2l2298:
  4430                           
  4431                           ; BSR set to: 15
  4432                           ;mcc_generated_files/ecan.c: 285:         {;mcc_generated_files/ecan.c: 287:            
      +                           tempCanMsg->frame.idType = (uint8_t) 1;
  4433   000ABE  C039  FFD9         	movff	CAN_receive@tempCanMsg,fsr2l
  4434   000AC2  C03A  FFDA         	movff	CAN_receive@tempCanMsg+1,fsr2h
  4435   000AC6  0E01               	movlw	1
  4436   000AC8  6EDF               	movwf	indf2,c
  4437   000ACA                     
  4438                           ; BSR set to: 15
  4439                           ;mcc_generated_files/ecan.c: 288:             tempCanMsg->frame.id = convertReg2Standard
      +                          CANid(RXB1SIDH, RXB1SIDL);
  4440   000ACA  CF32 F026          	movff	3890,convertReg2StandardCANid@tempRXBn_SIDL	;volatile
  4441   000ACE  5131               	movf	49,w,b	;volatile
  4442   000AD0  EC23  F008         	call	_convertReg2StandardCANid
  4443   000AD4  EE20 F001          	lfsr	2,1
  4444   000AD8  5039               	movf	CAN_receive@tempCanMsg^0,w,c
  4445   000ADA  26D9               	addwf	fsr2l,f,c
  4446   000ADC  503A               	movf	(CAN_receive@tempCanMsg+1)^0,w,c
  4447   000ADE  22DA               	addwfc	fsr2h,f,c
  4448   000AE0  C026  FFDE         	movff	?_convertReg2StandardCANid,postinc2
  4449   000AE4  C027  FFDE         	movff	?_convertReg2StandardCANid+1,postinc2
  4450   000AE8  C028  FFDE         	movff	?_convertReg2StandardCANid+2,postinc2
  4451   000AEC  C029  FFDE         	movff	?_convertReg2StandardCANid+3,postinc2
  4452   000AF0                     i2l2302:
  4453                           
  4454                           ;mcc_generated_files/ecan.c: 291:         tempCanMsg->frame.dlc = RXB1DLC;
  4455   000AF0  EE20 F005          	lfsr	2,5
  4456   000AF4  5039               	movf	CAN_receive@tempCanMsg^0,w,c
  4457   000AF6  26D9               	addwf	fsr2l,f,c
  4458   000AF8  503A               	movf	(CAN_receive@tempCanMsg+1)^0,w,c
  4459   000AFA  22DA               	addwfc	fsr2h,f,c
  4460   000AFC  CF35 FFDF          	movff	3893,indf2	;volatile
  4461   000B00                     
  4462                           ;mcc_generated_files/ecan.c: 292:         tempCanMsg->frame.data0 = RXB1D0;
  4463   000B00  EE20 F006          	lfsr	2,6
  4464   000B04  5039               	movf	CAN_receive@tempCanMsg^0,w,c
  4465   000B06  26D9               	addwf	fsr2l,f,c
  4466   000B08  503A               	movf	(CAN_receive@tempCanMsg+1)^0,w,c
  4467   000B0A  22DA               	addwfc	fsr2h,f,c
  4468   000B0C  CF36 FFDF          	movff	3894,indf2	;volatile
  4469   000B10                     
  4470                           ;mcc_generated_files/ecan.c: 293:         tempCanMsg->frame.data1 = RXB1D1;
  4471   000B10  EE20 F007          	lfsr	2,7
  4472   000B14  5039               	movf	CAN_receive@tempCanMsg^0,w,c
  4473   000B16  26D9               	addwf	fsr2l,f,c
  4474   000B18  503A               	movf	(CAN_receive@tempCanMsg+1)^0,w,c
  4475   000B1A  22DA               	addwfc	fsr2h,f,c
  4476   000B1C  CF37 FFDF          	movff	3895,indf2	;volatile
  4477   000B20                     
  4478                           ;mcc_generated_files/ecan.c: 294:         tempCanMsg->frame.data2 = RXB1D2;
  4479   000B20  EE20 F008          	lfsr	2,8
  4480   000B24  5039               	movf	CAN_receive@tempCanMsg^0,w,c
  4481   000B26  26D9               	addwf	fsr2l,f,c
  4482   000B28  503A               	movf	(CAN_receive@tempCanMsg+1)^0,w,c
  4483   000B2A  22DA               	addwfc	fsr2h,f,c
  4484   000B2C  CF38 FFDF          	movff	3896,indf2	;volatile
  4485   000B30                     
  4486                           ;mcc_generated_files/ecan.c: 295:         tempCanMsg->frame.data3 = RXB1D3;
  4487   000B30  EE20 F009          	lfsr	2,9
  4488   000B34  5039               	movf	CAN_receive@tempCanMsg^0,w,c
  4489   000B36  26D9               	addwf	fsr2l,f,c
  4490   000B38  503A               	movf	(CAN_receive@tempCanMsg+1)^0,w,c
  4491   000B3A  22DA               	addwfc	fsr2h,f,c
  4492   000B3C  CF39 FFDF          	movff	3897,indf2	;volatile
  4493   000B40                     
  4494                           ;mcc_generated_files/ecan.c: 296:         tempCanMsg->frame.data4 = RXB1D4;
  4495   000B40  EE20 F00A          	lfsr	2,10
  4496   000B44  5039               	movf	CAN_receive@tempCanMsg^0,w,c
  4497   000B46  26D9               	addwf	fsr2l,f,c
  4498   000B48  503A               	movf	(CAN_receive@tempCanMsg+1)^0,w,c
  4499   000B4A  22DA               	addwfc	fsr2h,f,c
  4500   000B4C  CF3A FFDF          	movff	3898,indf2	;volatile
  4501   000B50                     
  4502                           ;mcc_generated_files/ecan.c: 297:         tempCanMsg->frame.data5 = RXB1D5;
  4503   000B50  EE20 F00B          	lfsr	2,11
  4504   000B54  5039               	movf	CAN_receive@tempCanMsg^0,w,c
  4505   000B56  26D9               	addwf	fsr2l,f,c
  4506   000B58  503A               	movf	(CAN_receive@tempCanMsg+1)^0,w,c
  4507   000B5A  22DA               	addwfc	fsr2h,f,c
  4508   000B5C  CF3B FFDF          	movff	3899,indf2	;volatile
  4509   000B60                     
  4510                           ;mcc_generated_files/ecan.c: 298:         tempCanMsg->frame.data6 = RXB1D6;
  4511   000B60  EE20 F00C          	lfsr	2,12
  4512   000B64  5039               	movf	CAN_receive@tempCanMsg^0,w,c
  4513   000B66  26D9               	addwf	fsr2l,f,c
  4514   000B68  503A               	movf	(CAN_receive@tempCanMsg+1)^0,w,c
  4515   000B6A  22DA               	addwfc	fsr2h,f,c
  4516   000B6C  CF3C FFDF          	movff	3900,indf2	;volatile
  4517   000B70                     
  4518                           ;mcc_generated_files/ecan.c: 299:         tempCanMsg->frame.data7 = RXB1D7;
  4519   000B70  EE20 F00D          	lfsr	2,13
  4520   000B74  5039               	movf	CAN_receive@tempCanMsg^0,w,c
  4521   000B76  26D9               	addwf	fsr2l,f,c
  4522   000B78  503A               	movf	(CAN_receive@tempCanMsg+1)^0,w,c
  4523   000B7A  22DA               	addwfc	fsr2h,f,c
  4524   000B7C  CF3D FFDF          	movff	3901,indf2	;volatile
  4525   000B80                     
  4526                           ;mcc_generated_files/ecan.c: 300:         RXB1CONbits.RXFUL = 0;
  4527   000B80  010F               	movlb	15	; () banked
  4528   000B82  9F30               	bcf	48,7,b	;volatile
  4529   000B84  EF2F  F005         	goto	i2l2290
  4530   000B88                     i2l412:
  4531   000B88  0012               	return		;funcret
  4532   000B8A                     __end_of_CAN_receive:
  4533                           	callstack 0
  4534                           
  4535 ;; *************** function _convertReg2StandardCANid *****************
  4536 ;; Defined at:
  4537 ;;		line 390 in file "mcc_generated_files/ecan.c"
  4538 ;; Parameters:    Size  Location     Type
  4539 ;;  tempRXBn_SID    1    wreg     unsigned char 
  4540 ;;  tempRXBn_SID    1    0[COMRAM] unsigned char 
  4541 ;; Auto vars:     Size  Location     Type
  4542 ;;  tempRXBn_SID    1    6[COMRAM] unsigned char 
  4543 ;;  ConvertedID     4   11[COMRAM] unsigned long 
  4544 ;;  returnValue     4    7[COMRAM] unsigned long 
  4545 ;; Return value:  Size  Location     Type
  4546 ;;                  4    0[COMRAM] unsigned long 
  4547 ;; Registers used:
  4548 ;;		wreg, status,2, status,0
  4549 ;; Tracked objects:
  4550 ;;		On entry : 0/0
  4551 ;;		On exit  : 0/0
  4552 ;;		Unchanged: 0/0
  4553 ;; Data sizes:     COMRAM   BANK0   BANK1   BANK2   BANK3   BANK4   BANK5   BANK6   BANK7   BANK8   BANK9  BANK10  BANK1
      +1  BANK12  BANK13  BANK14
  4554 ;;      Params:         4       0       0       0       0       0       0       0       0       0       0       0       
      +0       0       0       0
  4555 ;;      Locals:         9       0       0       0       0       0       0       0       0       0       0       0       
      +0       0       0       0
  4556 ;;      Temps:          2       0       0       0       0       0       0       0       0       0       0       0       
      +0       0       0       0
  4557 ;;      Totals:        15       0       0       0       0       0       0       0       0       0       0       0       
      +0       0       0       0
  4558 ;;Total ram usage:       15 bytes
  4559 ;; Hardware stack levels used: 1
  4560 ;; This function calls:
  4561 ;;		Nothing
  4562 ;; This function is called by:
  4563 ;;		_CAN_receive
  4564 ;; This function uses a non-reentrant model
  4565 ;;
  4566                           
  4567                           	psect	text33
  4568   001046                     __ptext33:
  4569                           	callstack 0
  4570   001046                     _convertReg2StandardCANid:
  4571                           	callstack 23
  4572                           
  4573                           ;incstack = 0
  4574                           ;convertReg2StandardCANid@tempRXBn_SIDH stored from wreg
  4575   001046  6E2C               	movwf	convertReg2StandardCANid@tempRXBn_SIDH^0,c
  4576   001048                     
  4577                           ;mcc_generated_files/ecan.c: 393:     uint32_t ConvertedID;;mcc_generated_files/ecan.c: 
      +                          397:     ConvertedID = (uint32_t)(tempRXBn_SIDH << 3);
  4578   001048  502C               	movf	convertReg2StandardCANid@tempRXBn_SIDH^0,w,c
  4579   00104A  6E2A               	movwf	??_convertReg2StandardCANid^0,c
  4580   00104C  6A2B               	clrf	(??_convertReg2StandardCANid+1)^0,c
  4581   00104E  90D8               	bcf	status,0,c
  4582   001050  362A               	rlcf	??_convertReg2StandardCANid^0,f,c
  4583   001052  362B               	rlcf	(??_convertReg2StandardCANid+1)^0,f,c
  4584   001054  90D8               	bcf	status,0,c
  4585   001056  362A               	rlcf	??_convertReg2StandardCANid^0,f,c
  4586   001058  362B               	rlcf	(??_convertReg2StandardCANid+1)^0,f,c
  4587   00105A  90D8               	bcf	status,0,c
  4588   00105C  362A               	rlcf	??_convertReg2StandardCANid^0,f,c
  4589   00105E  362B               	rlcf	(??_convertReg2StandardCANid+1)^0,f,c
  4590   001060  C02A  F031         	movff	??_convertReg2StandardCANid,convertReg2StandardCANid@ConvertedID
  4591   001064  C02B  F032         	movff	??_convertReg2StandardCANid+1,convertReg2StandardCANid@ConvertedID+1
  4592   001068  0E00               	movlw	0
  4593   00106A  BE32               	btfsc	(convertReg2StandardCANid@ConvertedID+1)^0,7,c
  4594   00106C  0EFF               	movlw	-1
  4595   00106E  6E33               	movwf	(convertReg2StandardCANid@ConvertedID+2)^0,c
  4596   001070  6E34               	movwf	(convertReg2StandardCANid@ConvertedID+3)^0,c
  4597   001072                     
  4598                           ;mcc_generated_files/ecan.c: 398:     ConvertedID = ConvertedID + (uint32_t)(tempRXBn_SI
      +                          DL >> 5);
  4599   001072  C026  F02A         	movff	convertReg2StandardCANid@tempRXBn_SIDL,??_convertReg2StandardCANid
  4600   001076  0E05               	movlw	5
  4601   001078  6E2B               	movwf	(??_convertReg2StandardCANid+1)^0,c
  4602   00107A                     i2u80_45:
  4603   00107A  90D8               	bcf	status,0,c
  4604   00107C  322A               	rrcf	??_convertReg2StandardCANid^0,f,c
  4605   00107E  2E2B               	decfsz	(??_convertReg2StandardCANid+1)^0,f,c
  4606   001080  EF3D  F008         	goto	i2u80_45
  4607   001084  502A               	movf	??_convertReg2StandardCANid^0,w,c
  4608   001086  2431               	addwf	convertReg2StandardCANid@ConvertedID^0,w,c
  4609   001088  6E31               	movwf	convertReg2StandardCANid@ConvertedID^0,c
  4610   00108A  0E00               	movlw	0
  4611   00108C  2032               	addwfc	(convertReg2StandardCANid@ConvertedID+1)^0,w,c
  4612   00108E  6E32               	movwf	(convertReg2StandardCANid@ConvertedID+1)^0,c
  4613   001090  0E00               	movlw	0
  4614   001092  2033               	addwfc	(convertReg2StandardCANid@ConvertedID+2)^0,w,c
  4615   001094  6E33               	movwf	(convertReg2StandardCANid@ConvertedID+2)^0,c
  4616   001096  0E00               	movlw	0
  4617   001098  2034               	addwfc	(convertReg2StandardCANid@ConvertedID+3)^0,w,c
  4618   00109A  6E34               	movwf	(convertReg2StandardCANid@ConvertedID+3)^0,c
  4619   00109C                     
  4620                           ;mcc_generated_files/ecan.c: 399:     returnValue = ConvertedID;
  4621   00109C  C031  F02D         	movff	convertReg2StandardCANid@ConvertedID,convertReg2StandardCANid@returnValue
  4622   0010A0  C032  F02E         	movff	convertReg2StandardCANid@ConvertedID+1,convertReg2StandardCANid@returnValue+1
  4623   0010A4  C033  F02F         	movff	convertReg2StandardCANid@ConvertedID+2,convertReg2StandardCANid@returnValue+2
  4624   0010A8  C034  F030         	movff	convertReg2StandardCANid@ConvertedID+3,convertReg2StandardCANid@returnValue+3
  4625   0010AC                     
  4626                           ;mcc_generated_files/ecan.c: 400:     return (returnValue);
  4627   0010AC  C02D  F026         	movff	convertReg2StandardCANid@returnValue,?_convertReg2StandardCANid
  4628   0010B0  C02E  F027         	movff	convertReg2StandardCANid@returnValue+1,?_convertReg2StandardCANid+1
  4629   0010B4  C02F  F028         	movff	convertReg2StandardCANid@returnValue+2,?_convertReg2StandardCANid+2
  4630   0010B8  C030  F029         	movff	convertReg2StandardCANid@returnValue+3,?_convertReg2StandardCANid+3
  4631   0010BC  0012               	return		;funcret
  4632   0010BE                     __end_of_convertReg2StandardCANid:
  4633                           	callstack 0
  4634                           
  4635 ;; *************** function _convertReg2ExtendedCANid *****************
  4636 ;; Defined at:
  4637 ;;		line 369 in file "mcc_generated_files/ecan.c"
  4638 ;; Parameters:    Size  Location     Type
  4639 ;;  tempRXBn_EID    1    wreg     unsigned char 
  4640 ;;  tempRXBn_EID    1    0[COMRAM] unsigned char 
  4641 ;;  tempRXBn_SID    1    1[COMRAM] unsigned char 
  4642 ;;  tempRXBn_SID    1    2[COMRAM] unsigned char 
  4643 ;; Auto vars:     Size  Location     Type
  4644 ;;  tempRXBn_EID    1    8[COMRAM] unsigned char 
  4645 ;;  ConvertedID     4   15[COMRAM] unsigned long 
  4646 ;;  returnValue     4    9[COMRAM] unsigned long 
  4647 ;;  CAN_standard    1   14[COMRAM] unsigned char 
  4648 ;;  CAN_standard    1   13[COMRAM] unsigned char 
  4649 ;; Return value:  Size  Location     Type
  4650 ;;                  4    0[COMRAM] unsigned long 
  4651 ;; Registers used:
  4652 ;;		wreg, status,2, status,0
  4653 ;; Tracked objects:
  4654 ;;		On entry : 0/0
  4655 ;;		On exit  : 0/0
  4656 ;;		Unchanged: 0/0
  4657 ;; Data sizes:     COMRAM   BANK0   BANK1   BANK2   BANK3   BANK4   BANK5   BANK6   BANK7   BANK8   BANK9  BANK10  BANK1
      +1  BANK12  BANK13  BANK14
  4658 ;;      Params:         4       0       0       0       0       0       0       0       0       0       0       0       
      +0       0       0       0
  4659 ;;      Locals:        11       0       0       0       0       0       0       0       0       0       0       0       
      +0       0       0       0
  4660 ;;      Temps:          4       0       0       0       0       0       0       0       0       0       0       0       
      +0       0       0       0
  4661 ;;      Totals:        19       0       0       0       0       0       0       0       0       0       0       0       
      +0       0       0       0
  4662 ;;Total ram usage:       19 bytes
  4663 ;; Hardware stack levels used: 1
  4664 ;; This function calls:
  4665 ;;		Nothing
  4666 ;; This function is called by:
  4667 ;;		_CAN_receive
  4668 ;; This function uses a non-reentrant model
  4669 ;;
  4670                           
  4671                           	psect	text34
  4672   000D00                     __ptext34:
  4673                           	callstack 0
  4674   000D00                     _convertReg2ExtendedCANid:
  4675                           	callstack 23
  4676                           
  4677                           ;incstack = 0
  4678                           ;convertReg2ExtendedCANid@tempRXBn_EIDH stored from wreg
  4679   000D00  6E2E               	movwf	convertReg2ExtendedCANid@tempRXBn_EIDH^0,c
  4680   000D02                     
  4681                           ;mcc_generated_files/ecan.c: 372:     uint32_t ConvertedID = 0;
  4682   000D02  0E00               	movlw	0
  4683   000D04  6E35               	movwf	convertReg2ExtendedCANid@ConvertedID^0,c
  4684   000D06  0E00               	movlw	0
  4685   000D08  6E36               	movwf	(convertReg2ExtendedCANid@ConvertedID+1)^0,c
  4686   000D0A  0E00               	movlw	0
  4687   000D0C  6E37               	movwf	(convertReg2ExtendedCANid@ConvertedID+2)^0,c
  4688   000D0E  0E00               	movlw	0
  4689   000D10  6E38               	movwf	(convertReg2ExtendedCANid@ConvertedID+3)^0,c
  4690   000D12                     
  4691                           ;mcc_generated_files/ecan.c: 373:     uint8_t CAN_standardLo_ID_lo2bits;;mcc_generated_f
      +                          iles/ecan.c: 374:     uint8_t CAN_standardLo_ID_hi3bits;;mcc_generated_files/ecan.c: 376
      +                          :     CAN_standardLo_ID_lo2bits = (uint8_t)(tempRXBn_SIDL & 0x03);
  4692   000D12  5028               	movf	convertReg2ExtendedCANid@tempRXBn_SIDL^0,w,c
  4693   000D14  0B03               	andlw	3
  4694   000D16  6E33               	movwf	convertReg2ExtendedCANid@CAN_standardLo_ID_lo2bits^0,c
  4695   000D18                     
  4696                           ;mcc_generated_files/ecan.c: 377:     CAN_standardLo_ID_hi3bits = (uint8_t)(tempRXBn_SID
      +                          L >> 5);
  4697   000D18  3828               	swapf	convertReg2ExtendedCANid@tempRXBn_SIDL^0,w,c
  4698   000D1A  42E8               	rrncf	wreg,f,c
  4699   000D1C  0B07               	andlw	7
  4700   000D1E  6E34               	movwf	convertReg2ExtendedCANid@CAN_standardLo_ID_hi3bits^0,c
  4701   000D20                     
  4702                           ;mcc_generated_files/ecan.c: 378:     ConvertedID = (uint32_t)(tempRXBn_SIDH << 3);
  4703   000D20  5027               	movf	convertReg2ExtendedCANid@tempRXBn_SIDH^0,w,c
  4704   000D22  6E2A               	movwf	??_convertReg2ExtendedCANid^0,c
  4705   000D24  6A2B               	clrf	(??_convertReg2ExtendedCANid+1)^0,c
  4706   000D26  90D8               	bcf	status,0,c
  4707   000D28  362A               	rlcf	??_convertReg2ExtendedCANid^0,f,c
  4708   000D2A  362B               	rlcf	(??_convertReg2ExtendedCANid+1)^0,f,c
  4709   000D2C  90D8               	bcf	status,0,c
  4710   000D2E  362A               	rlcf	??_convertReg2ExtendedCANid^0,f,c
  4711   000D30  362B               	rlcf	(??_convertReg2ExtendedCANid+1)^0,f,c
  4712   000D32  90D8               	bcf	status,0,c
  4713   000D34  362A               	rlcf	??_convertReg2ExtendedCANid^0,f,c
  4714   000D36  362B               	rlcf	(??_convertReg2ExtendedCANid+1)^0,f,c
  4715   000D38  C02A  F035         	movff	??_convertReg2ExtendedCANid,convertReg2ExtendedCANid@ConvertedID
  4716   000D3C  C02B  F036         	movff	??_convertReg2ExtendedCANid+1,convertReg2ExtendedCANid@ConvertedID+1
  4717   000D40  0E00               	movlw	0
  4718   000D42  BE36               	btfsc	(convertReg2ExtendedCANid@ConvertedID+1)^0,7,c
  4719   000D44  0EFF               	movlw	-1
  4720   000D46  6E37               	movwf	(convertReg2ExtendedCANid@ConvertedID+2)^0,c
  4721   000D48  6E38               	movwf	(convertReg2ExtendedCANid@ConvertedID+3)^0,c
  4722   000D4A                     
  4723                           ;mcc_generated_files/ecan.c: 379:     ConvertedID = ConvertedID + CAN_standardLo_ID_hi3b
      +                          its;
  4724   000D4A  5034               	movf	convertReg2ExtendedCANid@CAN_standardLo_ID_hi3bits^0,w,c
  4725   000D4C  2435               	addwf	convertReg2ExtendedCANid@ConvertedID^0,w,c
  4726   000D4E  6E35               	movwf	convertReg2ExtendedCANid@ConvertedID^0,c
  4727   000D50  0E00               	movlw	0
  4728   000D52  2036               	addwfc	(convertReg2ExtendedCANid@ConvertedID+1)^0,w,c
  4729   000D54  6E36               	movwf	(convertReg2ExtendedCANid@ConvertedID+1)^0,c
  4730   000D56  0E00               	movlw	0
  4731   000D58  2037               	addwfc	(convertReg2ExtendedCANid@ConvertedID+2)^0,w,c
  4732   000D5A  6E37               	movwf	(convertReg2ExtendedCANid@ConvertedID+2)^0,c
  4733   000D5C  0E00               	movlw	0
  4734   000D5E  2038               	addwfc	(convertReg2ExtendedCANid@ConvertedID+3)^0,w,c
  4735   000D60  6E38               	movwf	(convertReg2ExtendedCANid@ConvertedID+3)^0,c
  4736   000D62                     
  4737                           ;mcc_generated_files/ecan.c: 380:     ConvertedID = (ConvertedID << 2);
  4738   000D62  C035  F02A         	movff	convertReg2ExtendedCANid@ConvertedID,??_convertReg2ExtendedCANid
  4739   000D66  C036  F02B         	movff	convertReg2ExtendedCANid@ConvertedID+1,??_convertReg2ExtendedCANid+1
  4740   000D6A  C037  F02C         	movff	convertReg2ExtendedCANid@ConvertedID+2,??_convertReg2ExtendedCANid+2
  4741   000D6E  C038  F02D         	movff	convertReg2ExtendedCANid@ConvertedID+3,??_convertReg2ExtendedCANid+3
  4742   000D72  0E02               	movlw	2
  4743   000D74                     i2u79_45:
  4744   000D74  90D8               	bcf	status,0,c
  4745   000D76  362A               	rlcf	??_convertReg2ExtendedCANid^0,f,c
  4746   000D78  362B               	rlcf	(??_convertReg2ExtendedCANid+1)^0,f,c
  4747   000D7A  362C               	rlcf	(??_convertReg2ExtendedCANid+2)^0,f,c
  4748   000D7C  362D               	rlcf	(??_convertReg2ExtendedCANid+3)^0,f,c
  4749   000D7E  2EE8               	decfsz	wreg,f,c
  4750   000D80  EFBA  F006         	goto	i2u79_45
  4751   000D84  C02A  F035         	movff	??_convertReg2ExtendedCANid,convertReg2ExtendedCANid@ConvertedID
  4752   000D88  C02B  F036         	movff	??_convertReg2ExtendedCANid+1,convertReg2ExtendedCANid@ConvertedID+1
  4753   000D8C  C02C  F037         	movff	??_convertReg2ExtendedCANid+2,convertReg2ExtendedCANid@ConvertedID+2
  4754   000D90  C02D  F038         	movff	??_convertReg2ExtendedCANid+3,convertReg2ExtendedCANid@ConvertedID+3
  4755   000D94                     
  4756                           ;mcc_generated_files/ecan.c: 381:     ConvertedID = ConvertedID + CAN_standardLo_ID_lo2b
      +                          its;
  4757   000D94  5033               	movf	convertReg2ExtendedCANid@CAN_standardLo_ID_lo2bits^0,w,c
  4758   000D96  2435               	addwf	convertReg2ExtendedCANid@ConvertedID^0,w,c
  4759   000D98  6E35               	movwf	convertReg2ExtendedCANid@ConvertedID^0,c
  4760   000D9A  0E00               	movlw	0
  4761   000D9C  2036               	addwfc	(convertReg2ExtendedCANid@ConvertedID+1)^0,w,c
  4762   000D9E  6E36               	movwf	(convertReg2ExtendedCANid@ConvertedID+1)^0,c
  4763   000DA0  0E00               	movlw	0
  4764   000DA2  2037               	addwfc	(convertReg2ExtendedCANid@ConvertedID+2)^0,w,c
  4765   000DA4  6E37               	movwf	(convertReg2ExtendedCANid@ConvertedID+2)^0,c
  4766   000DA6  0E00               	movlw	0
  4767   000DA8  2038               	addwfc	(convertReg2ExtendedCANid@ConvertedID+3)^0,w,c
  4768   000DAA  6E38               	movwf	(convertReg2ExtendedCANid@ConvertedID+3)^0,c
  4769                           
  4770                           ;mcc_generated_files/ecan.c: 382:     ConvertedID = (ConvertedID << 8);
  4771   000DAC  C035  F02B         	movff	convertReg2ExtendedCANid@ConvertedID,??_convertReg2ExtendedCANid+1
  4772   000DB0  C036  F02C         	movff	convertReg2ExtendedCANid@ConvertedID+1,??_convertReg2ExtendedCANid+2
  4773   000DB4  C037  F02D         	movff	convertReg2ExtendedCANid@ConvertedID+2,??_convertReg2ExtendedCANid+3
  4774   000DB8  6A2A               	clrf	??_convertReg2ExtendedCANid^0,c
  4775   000DBA  C02A  F035         	movff	??_convertReg2ExtendedCANid,convertReg2ExtendedCANid@ConvertedID
  4776   000DBE  C02B  F036         	movff	??_convertReg2ExtendedCANid+1,convertReg2ExtendedCANid@ConvertedID+1
  4777   000DC2  C02C  F037         	movff	??_convertReg2ExtendedCANid+2,convertReg2ExtendedCANid@ConvertedID+2
  4778   000DC6  C02D  F038         	movff	??_convertReg2ExtendedCANid+3,convertReg2ExtendedCANid@ConvertedID+3
  4779   000DCA                     
  4780                           ;mcc_generated_files/ecan.c: 383:     ConvertedID = ConvertedID + tempRXBn_EIDH;
  4781   000DCA  502E               	movf	convertReg2ExtendedCANid@tempRXBn_EIDH^0,w,c
  4782   000DCC  2435               	addwf	convertReg2ExtendedCANid@ConvertedID^0,w,c
  4783   000DCE  6E35               	movwf	convertReg2ExtendedCANid@ConvertedID^0,c
  4784   000DD0  0E00               	movlw	0
  4785   000DD2  2036               	addwfc	(convertReg2ExtendedCANid@ConvertedID+1)^0,w,c
  4786   000DD4  6E36               	movwf	(convertReg2ExtendedCANid@ConvertedID+1)^0,c
  4787   000DD6  0E00               	movlw	0
  4788   000DD8  2037               	addwfc	(convertReg2ExtendedCANid@ConvertedID+2)^0,w,c
  4789   000DDA  6E37               	movwf	(convertReg2ExtendedCANid@ConvertedID+2)^0,c
  4790   000DDC  0E00               	movlw	0
  4791   000DDE  2038               	addwfc	(convertReg2ExtendedCANid@ConvertedID+3)^0,w,c
  4792   000DE0  6E38               	movwf	(convertReg2ExtendedCANid@ConvertedID+3)^0,c
  4793   000DE2                     
  4794                           ;mcc_generated_files/ecan.c: 384:     ConvertedID = (ConvertedID << 8);
  4795   000DE2  C035  F02B         	movff	convertReg2ExtendedCANid@ConvertedID,??_convertReg2ExtendedCANid+1
  4796   000DE6  C036  F02C         	movff	convertReg2ExtendedCANid@ConvertedID+1,??_convertReg2ExtendedCANid+2
  4797   000DEA  C037  F02D         	movff	convertReg2ExtendedCANid@ConvertedID+2,??_convertReg2ExtendedCANid+3
  4798   000DEE  6A2A               	clrf	??_convertReg2ExtendedCANid^0,c
  4799   000DF0  C02A  F035         	movff	??_convertReg2ExtendedCANid,convertReg2ExtendedCANid@ConvertedID
  4800   000DF4  C02B  F036         	movff	??_convertReg2ExtendedCANid+1,convertReg2ExtendedCANid@ConvertedID+1
  4801   000DF8  C02C  F037         	movff	??_convertReg2ExtendedCANid+2,convertReg2ExtendedCANid@ConvertedID+2
  4802   000DFC  C02D  F038         	movff	??_convertReg2ExtendedCANid+3,convertReg2ExtendedCANid@ConvertedID+3
  4803                           
  4804                           ;mcc_generated_files/ecan.c: 385:     ConvertedID = ConvertedID + tempRXBn_EIDL;
  4805   000E00  5026               	movf	convertReg2ExtendedCANid@tempRXBn_EIDL^0,w,c
  4806   000E02  2435               	addwf	convertReg2ExtendedCANid@ConvertedID^0,w,c
  4807   000E04  6E35               	movwf	convertReg2ExtendedCANid@ConvertedID^0,c
  4808   000E06  0E00               	movlw	0
  4809   000E08  2036               	addwfc	(convertReg2ExtendedCANid@ConvertedID+1)^0,w,c
  4810   000E0A  6E36               	movwf	(convertReg2ExtendedCANid@ConvertedID+1)^0,c
  4811   000E0C  0E00               	movlw	0
  4812   000E0E  2037               	addwfc	(convertReg2ExtendedCANid@ConvertedID+2)^0,w,c
  4813   000E10  6E37               	movwf	(convertReg2ExtendedCANid@ConvertedID+2)^0,c
  4814   000E12  0E00               	movlw	0
  4815   000E14  2038               	addwfc	(convertReg2ExtendedCANid@ConvertedID+3)^0,w,c
  4816   000E16  6E38               	movwf	(convertReg2ExtendedCANid@ConvertedID+3)^0,c
  4817   000E18                     
  4818                           ;mcc_generated_files/ecan.c: 386:     returnValue = ConvertedID;
  4819   000E18  C035  F02F         	movff	convertReg2ExtendedCANid@ConvertedID,convertReg2ExtendedCANid@returnValue
  4820   000E1C  C036  F030         	movff	convertReg2ExtendedCANid@ConvertedID+1,convertReg2ExtendedCANid@returnValue+1
  4821   000E20  C037  F031         	movff	convertReg2ExtendedCANid@ConvertedID+2,convertReg2ExtendedCANid@returnValue+2
  4822   000E24  C038  F032         	movff	convertReg2ExtendedCANid@ConvertedID+3,convertReg2ExtendedCANid@returnValue+3
  4823   000E28                     
  4824                           ;mcc_generated_files/ecan.c: 387:     return (returnValue);
  4825   000E28  C02F  F026         	movff	convertReg2ExtendedCANid@returnValue,?_convertReg2ExtendedCANid
  4826   000E2C  C030  F027         	movff	convertReg2ExtendedCANid@returnValue+1,?_convertReg2ExtendedCANid+1
  4827   000E30  C031  F028         	movff	convertReg2ExtendedCANid@returnValue+2,?_convertReg2ExtendedCANid+2
  4828   000E34  C032  F029         	movff	convertReg2ExtendedCANid@returnValue+3,?_convertReg2ExtendedCANid+3
  4829   000E38  0012               	return		;funcret
  4830   000E3A                     __end_of_convertReg2ExtendedCANid:
  4831                           	callstack 0
  4832   000000                     
  4833                           	psect	text35
  4834   000000                     __ptext35:
  4835                           	callstack 0
  4836   000000                     
  4837                           	psect	rparam
  4838   000000                     
  4839                           	psect	temp
  4840   000046                     btemp:
  4841                           	callstack 0
  4842   000046                     	ds	1
  4843   000000                     int$flags	set	btemp
  4844   000000                     wtemp8	set	btemp+1
  4845   000000                     ttemp5	set	btemp+1
  4846   000000                     ttemp6	set	btemp+4
  4847   000000                     ttemp7	set	btemp+8
  4848                           
  4849                           	psect	idloc
  4850                           
  4851                           ;Config register IDLOC0 @ 0x200000
  4852                           ;	unspecified, using default values
  4853   200000                     	org	2097152
  4854   200000  FF                 	db	255
  4855                           
  4856                           ;Config register IDLOC1 @ 0x200001
  4857                           ;	unspecified, using default values
  4858   200001                     	org	2097153
  4859   200001  FF                 	db	255
  4860                           
  4861                           ;Config register IDLOC2 @ 0x200002
  4862                           ;	unspecified, using default values
  4863   200002                     	org	2097154
  4864   200002  FF                 	db	255
  4865                           
  4866                           ;Config register IDLOC3 @ 0x200003
  4867                           ;	unspecified, using default values
  4868   200003                     	org	2097155
  4869   200003  FF                 	db	255
  4870                           
  4871                           ;Config register IDLOC4 @ 0x200004
  4872                           ;	unspecified, using default values
  4873   200004                     	org	2097156
  4874   200004  FF                 	db	255
  4875                           
  4876                           ;Config register IDLOC5 @ 0x200005
  4877                           ;	unspecified, using default values
  4878   200005                     	org	2097157
  4879   200005  FF                 	db	255
  4880                           
  4881                           ;Config register IDLOC6 @ 0x200006
  4882                           ;	unspecified, using default values
  4883   200006                     	org	2097158
  4884   200006  FF                 	db	255
  4885                           
  4886                           ;Config register IDLOC7 @ 0x200007
  4887                           ;	unspecified, using default values
  4888   200007                     	org	2097159
  4889   200007  FF                 	db	255
  4890                           
  4891                           	psect	config
  4892                           
  4893                           ;Config register CONFIG1L @ 0x300000
  4894                           ;	VREG Sleep Enable bit
  4895                           ;	RETEN = OFF, Ultra low-power regulator is Disabled (Controlled by REGSLP bit)
  4896                           ;	LF-INTOSC Low-power Enable bit
  4897                           ;	INTOSCSEL = HIGH, LF-INTOSC in High-power mode during Sleep
  4898                           ;	SOSC Power Selection and mode Configuration bits
  4899                           ;	SOSCSEL = DIG, Digital (SCLKI) mode
  4900                           ;	Extended Instruction Set
  4901                           ;	XINST = OFF, Disabled
  4902   300000                     	org	3145728
  4903   300000  15                 	db	21
  4904                           
  4905                           ;Config register CONFIG1H @ 0x300001
  4906                           ;	Oscillator
  4907                           ;	FOSC = HS2, HS oscillator (High power, 16 MHz - 25 MHz)
  4908                           ;	PLL x4 Enable bit
  4909                           ;	PLLCFG = OFF, Disabled
  4910                           ;	Fail-Safe Clock Monitor
  4911                           ;	FCMEN = OFF, Disabled
  4912                           ;	Internal External Oscillator Switch Over Mode
  4913                           ;	IESO = OFF, Disabled
  4914   300001                     	org	3145729
  4915   300001  02                 	db	2
  4916                           
  4917                           ;Config register CONFIG2L @ 0x300002
  4918                           ;	Power Up Timer
  4919                           ;	PWRTEN = OFF, Disabled
  4920                           ;	Brown Out Detect
  4921                           ;	BOREN = SBORDIS, Enabled in hardware, SBOREN disabled
  4922                           ;	Brown-out Reset Voltage bits
  4923                           ;	BORV = 3, 1.8V
  4924                           ;	BORMV Power level
  4925                           ;	BORPWR = ZPBORMV, ZPBORMV instead of BORMV is selected
  4926   300002                     	org	3145730
  4927   300002  7F                 	db	127
  4928                           
  4929                           ;Config register CONFIG2H @ 0x300003
  4930                           ;	Watchdog Timer
  4931                           ;	WDTEN = OFF, WDT disabled in hardware; SWDTEN bit disabled
  4932                           ;	Watchdog Postscaler
  4933                           ;	WDTPS = 1048576, 1:1048576
  4934   300003                     	org	3145731
  4935   300003  7C                 	db	124
  4936                           
  4937                           ; Padding undefined space
  4938   300004                     	org	3145732
  4939   300004  FF                 	db	255
  4940                           
  4941                           ;Config register CONFIG3H @ 0x300005
  4942                           ;	ECAN Mux bit
  4943                           ;	CANMX = PORTB, ECAN TX and RX pins are located on RB2 and RB3, respectively
  4944                           ;	MSSP address masking
  4945                           ;	MSSPMSK = MSK7, 7 Bit address masking mode
  4946                           ;	Master Clear Enable
  4947                           ;	MCLRE = ON, MCLR Enabled, RE3 Disabled
  4948   300005                     	org	3145733
  4949   300005  89                 	db	137
  4950                           
  4951                           ;Config register CONFIG4L @ 0x300006
  4952                           ;	Stack Overflow Reset
  4953                           ;	STVREN = ON, Enabled
  4954                           ;	Boot Block Size
  4955                           ;	BBSIZ = BB2K, 2K word Boot Block size
  4956   300006                     	org	3145734
  4957   300006  91                 	db	145
  4958                           
  4959                           ; Padding undefined space
  4960   300007                     	org	3145735
  4961   300007  FF                 	db	255
  4962                           
  4963                           ;Config register CONFIG5L @ 0x300008
  4964                           ;	Code Protect 00800-01FFF
  4965                           ;	CP0 = OFF, Disabled
  4966                           ;	Code Protect 02000-03FFF
  4967                           ;	CP1 = OFF, Disabled
  4968                           ;	Code Protect 04000-05FFF
  4969                           ;	CP2 = OFF, Disabled
  4970                           ;	Code Protect 06000-07FFF
  4971                           ;	CP3 = OFF, Disabled
  4972   300008                     	org	3145736
  4973   300008  0F                 	db	15
  4974                           
  4975                           ;Config register CONFIG5H @ 0x300009
  4976                           ;	Code Protect Boot
  4977                           ;	CPB = OFF, Disabled
  4978                           ;	Data EE Read Protect
  4979                           ;	CPD = OFF, Disabled
  4980   300009                     	org	3145737
  4981   300009  C0                 	db	192
  4982                           
  4983                           ;Config register CONFIG6L @ 0x30000A
  4984                           ;	Table Write Protect 00800-01FFF
  4985                           ;	WRT0 = OFF, Disabled
  4986                           ;	Table Write Protect 02000-03FFF
  4987                           ;	WRT1 = OFF, Disabled
  4988                           ;	Table Write Protect 04000-05FFF
  4989                           ;	WRT2 = OFF, Disabled
  4990                           ;	Table Write Protect 06000-07FFF
  4991                           ;	WRT3 = OFF, Disabled
  4992   30000A                     	org	3145738
  4993   30000A  0F                 	db	15
  4994                           
  4995                           ;Config register CONFIG6H @ 0x30000B
  4996                           ;	Config. Write Protect
  4997                           ;	WRTC = OFF, Disabled
  4998                           ;	Table Write Protect Boot
  4999                           ;	WRTB = OFF, Disabled
  5000                           ;	Data EE Write Protect
  5001                           ;	WRTD = OFF, Disabled
  5002   30000B                     	org	3145739
  5003   30000B  E0                 	db	224
  5004                           
  5005                           ;Config register CONFIG7L @ 0x30000C
  5006                           ;	Table Read Protect 00800-01FFF
  5007                           ;	EBTR0 = OFF, Disabled
  5008                           ;	Table Read Protect 02000-03FFF
  5009                           ;	EBTR1 = OFF, Disabled
  5010                           ;	Table Read Protect 04000-05FFF
  5011                           ;	EBTR2 = OFF, Disabled
  5012                           ;	Table Read Protect 06000-07FFF
  5013                           ;	EBTR3 = OFF, Disabled
  5014   30000C                     	org	3145740
  5015   30000C  0F                 	db	15
  5016                           
  5017                           ;Config register CONFIG7H @ 0x30000D
  5018                           ;	Table Read Protect Boot
  5019                           ;	EBTRB = OFF, Disabled
  5020   30000D                     	org	3145741
  5021   30000D  40                 	db	64
  5022                           tosu	equ	0xFFF
  5023                           tosh	equ	0xFFE
  5024                           tosl	equ	0xFFD
  5025                           stkptr	equ	0xFFC
  5026                           pclatu	equ	0xFFB
  5027                           pclath	equ	0xFFA
  5028                           pcl	equ	0xFF9
  5029                           tblptru	equ	0xFF8
  5030                           tblptrh	equ	0xFF7
  5031                           tblptrl	equ	0xFF6
  5032                           tablat	equ	0xFF5
  5033                           prodh	equ	0xFF4
  5034                           prodl	equ	0xFF3
  5035                           indf0	equ	0xFEF
  5036                           postinc0	equ	0xFEE
  5037                           postdec0	equ	0xFED
  5038                           preinc0	equ	0xFEC
  5039                           plusw0	equ	0xFEB
  5040                           fsr0h	equ	0xFEA
  5041                           fsr0l	equ	0xFE9
  5042                           wreg	equ	0xFE8
  5043                           indf1	equ	0xFE7
  5044                           postinc1	equ	0xFE6
  5045                           postdec1	equ	0xFE5
  5046                           preinc1	equ	0xFE4
  5047                           plusw1	equ	0xFE3
  5048                           fsr1h	equ	0xFE2
  5049                           fsr1l	equ	0xFE1
  5050                           bsr	equ	0xFE0
  5051                           indf2	equ	0xFDF
  5052                           postinc2	equ	0xFDE
  5053                           postdec2	equ	0xFDD
  5054                           preinc2	equ	0xFDC
  5055                           plusw2	equ	0xFDB
  5056                           fsr2h	equ	0xFDA
  5057                           fsr2l	equ	0xFD9
  5058                           status	equ	0xFD8

Data Sizes:
    Strings     0
    Constant    0
    Data        0
    BSS         53
    Persistent  6
    Stack       0

Auto Spaces:
    Space          Size  Autos    Used
    COMRAM           94     30      69
    BANK0           160     24      44
    BANK1           256      0       0
    BANK2           256      0       0
    BANK3           256      0       0
    BANK4           256      0       0
    BANK5           256      0       0
    BANK6           256      0       0
    BANK7           256      0       0
    BANK8           256      0       0
    BANK9           256      0       0
    BANK10          256      0       0
    BANK11          256      0       0
    BANK12          256      0       0
    BANK13          256      0       0
    BANK14           65      0       0

Pointer List with Targets:

    TMR1_SetInterruptHandler@InterruptHandler	PTR FTN()void  size(2) Largest target is 1
		 -> interruption_1(), TMR1_DefaultInterruptHandler(), 

    TMR1_InterruptHandler	PTR FTN()void  size(2) Largest target is 1
		 -> interruption_1(), TMR1_DefaultInterruptHandler(), Absolute function(), 

    ECAN_SetRXB0InterruptHandler@handler	PTR FTN()void  size(2) Largest target is 1
		 -> reception_TTCAN(), RXB0DefaultInterruptHandler(), 

    RXB0InterruptHandler	PTR FTN()void  size(2) Largest target is 1
		 -> reception_TTCAN(), RXB0DefaultInterruptHandler(), Absolute function(), 

    convertCANid2Reg@passedInSIDH	PTR unsigned char  size(2) Largest target is 1
		 -> CAN_transmit@tempSIDH(BANK0[1]), 

    convertCANid2Reg@passedInSIDL	PTR unsigned char  size(2) Largest target is 1
		 -> CAN_transmit@tempSIDL(BANK0[1]), 

    convertCANid2Reg@passedInEIDH	PTR unsigned char  size(2) Largest target is 1
		 -> CAN_transmit@tempEIDH(BANK0[1]), 

    convertCANid2Reg@passedInEIDL	PTR unsigned char  size(2) Largest target is 1
		 -> CAN_transmit@tempEIDL(BANK0[1]), 

    CAN_receive@tempCanMsg	PTR struct . size(2) Largest target is 14
		 -> rxMessage(BANK0[14]), 

    CAN_transmit@tempCanMsg	PTR struct . size(2) Largest target is 14
		 -> txMessage(COMRAM[14]), 

    TMR2_SetInterruptHandler@InterruptHandler	PTR FTN()void  size(2) Largest target is 1
		 -> interruption_2(), TMR2_DefaultInterruptHandler(), 

    TMR2_InterruptHandler	PTR FTN()void  size(2) Largest target is 1
		 -> interruption_2(), Absolute function(), TMR2_DefaultInterruptHandler(), 


Critical Paths under _main in COMRAM

    _CAN_transmit->_convertCANid2Reg
    _SYSTEM_Initialize->_TMR1_Initialize
    _TMR2_Initialize->_TMR2_SetInterruptHandler
    _TMR1_Initialize->_TMR1_SetInterruptHandler
    _ECAN_Initialize->_ECAN_SetRXB0InterruptHandler

Critical Paths under _INTERRUPT_InterruptManager in COMRAM

    _TMR1_ISR->_TMR1_WriteTimer
    _reception_TTCAN->_CAN_receive
    _TMR1_Reload->_TMR1_WriteTimer
    _CAN_receive->_convertReg2ExtendedCANid

Critical Paths under _main in BANK0

    _main->_can_transmit
    _can_transmit->_CAN_transmit
    _CAN_transmit->_convertCANid2Reg

Critical Paths under _INTERRUPT_InterruptManager in BANK0

    None.

Critical Paths under _main in BANK1

    None.

Critical Paths under _INTERRUPT_InterruptManager in BANK1

    None.

Critical Paths under _main in BANK2

    None.

Critical Paths under _INTERRUPT_InterruptManager in BANK2

    None.

Critical Paths under _main in BANK3

    None.

Critical Paths under _INTERRUPT_InterruptManager in BANK3

    None.

Critical Paths under _main in BANK4

    None.

Critical Paths under _INTERRUPT_InterruptManager in BANK4

    None.

Critical Paths under _main in BANK5

    None.

Critical Paths under _INTERRUPT_InterruptManager in BANK5

    None.

Critical Paths under _main in BANK6

    None.

Critical Paths under _INTERRUPT_InterruptManager in BANK6

    None.

Critical Paths under _main in BANK7

    None.

Critical Paths under _INTERRUPT_InterruptManager in BANK7

    None.

Critical Paths under _main in BANK8

    None.

Critical Paths under _INTERRUPT_InterruptManager in BANK8

    None.

Critical Paths under _main in BANK9

    None.

Critical Paths under _INTERRUPT_InterruptManager in BANK9

    None.

Critical Paths under _main in BANK10

    None.

Critical Paths under _INTERRUPT_InterruptManager in BANK10

    None.

Critical Paths under _main in BANK11

    None.

Critical Paths under _INTERRUPT_InterruptManager in BANK11

    None.

Critical Paths under _main in BANK12

    None.

Critical Paths under _INTERRUPT_InterruptManager in BANK12

    None.

Critical Paths under _main in BANK13

    None.

Critical Paths under _INTERRUPT_InterruptManager in BANK13

    None.

Critical Paths under _main in BANK14

    None.

Critical Paths under _INTERRUPT_InterruptManager in BANK14

    None.

Call Graph Tables:

 ---------------------------------------------------------------------------------
 (Depth) Function   	        Calls       Base Space   Used Autos Params    Refs
 ---------------------------------------------------------------------------------
 (0) _main                                                 3     3      0    6752
                                             21 BANK0      3     3      0
       _ECAN_SetRXB0InterruptHandler
                  _SYSTEM_Initialize
                    _TMR1_Initialize
           _TMR1_SetInterruptHandler
                    _TMR1_StartTimer
                     _TMR1_StopTimer
                    _TMR2_Initialize
           _TMR2_SetInterruptHandler
                    _TMR2_StartTimer
                     _TMR2_StopTimer
                       _can_transmit
 ---------------------------------------------------------------------------------
 (1) _can_transmit                                         2     2      0    4991
                                             19 BANK0      2     2      0
                       _CAN_transmit
 ---------------------------------------------------------------------------------
 (2) _CAN_transmit                                         7     5      2    4991
                                             13 BANK0      6     4      2
                   _convertCANid2Reg
 ---------------------------------------------------------------------------------
 (3) _convertCANid2Reg                                    18     5     13    2425
                                             25 COMRAM     5     5      0
                                              0 BANK0     13     0     13
 ---------------------------------------------------------------------------------
 (1) _TMR2_StopTimer                                       0     0      0       0
 ---------------------------------------------------------------------------------
 (1) _TMR2_StartTimer                                      0     0      0       0
 ---------------------------------------------------------------------------------
 (1) _TMR1_StopTimer                                       0     0      0       0
 ---------------------------------------------------------------------------------
 (1) _TMR1_StartTimer                                      0     0      0       0
 ---------------------------------------------------------------------------------
 (1) _SYSTEM_Initialize                                    0     0      0     633
                    _ECAN_Initialize
               _INTERRUPT_Initialize
              _OSCILLATOR_Initialize
             _PIN_MANAGER_Initialize
                    _TMR1_Initialize
                    _TMR2_Initialize
 ---------------------------------------------------------------------------------
 (1) _TMR2_Initialize                                      0     0      0     211
           _TMR2_SetInterruptHandler
 ---------------------------------------------------------------------------------
 (1) _TMR2_SetInterruptHandler                             2     0      2     211
                                             25 COMRAM     2     0      2
 ---------------------------------------------------------------------------------
 (1) _TMR1_Initialize                                      2     2      0     211
                                             27 COMRAM     2     2      0
           _TMR1_SetInterruptHandler
 ---------------------------------------------------------------------------------
 (1) _TMR1_SetInterruptHandler                             2     0      2     211
                                             25 COMRAM     2     0      2
 ---------------------------------------------------------------------------------
 (2) _PIN_MANAGER_Initialize                               0     0      0       0
 ---------------------------------------------------------------------------------
 (2) _OSCILLATOR_Initialize                                0     0      0       0
 ---------------------------------------------------------------------------------
 (2) _INTERRUPT_Initialize                                 0     0      0       0
 ---------------------------------------------------------------------------------
 (2) _ECAN_Initialize                                      1     1      0     211
                                             27 COMRAM     1     1      0
       _ECAN_SetRXB0InterruptHandler
 ---------------------------------------------------------------------------------
 (3) _ECAN_SetRXB0InterruptHandler                         2     0      2     211
                                             25 COMRAM     2     0      2
 ---------------------------------------------------------------------------------
 Estimated maximum stack depth 3
 ---------------------------------------------------------------------------------
 (Depth) Function   	        Calls       Base Space   Used Autos Params    Refs
 ---------------------------------------------------------------------------------
 (4) _INTERRUPT_InterruptManager                           4     4      0    2224
                                             21 COMRAM     4     4      0
                     _ECAN_RXB0I_ISR
                           _TMR1_ISR
                           _TMR2_ISR
 ---------------------------------------------------------------------------------
 (5) _TMR2_ISR                                             0     0      0       0
                      _TMR2_CallBack
 ---------------------------------------------------------------------------------
 (6) _TMR2_CallBack                                        0     0      0       0
                   Absolute function *
       _TMR2_DefaultInterruptHandler *
                     _interruption_2 *
 ---------------------------------------------------------------------------------
 (7) _interruption_2                                       0     0      0       0
 ---------------------------------------------------------------------------------
 (7) _TMR2_DefaultInterruptHandler                         0     0      0       0
 ---------------------------------------------------------------------------------
 (5) _TMR1_ISR                                             0     0      0     240
                      _TMR1_CallBack
                    _TMR1_WriteTimer
 ---------------------------------------------------------------------------------
 (6) _TMR1_CallBack                                        0     0      0       0
                   Absolute function *
       _TMR1_DefaultInterruptHandler *
                     _interruption_1 *
 ---------------------------------------------------------------------------------
 (7) _interruption_1                                       0     0      0       0
 ---------------------------------------------------------------------------------
 (7) _TMR1_DefaultInterruptHandler                         0     0      0       0
 ---------------------------------------------------------------------------------
 (5) _ECAN_RXB0I_ISR                                       0     0      0    1984
                   Absolute function *
        _RXB0DefaultInterruptHandler *
                    _reception_TTCAN *
 ---------------------------------------------------------------------------------
 (6) _reception_TTCAN                                      0     0      0    1984
                        _CAN_receive
                        _TMR1_Reload
 ---------------------------------------------------------------------------------
 (7) _TMR1_Reload                                          0     0      0     240
                    _TMR1_WriteTimer
 ---------------------------------------------------------------------------------
 (6) _TMR1_WriteTimer                                      2     0      2     240
                                              0 COMRAM     2     0      2
 ---------------------------------------------------------------------------------
 (7) _CAN_receive                                          3     1      2    1744
                                             19 COMRAM     2     0      2
           _convertReg2ExtendedCANid
           _convertReg2StandardCANid
 ---------------------------------------------------------------------------------
 (8) _convertReg2StandardCANid                            15    11      4     266
                                              0 COMRAM    15    11      4
 ---------------------------------------------------------------------------------
 (8) _convertReg2ExtendedCANid                            19    15      4     821
                                              0 COMRAM    19    15      4
 ---------------------------------------------------------------------------------
 (6) _RXB0DefaultInterruptHandler                          0     0      0       0
 ---------------------------------------------------------------------------------
 (7) Absolute function(Fake)                               0     0      0       0
 ---------------------------------------------------------------------------------
 Estimated maximum stack depth 8
 ---------------------------------------------------------------------------------

 Call Graph Graphs:

 _main (ROOT)
   _ECAN_SetRXB0InterruptHandler
   _SYSTEM_Initialize
     _ECAN_Initialize
       _ECAN_SetRXB0InterruptHandler
     _INTERRUPT_Initialize
     _OSCILLATOR_Initialize
     _PIN_MANAGER_Initialize
     _TMR1_Initialize
       _TMR1_SetInterruptHandler
     _TMR2_Initialize
       _TMR2_SetInterruptHandler
   _TMR1_Initialize
   _TMR1_SetInterruptHandler
   _TMR1_StartTimer
   _TMR1_StopTimer
   _TMR2_Initialize
   _TMR2_SetInterruptHandler
   _TMR2_StartTimer
   _TMR2_StopTimer
   _can_transmit
     _CAN_transmit
       _convertCANid2Reg

 _INTERRUPT_InterruptManager (ROOT)
   _ECAN_RXB0I_ISR
     Absolute function(Fake) *
     _RXB0DefaultInterruptHandler *
     _reception_TTCAN *
       _CAN_receive
         _convertReg2ExtendedCANid
         _convertReg2StandardCANid
       _TMR1_Reload
         _TMR1_WriteTimer
   _TMR1_ISR
     _TMR1_CallBack
       Absolute function(Fake) *
       _TMR1_DefaultInterruptHandler *
       _interruption_1 *
     _TMR1_WriteTimer
   _TMR2_ISR
     _TMR2_CallBack
       Absolute function(Fake) *
       _TMR2_DefaultInterruptHandler *
       _interruption_2 *

 Address spaces:
Name               Size   Autos  Total    Cost      Usage
BIGRAM             E40      0       0      53        0.0%
EEDATA             400      0       0       0        0.0%
BITBANK13          100      0       0      52        0.0%
BANK13             100      0       0      22        0.0%
BITBANK12          100      0       0      51        0.0%
BANK12             100      0       0      21        0.0%
BITBANK11          100      0       0      50        0.0%
BANK11             100      0       0      20        0.0%
BITBANK10          100      0       0      49        0.0%
BANK10             100      0       0      19        0.0%
BITBANK9           100      0       0      48        0.0%
BANK9              100      0       0      18        0.0%
BITBANK8           100      0       0      47        0.0%
BANK8              100      0       0      17        0.0%
BITBANK7           100      0       0      46        0.0%
BANK7              100      0       0      16        0.0%
BITBANK6           100      0       0      45        0.0%
BANK6              100      0       0      15        0.0%
BITBANK5           100      0       0      44        0.0%
BANK5              100      0       0      14        0.0%
BITBANK4           100      0       0      12        0.0%
BANK4              100      0       0      13        0.0%
BITBANK3           100      0       0      10        0.0%
BANK3              100      0       0      11        0.0%
BITBANK2           100      0       0       8        0.0%
BANK2              100      0       0       9        0.0%
BITBANK1           100      0       0       6        0.0%
BANK1              100      0       0       7        0.0%
BITBANK0            A0      0       0       4        0.0%
BANK0               A0     18      2C       5       27.5%
BITBIGSFRllllll     9A      0       0      41        0.0%
BITCOMRAM           5E      0       0       0        0.0%
COMRAM              5E     1E      45       1       73.4%
BITBANK14           41      0       0      23        0.0%
BANK14              41      0       0      24        0.0%
BITBIGSFRhhllhh     1F      0       0      28        0.0%
BITBIGSFRllhhhh     1D      0       0      37        0.0%
BITBIGSFRhhlhh      1D      0       0      26        0.0%
BITBIGSFRhhh         D      0       0      25        0.0%
BITBIGSFRhhllhl      B      0       0      29        0.0%
BITBIGSFRlhhh        8      0       0      33        0.0%
BITBIGSFRlhhl        8      0       0      34        0.0%
BITBIGSFRhl          6      0       0      32        0.0%
BITBIGSFRhhllll      5      0       0      31        0.0%
BITBIGSFRlhlhh       3      0       0      35        0.0%
BITBIGSFRllhhll      2      0       0      40        0.0%
BITBIGSFRllhhlh      2      0       0      39        0.0%
BITBIGSFRllhhhh      2      0       0      38        0.0%
BITBIGSFRlhlll       2      0       0      36        0.0%
BITBIGSFRllllll      2      0       0      42        0.0%
BITBIGSFRhhlhlh      1      0       0      27        0.0%
BITBIGSFRhhlllh      1      0       0      30        0.0%
BIGSFR               0      0       0     200        0.0%
BITSFR_2             0      0       0     200        0.0%
SFR_2                0      0       0     200        0.0%
BITSFR_1             0      0       0     200        0.0%
SFR_1                0      0       0     200        0.0%
BITSFR               0      0       0     200        0.0%
SFR                  0      0       0     200        0.0%
STACK                0      0       0       2        0.0%
NULL                 0      0       0       0        0.0%
ABS                  0      0      71      43        0.0%
DATA                 0      0      71       3        0.0%
CODE                 0      0       0       0        0.0%


Microchip Technology PIC18 Macro Assembler V2.40 build 20220703182018 
Symbol Table                                                                                   Tue Oct 11 20:18:56 2022

                 __end_of_TMR2_SetInterruptHandler 12C8                                                 l25 11DC  
                                               l51 1248                                                 l54 12EC  
                                               l57 12E8                                                 l79 12C6  
                          __end_of_reception_TTCAN 1046                                                l105 129C  
                                              l108 12AE                                                l129 12F8  
                                              l402 093E                                                l511 12D0  
                                              l440 0CFE                                                l443 12DA  
                                              l620 014A                                                l701 055E  
                                              l621 0164                                                l622 0220  
                                              l630 020A                                                l623 01AE  
                                              l704 0554                                                l481 12F0  
                                              l650 02AE                                                l634 01EC  
                                              l475 10F4                                                l643 0258  
                                              l627 0190                                                l388 0F06  
                                              l397 06F2                                                l478 12F4  
                                              l398 093E                                                l670 03B4  
                                              l399 0818                                                l639 0270  
                                              l592 0FC4                                                l666 03CC  
                                              l691 04C0                                                l677 040A  
                                              l687 04D8                                                l698 0504  
                           __end_of_interruption_1 1284                             __end_of_interruption_2 12E6  
                                              _PR2 000FCB                                    _timer1ReloadVal 0044  
                                  _TMR2_Initialize 122C                                                tosl 000FFD  
                                              wreg 000FE8                         ??_convertReg2StandardCANid 002A  
                                             l3000 0630                                               l3010 0674  
                                             l3002 0634                                               l3100 128C  
                                             l3020 06D8                                               l3012 0688  
                                             l3004 0638                                               l3102 1290  
                                             l3110 12EE                                               l3030 0752  
                                             l3022 06EC                                               l3014 069C  
                                             l3006 064C                                               l3104 1294  
                                             l3040 0786                                               l3032 0756  
                                             l3024 06EE                                               l3016 06B0  
                                             l3008 0660                                               l3112 0F08  
                                             l3200 0102                                               l3106 1298  
                                             l3050 07EA                                               l3042 079A  
                                             l3034 075A                                               l3026 0700  
                                             l3018 06C4                                               l3114 0F0C  
                                             l3210 0122                                               l3202 0106  
                                             l3108 12F2                                               l3060 0874  
                                             l3052 07FE                                               l3044 07AE  
                                             l3036 075E                                               l3028 074E  
                                             l3140 0F4A                                               l3116 0F20  
                                             l3300 0372                                               l3220 0158  
                                             l3212 0124                                               l3204 010A  
                                             l3070 0898                                               l3062 0878  
                                             l3054 0812                                               l3046 07C2  
                                             l3038 0772                                               l3142 0F4E  
                                             l3118 0F24                                               l3310 039E  
                                             l3302 0380                                               l3230 019E  
                                             l3222 0172                                               l3214 012A  
                                             l3206 0112                                               l3080 08FC  
                                             l3072 08AC                                               l3064 087C  
                                             l3048 07D6                                               l3144 0F5A  
                                             l3320 03F4                                               l3312 03A2  
                                             l3304 0384                                               l3240 01DA  
                                             l3232 01A2                                               l3224 017A  
                                             l3216 012E                                               l3208 011E  
                                             l3082 0910                                               l3074 08C0  
                                             l3066 0880                                               l3058 0826  
                                             l3146 0F6A                                               l3138 0F36  
                                             l3330 0452                                               l3322 03F8  
                                             l3314 03B6                                               l3306 0388  
                                             l3250 0224                                               l3242 01EE  
                                             l3234 01BC                                               l3226 017E  
                                             l3218 0140                                               l3092 12EA  
                                             l3084 0924                                               l3076 08D4  
                                             l3068 0884                                               l3148 0F6E  
                                             l3340 047A                                               l3332 0462  
                                             l3324 040C                                               l3316 03DA  
                                             l3308 0396                                               l3260 0246  
                                             l3252 0228                                               l3244 01FA  
                                             l3236 01CE                                               l3228 0192  
                                             l3180 00BA                                               l3094 12E6  
                                             l3086 0938                                               l3078 08E8  
                                             l3350 04AA                                               l3342 047E  
                                             l3334 0466                                               l3318 03EC  
                                             l3326 042A                                               l3270 029C  
                                             l3262 025A                                               l3254 022C  
                                             l3246 01FE                                               l3238 01D6  
                                             l3190 00F2                                               l3182 00E0  
                                             l3096 1284                                               l3168 0F76  
                                             l3360 04F2                                               l3352 04AE  
                                             l3344 0482                                               l3328 043E  
                                             l3336 0468                                               l3280 02F6  
                                             l3272 02B0                                               l3264 027E  
                                             l3256 023A                                               l3248 0218  
                                             l3192 00F6                                               l3184 00E4  
                                             l3176 00AC                                               l3098 1288  
                                             l3370 0556                                               l3362 0506  
                                             l3354 04C2                                               l3346 0490  
                                             l3290 033A                                               l3282 02FC  
                                             l3266 0290                                               l3274 02CE  
                                             l3258 0242                                               l3194 00FA  
                                             l3186 00E8                                               l3178 00B8  
                                             l2900 0BAA                                               l3444 0586  
                                             l3356 04E6                                               l3364 051C  
                                             l3348 04A2                                               l3292 034E  
                                             l3284 030C                                               l3276 02E2  
                                             l3268 0298                                               l3196 00FE  
                                             l3188 00EC                                               l2910 0C52  
                                             l2902 0BD8                                               l3446 0F8E  
                                             l3366 0530                                               l3358 04EE  
                                             l3294 035E                                               l3286 031C  
                                             l3278 02F2                                               l3198 0100  
                                             l2920 0CBC                                               l2912 0C58  
                                             l2904 0C12                                               l3368 0544  
                                             l3296 0362                                               l3288 0326  
                                             l3376 0570                                               l2930 11B6  
                                             l2922 0CEE                                               l2914 0C66  
                                             l2906 0C18                                               l3298 0364  
                                             l2932 11CA                                               l2940 1236  
                                             l2916 0C94                                               l2908 0C4A  
                                             l2934 11DA                                               l2950 10BE  
                                             l2942 1238                                               l2918 0CA4  
                                             l2928 12C8                                               l2960 10F0  
                                             l2952 10CA                                               l2944 1244  
                                             l2936 122C                                               l2970 0E5E  
                                             l2962 0E3A                                               l2946 12F6  
                                             l2954 10CC                                               l2890 12BE  
                                             l2938 1234                                               l2892 12D2  
                                             l2980 0EDC                                               l2972 0E60  
                                             l2964 0E3E                                               l2948 129E  
                                             l2956 10E2                                               l2982 0EE8  
                                             l2974 0E66                                               l2966 0E52  
                                             l2958 10E4                                               l2894 0B8A  
                                             l2990 05B8                                               l2984 0EEA  
                                             l2976 0E68                                               l2968 0E5A  
                                             l2896 0B8A                                               l2992 05CA  
                                             l2986 0EEC                                               l2978 0E6A  
                                             l2898 0B9E                                               l2994 05DA  
                                             l2988 0EF0                                               l2996 0628  
                                             l2998 062C                       ?_RXB0DefaultInterruptHandler 0026  
                                             _LATA 000F89                                               u1510 0B9E  
                                             _LATB 000F8A                                               u1511 0B9A  
                                             _LATC 000F8B                                               u1600 0158  
                                             u1601 0154                                               u1610 0172  
                                             u1611 016E                                               u1540 0E52  
                                             u1700 0290                                               u1620 0190  
                                             u1541 0E4E                                               u1525 0C2A  
                                             u1701 028C                                               u1621 018C  
                                             u1550 0F06                                               u1710 02AE  
                                             u1630 01BC                                               u1551 0F02  
                                             u1535 0CCE                                               u1711 02AA  
                                             u1631 01B8                                               u1560 05DA  
                                             u1800 0396                                               u1720 02E2  
                                             u1640 01CE                                               u1561 05D6  
                                             u1801 0392                                               u1721 02DE  
                                             u1641 01CA                                               u1570 0700  
                                             u1810 03B4                                               u1730 02F2  
                                             u1650 01EC                                               u1571 06FC  
                                             u1811 03B0                                               u1731 02EE  
                                             u1651 01E8                                               u1580 0826  
                                             u1900 04A2                                               u1820 03DA  
                                             u1740 030C                                               u1660 0218  
                                             u1581 0822                                               u1901 049E  
                                             u1821 03D6                                               u1741 0308  
                                             u1661 0214                                               u1910 04C0  
                                             u1830 03EC                                               u1750 031C  
                                             u1670 023A                                               u1590 0140  
                                             u1911 04BC                                               u1831 03E8  
                                             u1751 0318                                               u1671 0236  
                                             u1591 013C                                               u1920 04E6  
                                             u1840 040A                                               u1760 033A  
                                             u1680 0258                                               u1921 04E2  
                                             u1841 0406                                               u1761 0336  
                                             u1681 0254                                               u1930 0504  
                                             u1850 043E                                               u1770 034E  
                                             u1690 027E                                               u1931 0500  
                                             u1851 043A                                               u1771 034A  
                                             u1691 027A                                               u1940 0530  
                                             u1860 0452                                               u1780 035E  
                                             u1941 052C                                               u1861 044E  
                                             u1781 035A                                               u1950 0544  
                                             u1870 0462                                               u1790 0372  
                                             u1951 0540                                               u1871 045E  
                                             u1791 036E                                               u1960 0554  
                                             u1880 0476                                               u1961 0550  
                                             u1881 0472                                               u1970 056C  
                                             u1890 0490                                               u1971 0568  
                                             u1891 048C                                               i2l72 11B4  
                                             i2l82 12FA                                               i2l76 115A  
                                             _TMR2 000FCC                                               _WPUB 000F5B  
                                    _compteurTTCAN 000B                                               _main 00AC  
                     convertCANid2Reg@passedInEIDH 0065                       convertCANid2Reg@passedInEIDL 0067  
                                             fsr2h 000FDA                                               indf2 000FDF  
                                             fsr2l 000FD9                                               btemp 0046  
                     convertCANid2Reg@passedInSIDH 0069                       convertCANid2Reg@passedInSIDL 006B  
                                             start 00A8                         ??_TMR1_SetInterruptHandler 0041  
                                     ___param_bank 000000                      __end_of_OSCILLATOR_Initialize 12B0  
                                            ?_main 0026                                    _TMR1_StartTimer 12F2  
                                            _T1CON 000FCD                                              _T2CON 000FCA  
                                  ?_interruption_1 0026                                    ?_interruption_2 0026  
                                            i2l142 0094                                              i2l135 004C  
                                            i2l136 0094                                              i2l137 0070  
                                            i2l412 0B88                                              i2l405 0A62  
                                            i2l432 0E38                                              i2l600 1044  
                                            i2l504 112A                                              i2l514 12FC  
                                            i2l435 10BC                                              i2l508 118A  
                                            i2l446 1266                                              i2l379 12FE  
                                            i2l492 12BC                                              i2l581 1282  
                                            i2l489 1204                                              i2l577 12E4  
                                            _TMR1H 000FCF                                              _TMR1L 000FCE  
                                            _TRISA 000F92                                              _TRISB 000F93  
                                            _TRISC 000F94                              CAN_receive@tempCanMsg 0039  
                                 __end_of_TMR1_ISR 112C                                   __end_of_TMR2_ISR 11B6  
                             __end_of_CAN_transmit 0940                            __end_of_TMR1_Initialize 10F6  
                                            pclath 000FFA                                              pclatu 000FFB  
                    ??_RXB0DefaultInterruptHandler 0026                                              ttemp5 0047  
                                            ttemp6 004A                                              ttemp7 004E  
              convertReg2ExtendedCANid@ConvertedID 0035                                              status 000FD8  
                                            wtemp8 0047                                    _TMR2_StartTimer 12EA  
                             CAN_transmit@tempEIDH 006F                               CAN_transmit@tempEIDL 0070  
                             CAN_transmit@tempSIDH 0071                               CAN_transmit@tempSIDL 0072  
                                  _TMR1_WriteTimer 11DE                                    __initialization 1206  
                                     __end_of_main 05B8                            __end_of_TMR2_Initialize 124A  
                      ?_INTERRUPT_InterruptManager 0026                           _TMR2_SetInterruptHandler 12BE  
                                           ??_main 0075                                   ?_reception_TTCAN 0026  
                                    __activetblptr 000002                                  ??_ECAN_Initialize 0041  
                                           _CANCON 000F6F                                             _ANCON0 000F5D  
                                           _ANCON1 000F5C                                             _CIOCON 000F70  
                                           _T1GCON 000FAA                            TMR1_WriteTimer@timerVal 0026  
                                           i2l2200 10AC                                             i2l2210 11F2  
                                           i2l2300 0ACA                                             i2l2212 11F6  
                                           i2l2204 11DE                                             i2l2310 0B30  
                                           i2l2302 0AF0                                             i2l2206 11EC  
                                           i2l2214 11FC                                             i2l2320 0B80  
                                           i2l2312 0B40                                             i2l2304 0B00  
                                           i2l2216 1200                                             i2l2208 11EE  
                                           i2l2170 0D12                                             i2l2314 0B50  
                                           i2l2306 0B10                                             i2l2330 12DC  
                                           i2l2180 0D94                                             i2l2172 0D18  
                                           i2l2316 0B60                                             i2l2308 0B20  
                                           i2l2260 094E                                             i2l2332 1268  
                                           i2l2182 0DCA                                             i2l2174 0D20  
                                           i2l2318 0B70                                             i2l2270 09CC  
                                           i2l2262 095C                                             i2l2510 0FE2  
                                           i2l2334 127E                                             i2l2502 115C  
                                           i2l2184 0DE2                                             i2l2176 0D4A  
                                           i2l2168 0D02                                             i2l2192 1048  
                                           i2l2280 0A1C                                             i2l2272 09DC  
                                           i2l2264 0968                                             i2l2256 0940  
                                           i2l2328 12B0                                             i2l2520 1028  
                                           i2l2512 0FF8                                             i2l2504 1170  
                                           i2l2352 112C                                             i2l2186 0E18  
                                           i2l2178 0D62                                             i2l2194 1048  
                                           i2l2290 0A5E                                             i2l2282 0A2C  
                                           i2l2274 09EC                                             i2l2266 099A  
                                           i2l2258 0940                                             i2l2522 1040  
                                           i2l2514 0FFC                                             i2l2506 0FC6  
                                           i2l2354 1140                                             i2l2530 118E  
                                           i2l2188 0E28                                             i2l2196 1072  
                                           i2l2292 0A72                                             i2l2284 0A3C  
                                           i2l2276 09FC                                             i2l2268 09A6  
                                           i2l2516 1008                                             i2l2508 0FD2  
                                           i2l2532 11A8                                             i2l2198 109C  
                                           i2l2294 0A80                                             i2l2286 0A4C  
                                           i2l2278 0A0C                                             i2l2518 1020  
                                           i2l2550 1264                                             i2l2534 11AC  
                                           i2l2630 0028                                             i2l2296 0A8C  
                                           i2l2288 0A5C                                             i2l2560 1122  
                                           i2l2552 10F6                                             i2l2528 118C  
                                           i2l2640 007E                                             i2l2632 0036  
                                           i2l2298 0ABE                                             i2l2554 10F8  
                                           i2l2642 008C                                             i2l2634 0044  
                                           i2l2548 124A                                             i2l2556 1104  
                                           i2l2636 005A                                             i2l2628 001A  
                                           i2l2558 111E                                             i2l2638 0068  
                                           _OSCCON 000FD3                                             _RXB0D0 000F66  
                                           _RXB0D1 000F67                                             _RXB0D2 000F68  
                                           _RXB0D3 000F69                                             _RXB1D0 000F36  
                                           _RXB0D4 000F6A                                             _RXB1D1 000F37  
                                           _RXB0D5 000F6B                                             _RXB1D2 000F38  
                                           _RXB0D6 000F6C                                             _RXB1D3 000F39  
                                           _RXB0D7 000F6D                                             _RXB1D4 000F3A  
                                           _RXB1D5 000F3B                                             _RXB1D6 000F3C  
                                           _RXB1D7 000F3D                                             _TXB0D0 000F26  
                                           _TXB0D1 000F27                                             _TXB0D2 000F28  
                                           _TXB0D3 000F29                                             _TXB1D0 000F16  
                                           _TXB0D4 000F2A                                             _TXB1D1 000F17  
                                           _TXB0D5 000F2B                                             _TXB1D2 000F18  
                                           _TXB0D6 000F2C                                             _TXB1D3 000F19  
                                           _TXB0D7 000F2D                                             _TXB2D0 000F06  
                                           _TXB1D4 000F1A                                             _TXB2D1 000F07  
                                           _TXB1D5 000F1B                                             _TXB2D2 000F08  
                                           _TXB1D6 000F1C                                             _TXB2D3 000F09  
                                           _TXB1D7 000F1D                                             _TXB2D4 000F0A  
                                           _TXB2D5 000F0B                                             _TXB2D6 000F0C  
                                           _TXB2D7 000F0D               __end_of_TMR1_DefaultInterruptHandler 12FE  
                     _TMR1_DefaultInterruptHandler 12FC                            __end_of_TMR1_StartTimer 12F6  
                                     ?_TMR1_Reload 0026                                             clear_0 120C  
                                           clear_1 1218                                             isa$std 000001  
             __end_of_ECAN_SetRXB0InterruptHandler 12DC                       _ECAN_SetRXB0InterruptHandler 12D2  
                 __end_of_convertReg2StandardCANid 10BE                                             tblptru 000FF8  
                                     _can_transmit 0F08                            __end_of_TMR2_StartTimer 12EE  
         TMR1_SetInterruptHandler@InterruptHandler 003F           TMR2_SetInterruptHandler@InterruptHandler 003F  
                          __end_of_TMR1_WriteTimer 1206                              __end_of_TMR1_CallBack 118C  
              ECAN_SetRXB0InterruptHandler@handler 003F                                   ?_TMR1_Initialize 0026  
                                _SYSTEM_Initialize 1284                                         __accesstop 0060  
                          __end_of__initialization 121E                              __end_of_TMR2_CallBack 115C  
                               ?_SYSTEM_Initialize 0026                           _convertReg2ExtendedCANid 0D00  
                                    ___rparam_used 000001                                     __pcstackCOMRAM 0026  
                              ??_SYSTEM_Initialize 0043                                          ?_TMR1_ISR 0026  
                                        ?_TMR2_ISR 0026                    fp__TMR1_DefaultInterruptHandler 0000  
                    ?_TMR1_DefaultInterruptHandler 0026                                   ?_TMR2_Initialize 0026  
                    ?_ECAN_SetRXB0InterruptHandler 003F              convertReg2StandardCANid@tempRXBn_SIDH 002C  
            convertReg2StandardCANid@tempRXBn_SIDL 0026                          __end_of_SYSTEM_Initialize 129E  
                                       __pbssBANK0 0078                               _RXB0InterruptHandler 000F  
                                       __pnvCOMRAM 0044                                       _CAN_transmit 05B8  
                                 ?_TMR1_StartTimer 0026                                         ??_TMR1_ISR 0028  
                                       ??_TMR2_ISR 0026                                   ??_interruption_1 0026  
                                 ??_interruption_2 0026                                            _ECANCON 000F72  
                                          _CANSTAT 000F6E                                            _BRGCON1 000E43  
                                          _BRGCON2 000E44                                            _BRGCON3 000E45  
                                          _REFOCON 000F9A                                            _OSCCON2 000FD2  
                                          _RXB0DLC 000F65                                            _RXB1DLC 000F35  
                                          _RXB0CON 000F60                                            _OSCTUNE 000F9B  
                                          i2u80_45 107A                                            i2u81_40 11EC  
                                          i2u81_41 11E8                                            i2u90_40 1140  
                                          i2u90_41 113C                                            i2u91_48 1146  
                                          i2u91_49 115A                                            i2u85_40 094E  
                                          i2u85_41 094A                                            i2u86_40 095C  
                                          i2u86_41 0958                                            i2u87_40 0A72  
                                          i2u87_41 0A6E                                            i2u79_45 0D74  
                                          i2u88_40 0A80                                            i2u88_41 0A7C  
                                          i2u89_40 127E                                            i2u97_40 1170  
                                          i2u89_41 127A                                            i2u97_41 116C  
                                          _TXB0DLC 000F25                                            i2u99_40 0FF8  
                                          i2u98_48 1176                                            i2u99_41 0FF4  
                                          i2u98_49 118A                                            _TXB1DLC 000F15  
                                          _TXB2DLC 000F05                                   ?_TMR2_StartTimer 0026  
                                 ?_TMR1_WriteTimer 0026                                   _vitesse_vehicule 0016  
                                          __Hparam 0000                                            __Lparam 0000  
                       ??_TMR2_SetInterruptHandler 0041                                   _flag_interrupt_1 0007  
                                 _flag_interrupt_2 0009                          ?_convertReg2StandardCANid 0026  
                                  _ECAN_Initialize 0E3A                                            __pcinit 1206  
                                          __ramtop 1000                                            __ptext0 00AC  
                                          __ptext1 0F08                                            __ptext2 05B8  
                                          __ptext3 0B8A                                            __ptext4 12E6  
                                          __ptext5 12EA                                            __ptext6 12EE  
                                          __ptext7 12F2                                            __ptext8 1284  
                                          __ptext9 122C                     ??_TMR1_DefaultInterruptHandler 0026  
                                        _T1CONbits 000FCD                              _OSCILLATOR_Initialize 129E  
                                        _T2CONbits 000FCA                                   _convertCANid2Reg 0B8A  
                         ??_PIN_MANAGER_Initialize 003F                          ?_TMR1_SetInterruptHandler 003F  
                                 _mode_transmition 0017                               end_of_initialization 121E  
                                    __Lmediumconst 0000                                      ??_CAN_receive 003B  
                                          postinc0 000FEE                                            postinc2 000FDE  
                                 _vehicule_demarre 0015                                          _PORTAbits 000F80  
                              main@prochaine_etape 0077                             CAN_transmit@tempCanMsg 006D  
                       ??_convertReg2ExtendedCANid 002A                __end_of_RXB0DefaultInterruptHandler 1300  
                      _RXB0DefaultInterruptHandler 12FE                                 fp__reception_TTCAN 0000  
                          __end_of_ECAN_Initialize 0F08                                     _MSG_id_recever 0001  
                     __end_of_INTERRUPT_Initialize 12FA                                __end_of_CAN_receive 0B8A  
             __end_of_TMR2_DefaultInterruptHandler 12FC                       _TMR2_DefaultInterruptHandler 12FA  
                                   _TMR1_StopTimer 12EE                             ?_OSCILLATOR_Initialize 0026  
                              start_initialization 1206                                     _TMR2_StopTimer 12E6  
              convertReg2StandardCANid@returnValue 002D                                     _ECAN_RXB0I_ISR 124A  
                           __end_of_TMR1_StopTimer 12F2                    fp__TMR2_DefaultInterruptHandler 0000  
                    ?_TMR2_DefaultInterruptHandler 0026                              TMR1_ISR@CountCallBack 000D  
                           __end_of_TMR2_StopTimer 12EA                                        __pbssCOMRAM 0001  
                                    __pcstackBANK0 0060                                          __pnvBANK0 0088  
                                ??_reception_TTCAN 003B                                        _CAN_receive 0940  
                                 ?_ECAN_Initialize 0026                                        _cle_inseree 0014  
                           _PIN_MANAGER_Initialize 11B6                             __end_of_ECAN_RXB0I_ISR 1268  
                         __end_of_convertCANid2Reg 0D00                                          __pintcode 0008  
                 __end_of_TMR1_SetInterruptHandler 12D2                                    ?_TMR1_StopTimer 0026  
                     ??_INTERRUPT_InterruptManager 003B                                        _COMSTATbits 000F71  
                                  ?_TMR2_StopTimer 0026                   __end_of_convertReg2ExtendedCANid 0E3A  
                   convertCANid2Reg@tempPassedInID 0060                               _INTERRUPT_Initialize 12F6  
                                    _TMR1_CallBack 115C                                           _LATAbits 000F89  
                                    _TMR2_CallBack 112C                                           _PIE1bits 000F9D  
                                         _PIE5bits 000F76                                           i2u100_40 1020  
                                         i2u100_41 101C                                           i2u101_40 1040  
                                         i2u101_41 103C                                           i2u102_40 11A8  
                                         i2u110_40 007E                                           i2u102_41 11A4  
                                         i2u110_41 007A                                           i2u111_40 008C  
                                         i2u111_41 0088                                           i2u103_48 1250  
                                         i2u104_40 111E                                           i2u103_49 1264  
                                         i2u104_41 111A                                           i2u105_40 0028  
                                         i2u105_41 0024                                           i2u106_40 0036  
                                         i2u106_41 0032                                           i2u107_40 0044  
                                         i2u107_41 0040                                           i2u108_40 005A  
                                         i2u108_41 0056                                           i2u109_40 0068  
                                         i2u109_41 0064                                           _PIR1bits 000F9E  
                                  ?_ECAN_RXB0I_ISR 0026                                           _PIR5bits 000F77  
                                        _rxMessage 007A                                           _RXB0EIDH 000F63  
                                         _RXB0EIDL 000F64                                           _RXB1EIDH 000F33  
                                         _RXB1EIDL 000F34                                           _RCONbits 000FD0  
                                    ??_TMR1_Reload 0028                                           _RXB0SIDH 000F61  
                                         _RXB0SIDL 000F62                                           _RXF0EIDH 000EE2  
                                         _RXB1SIDH 000F31                                           _RXF0EIDL 000EE3  
                                         _RXB1SIDL 000F32                                           _RXF1EIDH 000EE6  
                                         _RXF1EIDL 000EE7                                           _RXF2EIDH 000EEA  
                                         _RXF2EIDL 000EEB                                           _RXF3EIDH 000EEE  
                                         _RXF3EIDL 000EEF                                           _RXF4EIDH 000EF2  
                                         _RXF4EIDL 000EF3                                           _RXF5EIDH 000EF6  
                                         _RXF5EIDL 000EF7                                           _RXF0SIDH 000EE0  
                                         _RXF0SIDL 000EE1                                           _RXF1SIDH 000EE4  
                                         _TXB0EIDH 000F23                                           _TXB0EIDL 000F24  
                                         _RXF1SIDL 000EE5                                           _RXF2SIDH 000EE8  
                                         _TXB1EIDH 000F13                                           _TXB1EIDL 000F14  
                                         _RXF2SIDL 000EE9                                           _RXF3SIDH 000EEC  
                                         _TXB2EIDH 000F03                                           _TXB2EIDL 000F04  
                                         _RXF3SIDL 000EED                                           _RXF4SIDH 000EF0  
                                         _RXF4SIDL 000EF1                                           _RXF5SIDH 000EF4  
                                         _RXF5SIDL 000EF5                                           _TMR1_ISR 10F6  
                                         _TMR2_ISR 118C                                           _RXM0EIDH 000EFA  
                                         _RXM0EIDL 000EFB                                           _RXM1EIDH 000EFE  
                                         _TXB0SIDH 000F21                                           _RXM1EIDL 000EFF  
                                         _TXB0SIDL 000F22                                           _TXB1SIDH 000F11  
                                         _TXB1SIDL 000F12                                           _TXB2SIDH 000F01  
                                         _TXB2SIDL 000F02                                          _txMessage 0018  
                                         _RXM0SIDH 000EF8                                           _RXM0SIDL 000EF9  
                                         _RXM1SIDH 000EFC                                           _RXM1SIDL 000EFD  
                   fp__RXB0DefaultInterruptHandler 0000                                  ??_TMR1_Initialize 0041  
                   ??_TMR2_DefaultInterruptHandler 0026                          ?_TMR2_SetInterruptHandler 003F  
               _flag_bouton_verrouille_deja_appuye 0005                                      ?_can_transmit 0026  
                                fp__interruption_1 0000                                  fp__interruption_2 0000  
                                      _INTCON2bits 000FF1                              ?_INTERRUPT_Initialize 0026  
                                   ?_TMR1_CallBack 0026                                  ??_TMR2_Initialize 0041  
                                   ?_TMR2_CallBack 0026                           _convertReg2StandardCANid 1046  
            convertReg2ExtendedCANid@tempRXBn_EIDH 002E              convertReg2ExtendedCANid@tempRXBn_EIDL 0026  
            convertReg2ExtendedCANid@tempRXBn_SIDH 0027              convertReg2ExtendedCANid@tempRXBn_SIDL 0028  
                                         __Hrparam 0000                    _flag_bouton_demarre_deja_appuye 0078  
                                         __Lrparam 0000                          convertCANid2Reg@canIdType 0064  
                          ??_OSCILLATOR_Initialize 003F                           _TMR1_SetInterruptHandler 12C8  
convertReg2ExtendedCANid@CAN_standardLo_ID_hi3bits 0034                                __end_of_TMR1_Reload 12BE  
                            _TMR1_InterruptHandler 0088  convertReg2ExtendedCANid@CAN_standardLo_ID_lo2bits 0033  
                          convertCANid2Reg@wipSIDL 0043                                     ??_can_transmit 0073  
                                         __ptext10 12BE                                           __ptext11 10BE  
                                         __ptext20 112C                                           __ptext12 12C8  
                                         __ptext21 12FA                                           __ptext13 11B6  
                                       _T1GCONbits 000FAA                                           __ptext30 12B0  
                                         __ptext22 12DC                                           __ptext14 129E  
                                         __ptext31 11DE                                           __ptext23 10F6  
                                         __ptext15 12F6                                           __ptext32 0940  
                                         __ptext24 115C                                           __ptext16 0E3A  
                                         __ptext33 1046                                           __ptext25 12FC  
                                         __ptext17 12D2                                           __ptext34 0D00  
                                         __ptext26 1268                                           __ptext35 0000  
                                         __ptext27 124A                                           __ptext19 118C  
                                         __ptext28 12FE                                           __ptext29 0FC6  
                                ??_TMR1_StartTimer 003F                convertReg2StandardCANid@ConvertedID 0031  
                   ??_ECAN_SetRXB0InterruptHandler 0041                convertReg2ExtendedCANid@returnValue 002F  
                                         isa$xinst 000000                          ?_convertReg2ExtendedCANid 0026  
                                    ?_CAN_transmit 006D                                           int$flags 0046  
                                ??_TMR2_StartTimer 003F                 __end_of_INTERRUPT_InterruptManager 00A8  
                       _INTERRUPT_InterruptManager 0008                                  ??_TMR1_WriteTimer 0028  
                                      _RXB0CONbits 000F60                                        _RXB1CONbits 000F30  
                                       _INTCONbits 000FF2                                    _reception_TTCAN 0FC6  
                           ??_INTERRUPT_Initialize 003F                                    ??_TMR1_CallBack 0026  
                                         intlevel2 0000                                    ??_TMR2_CallBack 0026  
                          ?_PIN_MANAGER_Initialize 0026                                        _TXB0CONbits 000F20  
                                     ?_CAN_receive 0039                                        _TXB1CONbits 000F10  
                                      _TXB2CONbits 000F00                                   ??_TMR1_StopTimer 003F  
                                   ??_CAN_transmit 0044                                  ?_convertCANid2Reg 0060  
                                      _TMR1_Reload 12B0                                 ??_convertCANid2Reg 003F  
                                 ??_TMR2_StopTimer 003F                              TMR2_ISR@CountCallBack 0011  
                                   _interruption_1 1268                                     _interruption_2 12DC  
                   __end_of_PIN_MANAGER_Initialize 11DE                                   ??_ECAN_RXB0I_ISR 003B  
                            _TMR2_InterruptHandler 008A                                    _TMR1_Initialize 10BE  
                              _vehicule_verrouille 0013                               __end_of_can_transmit 0FC6  
