

Microchip MPLAB XC8 Assembler V2.40 build 20220703182018 
                                                                                               Thu Sep 29 10:24:10 2022

Microchip MPLAB XC8 C Compiler v2.40 (Free license) build 20220703182018 Og1 
     1                           	processor	18F25K80
     2                           	fnconf	rparam,??,?,0
     3                           	pagewidth 120
     4                           	opt	flic
     5                           	psect	nvCOMRAM,global,class=COMRAM,space=1,delta=1,lowdata,noexec
     6                           	psect	nvBANK0,global,class=BANK0,space=1,delta=1,lowdata,noexec
     7                           	psect	smallconst,global,reloc=2,class=SMALLCONST,delta=1,noexec
     8                           	psect	cinit,global,reloc=2,class=CODE,delta=1
     9                           	psect	bssCOMRAM,global,class=COMRAM,space=1,delta=1,lowdata,noexec
    10                           	psect	bssBANK0,global,class=BANK0,space=1,delta=1,lowdata,noexec
    11                           	psect	cstackBANK0,global,class=BANK0,space=1,delta=1,lowdata,noexec
    12                           	psect	cstackCOMRAM,global,class=COMRAM,space=1,delta=1,lowdata,noexec
    13                           	psect	text0,global,reloc=2,class=CODE,delta=1
    14                           	psect	text1,global,reloc=2,class=CODE,delta=1
    15                           	psect	text2,global,reloc=2,class=CODE,delta=1
    16                           	psect	text3,global,reloc=2,class=CODE,delta=1
    17                           	psect	text4,global,reloc=2,class=CODE,delta=1
    18                           	psect	text5,global,reloc=2,class=CODE,delta=1,group=3
    19                           	psect	text6,global,reloc=2,class=CODE,delta=1,group=1
    20                           	psect	text7,global,reloc=2,class=CODE,delta=1,group=1
    21                           	psect	text8,global,reloc=2,class=CODE,delta=1,group=3
    22                           	psect	text9,global,reloc=2,class=CODE,delta=1
    23                           	psect	text10,global,reloc=2,class=CODE,delta=1
    24                           	psect	text11,global,reloc=2,class=CODE,delta=1
    25                           	psect	text12,global,reloc=2,class=CODE,delta=1,group=2
    26                           	psect	text13,global,reloc=2,class=CODE,delta=1,group=2
    27                           	psect	text14,global,reloc=2,class=CODE,delta=1,group=2
    28                           	psect	text15,global,reloc=2,class=CODE,delta=1,group=2
    29                           	psect	text16,global,reloc=2,class=CODE,delta=1,group=2
    30                           	psect	text17,global,reloc=2,class=CODE,delta=1
    31                           	psect	text18,global,reloc=2,class=CODE,delta=1
    32                           	psect	text19,global,reloc=2,class=CODE,delta=1,group=2
    33                           	psect	text20,global,reloc=2,class=CODE,delta=1,group=2
    34                           	psect	text21,global,reloc=2,class=CODE,delta=1,group=2
    35                           	psect	text22,global,reloc=2,class=CODE,delta=1
    36                           	psect	text23,global,reloc=2,class=CODE,delta=1
    37                           	psect	text24,global,reloc=2,class=CODE,delta=1
    38                           	psect	text25,global,reloc=2,class=CODE,delta=1
    39                           	psect	text26,global,reloc=2,class=CODE,delta=1
    40                           	psect	text27,global,reloc=2,class=CODE,delta=1
    41                           	psect	text28,global,reloc=2,class=CODE,delta=1
    42                           	psect	text29,global,reloc=2,class=CODE,delta=1
    43                           	psect	text30,global,reloc=2,class=CODE,delta=1
    44                           	psect	text31,global,reloc=2,class=CODE,delta=1
    45                           	psect	text32,global,reloc=2,class=CODE,delta=1
    46                           	psect	text33,global,reloc=2,class=CODE,delta=1
    47                           	psect	text34,global,reloc=2,class=CODE,delta=1
    48                           	psect	text35,global,reloc=2,class=CODE,delta=1
    49                           	psect	text36,global,reloc=2,class=CODE,delta=1
    50                           	psect	text37,global,reloc=2,class=CODE,delta=1
    51                           	psect	text38,global,reloc=2,class=CODE,delta=1
    52                           	psect	text39,global,reloc=2,class=CODE,delta=1
    53                           	psect	text40,global,reloc=2,class=CODE,delta=1
    54                           	psect	intcode,global,reloc=2,class=CODE,delta=1
    55                           	psect	text42,global,reloc=2,class=CODE,delta=1
    56                           	psect	text43,global,reloc=2,class=CODE,delta=1
    57                           	psect	text44,global,reloc=2,class=CODE,delta=1
    58                           	psect	text45,global,reloc=2,class=CODE,delta=1
    59                           	psect	text46,global,reloc=2,class=CODE,delta=1
    60                           	psect	text47,global,reloc=2,class=CODE,delta=1
    61                           	psect	intsave_regs,global,class=BIGRAM,space=1,delta=1,noexec
    62                           	psect	text48,global,reloc=2,class=CODE,delta=1
    63                           	psect	rparam,global,class=COMRAM,space=1,delta=1,noexec
    64                           	psect	temp,global,ovrld,common,class=COMRAM,space=1,delta=1
    65                           	psect	idloc,global,abs,ovrld,class=IDLOC,space=5,delta=1,noexec
    66                           	psect	config,global,abs,ovrld,class=CONFIG,space=4,delta=1,noexec
    67   000000                     
    68                           ; Version 2.35
    69                           ; Generated 05/05/2021 GMT
    70                           ; 
    71                           ; Copyright © 2021, Microchip Technology Inc. and its subsidiaries ("Microchip")
    72                           ; All rights reserved.
    73                           ; 
    74                           ; This software is developed by Microchip Technology Inc. and its subsidiaries ("Microch
      +                          ip").
    75                           ; 
    76                           ; Redistribution and use in source and binary forms, with or without modification, are
    77                           ; permitted provided that the following conditions are met:
    78                           ; 
    79                           ;     1. Redistributions of source code must retain the above copyright notice, this lis
      +                          t of
    80                           ;        conditions and the following disclaimer.
    81                           ; 
    82                           ;     2. Redistributions in binary form must reproduce the above copyright notice, this 
      +                          list
    83                           ;        of conditions and the following disclaimer in the documentation and/or other
    84                           ;        materials provided with the distribution. Publication is not required when
    85                           ;        this file is used in an embedded application.
    86                           ; 
    87                           ;     3. Microchip's name may not be used to endorse or promote products derived from th
      +                          is
    88                           ;        software without specific prior written permission.
    89                           ; 
    90                           ; THIS SOFTWARE IS PROVIDED BY MICROCHIP "AS IS" AND ANY EXPRESS OR IMPLIED WARRANTIES,
    91                           ; INCLUDING, BUT NOT LIMITED TO, THE IMPLIED WARRANTIES OF MERCHANTABILITY AND FITNESS F
      +                          OR
    92                           ; PURPOSE ARE DISCLAIMED.  IN NO EVENT SHALL MICROCHIP BE LIABLE FOR ANY DIRECT, INDIREC
      +                          T,
    93                           ; INCIDENTAL, SPECIAL, EXEMPLARY, OR CONSEQUENTIAL DAMAGES (INCLUDING BUT NOT LIMITED TO
    94                           ; PROCUREMENT OF SUBSTITUTE GOODS OR SERVICES; LOSS OF USE, DATA OR PROFITS; OR BUSINESS
    95                           ; INTERRUPTION) HOWSOEVER CAUSED AND ON ANY THEORY OF LIABILITY, WHETHER IN CONTRACT, ST
      +                          RICT
    96                           ; LIABILITY, OR TORT (INCLUDING NEGLIGENCE OR OTHERWISE) ARISING IN ANY WAY OUT OF THE U
      +                          SE OF
    97                           ; THIS SOFTWARE, EVEN IF ADVISED OF THE POSSIBILITY OF SUCH DAMAGE.
    98                           ; 
    99                           ; 
   100                           ; Code-generator required, PIC18F25K80 Definitions
   101                           ; 
   102                           ; SFR Addresses
   103   000000                     
   104 ;; Function _EUSART1_DefaultFramingErrorHandler is unused but had its address taken
   105   000000                     
   106 ;; Function _EUSART1_DefaultOverrunErrorHandler is unused but had its address taken
   107   000000                     
   108 ;; Function _EUSART1_DefaultErrorHandler is unused but had its address taken
   109   000000                     _CCPR1L	set	4028
   110   000000                     _CCPR1H	set	4029
   111   000000                     _ADRESL	set	4035
   112   000000                     _ADRESH	set	4036
   113   000000                     _TXREG1	set	4013
   114   000000                     _RCREG1	set	4014
   115   000000                     _SPBRG1	set	4015
   116   000000                     _TXSTA1	set	4012
   117   000000                     _COMSTATbits	set	3953
   118   000000                     _RXB1SIDH	set	3889
   119   000000                     _RXB1SIDL	set	3890
   120   000000                     _RXB0D7	set	3949
   121   000000                     _RXB0D6	set	3948
   122   000000                     _RXB0D5	set	3947
   123   000000                     _RXB0D4	set	3946
   124   000000                     _RXB0D3	set	3945
   125   000000                     _RXB0D2	set	3944
   126   000000                     _RXB0D1	set	3943
   127   000000                     _RXB0D0	set	3942
   128   000000                     _RXB0DLC	set	3941
   129   000000                     _RXB0SIDH	set	3937
   130   000000                     _RXB0EIDL	set	3940
   131   000000                     _RXB0EIDH	set	3939
   132   000000                     _RXB0SIDL	set	3938
   133   000000                     _TXB2SIDL	set	3842
   134   000000                     _TXB2SIDH	set	3841
   135   000000                     _TXB2EIDH	set	3843
   136   000000                     _TXB2CONbits	set	3840
   137   000000                     _TXB1SIDL	set	3858
   138   000000                     _TXB1SIDH	set	3857
   139   000000                     _TXB1EIDH	set	3859
   140   000000                     _TXB1CONbits	set	3856
   141   000000                     _TXB0SIDL	set	3874
   142   000000                     _TXB0SIDH	set	3873
   143   000000                     _TXB0EIDH	set	3875
   144   000000                     _TXB0CONbits	set	3872
   145   000000                     _RXF5SIDL	set	3829
   146   000000                     _RXF5SIDH	set	3828
   147   000000                     _RXF5EIDL	set	3831
   148   000000                     _RXF5EIDH	set	3830
   149   000000                     _RXF4SIDL	set	3825
   150   000000                     _RXF4SIDH	set	3824
   151   000000                     _RXF4EIDL	set	3827
   152   000000                     _RXF4EIDH	set	3826
   153   000000                     _RXF3SIDL	set	3821
   154   000000                     _RXF3SIDH	set	3820
   155   000000                     _RXF3EIDL	set	3823
   156   000000                     _RXF3EIDH	set	3822
   157   000000                     _RXF2SIDL	set	3817
   158   000000                     _RXF2SIDH	set	3816
   159   000000                     _RXF2EIDL	set	3819
   160   000000                     _RXF2EIDH	set	3818
   161   000000                     _RXF1SIDL	set	3813
   162   000000                     _RXF1SIDH	set	3812
   163   000000                     _RXF1EIDL	set	3815
   164   000000                     _RXF1EIDH	set	3814
   165   000000                     _RXF0SIDL	set	3809
   166   000000                     _RXF0EIDL	set	3811
   167   000000                     _RXM1SIDL	set	3837
   168   000000                     _RXM1SIDH	set	3836
   169   000000                     _RXM1EIDL	set	3839
   170   000000                     _RXM1EIDH	set	3838
   171   000000                     _RXM0SIDL	set	3833
   172   000000                     _RXM0EIDL	set	3835
   173   000000                     _CIOCON	set	3952
   174   000000                     _ECANCON	set	3954
   175                           
   176                           	psect	nvCOMRAM
   177   000056                     __pnvCOMRAM:
   178                           	callstack 0
   179   000056                     _timer0ReloadVal:
   180                           	callstack 0
   181   000056                     	ds	1
   182                           
   183                           	psect	nvBANK0
   184   0000B8                     __pnvBANK0:
   185                           	callstack 0
   186   0000B8                     _TMR0_InterruptHandler:
   187                           	callstack 0
   188   0000B8                     	ds	2
   189   0000BA                     _EUSART1_ErrorHandler:
   190                           	callstack 0
   191   0000BA                     	ds	2
   192   0000BC                     _EUSART1_OverrunErrorHandler:
   193                           	callstack 0
   194   0000BC                     	ds	2
   195   0000BE                     _EUSART1_FramingErrorHandler:
   196                           	callstack 0
   197   0000BE                     	ds	2
   198   000000                     _LATBbits	set	3978
   199   000000                     _ADCON0bits	set	4034
   200   000000                     _T0CONbits	set	4053
   201   000000                     _RCSTA1bits	set	4011
   202   000000                     _TXSTA1bits	set	4012
   203   000000                     _BRGCON1	set	3651
   204   000000                     _RXF0SIDH	set	3808
   205   000000                     _RXF0EIDH	set	3810
   206   000000                     _RXM0SIDH	set	3832
   207   000000                     _RXM0EIDH	set	3834
   208   000000                     _CANSTAT	set	3950
   209   000000                     _CANCON	set	3951
   210   000000                     _PIE5bits	set	3958
   211   000000                     _PIR5bits	set	3959
   212   000000                     _BRGCON3	set	3653
   213   000000                     _BRGCON2	set	3652
   214   000000                     _SPBRGH1	set	3965
   215   000000                     _REFOCON	set	3994
   216   000000                     _OSCTUNE	set	3995
   217   000000                     _OSCCON2	set	4050
   218   000000                     _OSCCON	set	4051
   219   000000                     _RXB1CONbits	set	3888
   220   000000                     _RXB0CONbits	set	3936
   221   000000                     _TXB0D7	set	3885
   222   000000                     _TXB0D6	set	3884
   223   000000                     _TXB0D5	set	3883
   224   000000                     _TXB0D4	set	3882
   225   000000                     _TXB0D3	set	3881
   226   000000                     _TXB0D2	set	3880
   227   000000                     _TXB0D1	set	3879
   228   000000                     _TXB0D0	set	3878
   229   000000                     _TXB0DLC	set	3877
   230   000000                     _TXB0EIDL	set	3876
   231   000000                     _TXB1D7	set	3869
   232   000000                     _TXB1D6	set	3868
   233   000000                     _TXB1D5	set	3867
   234   000000                     _TXB1D4	set	3866
   235   000000                     _TXB1D3	set	3865
   236   000000                     _TXB1D2	set	3864
   237   000000                     _TXB1D1	set	3863
   238   000000                     _TXB1D0	set	3862
   239   000000                     _TXB1DLC	set	3861
   240   000000                     _TXB1EIDL	set	3860
   241   000000                     _TXB2D7	set	3853
   242   000000                     _TXB2D6	set	3852
   243   000000                     _TXB2D5	set	3851
   244   000000                     _TXB2D4	set	3850
   245   000000                     _TXB2D3	set	3849
   246   000000                     _TXB2D2	set	3848
   247   000000                     _TXB2D1	set	3847
   248   000000                     _TXB2D0	set	3846
   249   000000                     _TXB2DLC	set	3845
   250   000000                     _TXB2EIDL	set	3844
   251   000000                     _WPUB	set	3931
   252   000000                     _ANCON1	set	3932
   253   000000                     _ANCON0	set	3933
   254   000000                     _RXB1D7	set	3901
   255   000000                     _RXB1D6	set	3900
   256   000000                     _RXB1D5	set	3899
   257   000000                     _RXB1D4	set	3898
   258   000000                     _RXB1D3	set	3897
   259   000000                     _RXB1D2	set	3896
   260   000000                     _RXB1D1	set	3895
   261   000000                     _RXB1D0	set	3894
   262   000000                     _RXB1DLC	set	3893
   263   000000                     _RXB1EIDL	set	3892
   264   000000                     _RXB1EIDH	set	3891
   265   000000                     _T0CON	set	4053
   266   000000                     _TMR0L	set	4054
   267   000000                     _TMR0H	set	4055
   268   000000                     _INTCON2bits	set	4081
   269   000000                     _PIR1bits	set	3998
   270   000000                     _BAUDCON1	set	4007
   271   000000                     _RCSTA1	set	4011
   272   000000                     _CCP1CON	set	4027
   273   000000                     _ADCON2	set	4032
   274   000000                     _ADCON1	set	4033
   275   000000                     _ADCON0	set	4034
   276   000000                     _RCONbits	set	4048
   277   000000                     _LATA	set	3977
   278   000000                     _TRISA	set	3986
   279   000000                     _LATC	set	3979
   280   000000                     _LATB	set	3978
   281   000000                     _TRISC	set	3988
   282   000000                     _TRISB	set	3987
   283   000000                     _INTCONbits	set	4082
   284                           
   285                           	psect	smallconst
   286   001000                     __psmallconst:
   287                           	callstack 0
   288   001000  00                 	db	0
   289   001001                     STR_1:
   290   001001  53                 	db	83	;'S'
   291   001002  59                 	db	89	;'Y'
   292   001003  53                 	db	83	;'S'
   293   001004  54                 	db	84	;'T'
   294   001005  45                 	db	69	;'E'
   295   001006  4D                 	db	77	;'M'
   296   001007  45                 	db	69	;'E'
   297   001008  20                 	db	32
   298   001009  4F                 	db	79	;'O'
   299   00100A  4E                 	db	78	;'N'
   300   00100B  00                 	db	0
   301   00100C                     STR_2:
   302   00100C  42                 	db	66	;'B'
   303   00100D  55                 	db	85	;'U'
   304   00100E  53                 	db	83	;'S'
   305   00100F  20                 	db	32
   306   001010  4F                 	db	79	;'O'
   307   001011  46                 	db	70	;'F'
   308   001012  46                 	db	70	;'F'
   309   001013  00                 	db	0
   310   001014  00                 	db	0	; dummy byte at the end
   311   000000                     
   312                           ; #config settings
   313                           
   314                           	psect	cinit
   315   003116                     __pcinit:
   316                           	callstack 0
   317   003116                     start_initialization:
   318                           	callstack 0
   319   003116                     __initialization:
   320                           	callstack 0
   321                           
   322                           ; Clear objects allocated to BANK0 (88 bytes)
   323   003116  EE00  F060         	lfsr	0,__pbssBANK0
   324   00311A  0E58               	movlw	88
   325   00311C                     clear_0:
   326   00311C  6AEE               	clrf	postinc0,c
   327   00311E  06E8               	decf	wreg,f,c
   328   003120  E1FD               	bnz	clear_0
   329                           
   330                           ; Clear objects allocated to COMRAM (15 bytes)
   331   003122  EE00  F047         	lfsr	0,__pbssCOMRAM
   332   003126  0E0F               	movlw	15
   333   003128                     clear_1:
   334   003128  6AEE               	clrf	postinc0,c
   335   00312A  06E8               	decf	wreg,f,c
   336   00312C  E1FD               	bnz	clear_1
   337   00312E                     end_of_initialization:
   338                           	callstack 0
   339   00312E                     __end_of__initialization:
   340                           	callstack 0
   341   00312E  9057               	bcf	int$flags,0,c	;clear compiler interrupt flag (level 1)
   342   003130  9257               	bcf	int$flags,1,c	;clear compiler interrupt flag (level 2)
   343   003132  0E00               	movlw	low (__Lmediumconst shr (0+16))
   344   003134  6EF8               	movwf	tblptru,c
   345   003136  0100               	movlb	0
   346   003138  EF93  F012         	goto	_main	;jump to C main() function
   347                           
   348                           	psect	bssCOMRAM
   349   000047                     __pbssCOMRAM:
   350                           	callstack 0
   351   000047                     _fvariation:
   352                           	callstack 0
   353   000047                     	ds	4
   354   00004B                     _itemps:
   355                           	callstack 0
   356   00004B                     	ds	2
   357   00004D                     _uT_consigne_CAN:
   358                           	callstack 0
   359   00004D                     	ds	2
   360   00004F                     _uT_vehicule_CAN:
   361                           	callstack 0
   362   00004F                     	ds	2
   363   000051                     TMR0_ISR@CountCallBack:
   364                           	callstack 0
   365   000051                     	ds	2
   366   000053                     _flags:
   367                           	callstack 0
   368   000053                     	ds	1
   369   000054                     _statue:
   370                           	callstack 0
   371   000054                     	ds	1
   372   000055                     _eusart1RxLastError:
   373                           	callstack 0
   374   000055                     	ds	1
   375                           
   376                           	psect	bssBANK0
   377   000060                     __pbssBANK0:
   378                           	callstack 0
   379   000060                     	ds	32
   380   000080                     _udemarrage:
   381                           	callstack 0
   382   000080                     	ds	8
   383   000088                     _fT_consigne:
   384                           	callstack 0
   385   000088                     	ds	4
   386   00008C                     _fT_vehicule:
   387                           	callstack 0
   388   00008C                     	ds	4
   389   000090                     _width:
   390                           	callstack 0
   391   000090                     	ds	2
   392   000092                     _prec:
   393                           	callstack 0
   394   000092                     	ds	2
   395   000094                     _uT_consigne_ADC:
   396                           	callstack 0
   397   000094                     	ds	2
   398   000096                     _uT_vehicule_ADC:
   399                           	callstack 0
   400   000096                     	ds	2
   401   000098                     _ADC_InterruptHandler:
   402                           	callstack 0
   403   000098                     	ds	2
   404   00009A                     _WakeUpInterruptHandler:
   405                           	callstack 0
   406   00009A                     	ds	2
   407   00009C                     _rxMessage:
   408                           	callstack 0
   409   00009C                     	ds	14
   410   0000AA                     _txMessage:
   411                           	callstack 0
   412   0000AA                     	ds	14
   413                           
   414                           	psect	cstackBANK0
   415   0000C0                     __pcstackBANK0:
   416                           	callstack 0
   417   0000C0                     temperature@ftemperature:
   418                           	callstack 0
   419                           
   420                           ; 4 bytes @ 0x0
   421   0000C0                     	ds	4
   422   0000C4                     temperature@fcelsius:
   423                           	callstack 0
   424                           
   425                           ; 4 bytes @ 0x4
   426   0000C4                     	ds	4
   427                           
   428                           	psect	cstackCOMRAM
   429   000001                     __pcstackCOMRAM:
   430                           	callstack 0
   431   000001                     ??_INTERRUPT_InterruptManager:
   432   000001                     
   433                           ; 1 bytes @ 0x0
   434   000001                     	ds	2
   435   000003                     ?_ADC_GetConversion:
   436                           	callstack 0
   437   000003                     ?___wmul:
   438                           	callstack 0
   439   000003                     ?_convertReg2ExtendedCANid:
   440                           	callstack 0
   441   000003                     ?_convertReg2StandardCANid:
   442                           	callstack 0
   443   000003                     ?___fladd:
   444                           	callstack 0
   445   000003                     ?___fltol:
   446                           	callstack 0
   447   000003                     ?___xxtofl:
   448                           	callstack 0
   449   000003                     CAN_messagesInBuffer@messageCount:
   450                           	callstack 0
   451   000003                     convertReg2ExtendedCANid@tempRXBn_EIDL:
   452                           	callstack 0
   453   000003                     convertReg2StandardCANid@tempRXBn_SIDL:
   454                           	callstack 0
   455   000003                     EUSART1_Write@txData:
   456                           	callstack 0
   457   000003                     ECAN_SetWakeUpInterruptHandler@handler:
   458                           	callstack 0
   459   000003                     EUSART1_SetFramingErrorHandler@interruptHandler:
   460                           	callstack 0
   461   000003                     EUSART1_SetOverrunErrorHandler@interruptHandler:
   462                           	callstack 0
   463   000003                     EUSART1_SetErrorHandler@interruptHandler:
   464                           	callstack 0
   465   000003                     TMR0_SetInterruptHandler@InterruptHandler:
   466                           	callstack 0
   467   000003                     ___wmul@multiplier:
   468                           	callstack 0
   469   000003                     convertCANid2Reg@tempPassedInID:
   470                           	callstack 0
   471   000003                     ___flge@ff1:
   472                           	callstack 0
   473   000003                     ___fltol@f1:
   474                           	callstack 0
   475   000003                     ___fladd@b:
   476                           	callstack 0
   477   000003                     ___xxtofl@val:
   478                           	callstack 0
   479                           
   480                           ; 4 bytes @ 0x2
   481   000003                     	ds	1
   482   000004                     convertReg2ExtendedCANid@tempRXBn_SIDH:
   483                           	callstack 0
   484   000004                     putch@txData:
   485                           	callstack 0
   486                           
   487                           ; 1 bytes @ 0x3
   488   000004                     	ds	1
   489   000005                     ??_ECAN_Initialize:
   490   000005                     ??_ADC_GetConversion:
   491   000005                     convertReg2ExtendedCANid@tempRXBn_SIDL:
   492                           	callstack 0
   493   000005                     ___wmul@multiplicand:
   494                           	callstack 0
   495   000005                     fputc@c:
   496                           	callstack 0
   497                           
   498                           ; 2 bytes @ 0x4
   499   000005                     	ds	1
   500   000006                     
   501                           ; 1 bytes @ 0x5
   502   000006                     	ds	1
   503   000007                     ??_convertReg2ExtendedCANid:
   504   000007                     ??_convertReg2StandardCANid:
   505   000007                     ??___fltol:
   506   000007                     ??___xxtofl:
   507   000007                     convertCANid2Reg@canIdType:
   508                           	callstack 0
   509   000007                     ADC_GetConversion@channel:
   510                           	callstack 0
   511   000007                     ___wmul@product:
   512                           	callstack 0
   513   000007                     fputc@fp:
   514                           	callstack 0
   515   000007                     ___flge@ff2:
   516                           	callstack 0
   517   000007                     ___fladd@a:
   518                           	callstack 0
   519                           
   520                           ; 4 bytes @ 0x6
   521   000007                     	ds	1
   522   000008                     convertCANid2Reg@passedInEIDH:
   523                           	callstack 0
   524                           
   525                           ; 2 bytes @ 0x7
   526   000008                     	ds	1
   527   000009                     ??_fputc:
   528   000009                     convertReg2StandardCANid@tempRXBn_SIDH:
   529                           	callstack 0
   530                           
   531                           ; 1 bytes @ 0x8
   532   000009                     	ds	1
   533   00000A                     convertCANid2Reg@passedInEIDL:
   534                           	callstack 0
   535   00000A                     convertReg2StandardCANid@returnValue:
   536                           	callstack 0
   537                           
   538                           ; 4 bytes @ 0x9
   539   00000A                     	ds	1
   540   00000B                     ??___fladd:
   541   00000B                     ??___flge:
   542   00000B                     convertReg2ExtendedCANid@tempRXBn_EIDH:
   543                           	callstack 0
   544   00000B                     ___fltol@sign1:
   545                           	callstack 0
   546   00000B                     ___xxtofl@sign:
   547                           	callstack 0
   548                           
   549                           ; 1 bytes @ 0xA
   550   00000B                     	ds	1
   551   00000C                     ___fltol@exp1:
   552                           	callstack 0
   553   00000C                     ___xxtofl@exp:
   554                           	callstack 0
   555   00000C                     convertCANid2Reg@passedInSIDH:
   556                           	callstack 0
   557   00000C                     convertReg2ExtendedCANid@returnValue:
   558                           	callstack 0
   559                           
   560                           ; 4 bytes @ 0xB
   561   00000C                     	ds	1
   562   00000D                     ___xxtofl@arg:
   563                           	callstack 0
   564                           
   565                           ; 4 bytes @ 0xC
   566   00000D                     	ds	1
   567   00000E                     convertCANid2Reg@passedInSIDL:
   568                           	callstack 0
   569   00000E                     vfpfcnvrt@fp:
   570                           	callstack 0
   571   00000E                     convertReg2StandardCANid@ConvertedID:
   572                           	callstack 0
   573                           
   574                           ; 4 bytes @ 0xD
   575   00000E                     	ds	1
   576   00000F                     ___fladd@signs:
   577                           	callstack 0
   578                           
   579                           ; 1 bytes @ 0xE
   580   00000F                     	ds	1
   581   000010                     ??_convertCANid2Reg:
   582   000010                     convertReg2ExtendedCANid@CAN_standardLo_ID_lo2bits:
   583                           	callstack 0
   584   000010                     ___fladd@aexp:
   585                           	callstack 0
   586   000010                     vfpfcnvrt@fmt:
   587                           	callstack 0
   588                           
   589                           ; 2 bytes @ 0xF
   590   000010                     	ds	1
   591   000011                     ?___fldiv:
   592                           	callstack 0
   593   000011                     convertReg2ExtendedCANid@CAN_standardLo_ID_hi3bits:
   594                           	callstack 0
   595   000011                     ___fladd@bexp:
   596                           	callstack 0
   597   000011                     ___fldiv@b:
   598                           	callstack 0
   599                           
   600                           ; 4 bytes @ 0x10
   601   000011                     	ds	1
   602   000012                     ___fladd@grs:
   603                           	callstack 0
   604   000012                     vfpfcnvrt@ap:
   605                           	callstack 0
   606   000012                     convertReg2ExtendedCANid@ConvertedID:
   607                           	callstack 0
   608                           
   609                           ; 4 bytes @ 0x11
   610   000012                     	ds	1
   611   000013                     ?___flsub:
   612                           	callstack 0
   613   000013                     ___flsub@b:
   614                           	callstack 0
   615                           
   616                           ; 4 bytes @ 0x12
   617   000013                     	ds	1
   618   000014                     ?_vfprintf:
   619                           	callstack 0
   620   000014                     convertCANid2Reg@wipSIDL:
   621                           	callstack 0
   622   000014                     vfprintf@fp:
   623                           	callstack 0
   624                           
   625                           ; 2 bytes @ 0x13
   626   000014                     	ds	1
   627   000015                     CAN_transmit@tempCanMsg:
   628                           	callstack 0
   629   000015                     ___fldiv@a:
   630                           	callstack 0
   631                           
   632                           ; 4 bytes @ 0x14
   633   000015                     	ds	1
   634   000016                     CAN_receive@tempCanMsg:
   635                           	callstack 0
   636   000016                     vfprintf@fmt:
   637                           	callstack 0
   638                           
   639                           ; 2 bytes @ 0x15
   640   000016                     	ds	1
   641   000017                     CAN_transmit@tempEIDH:
   642                           	callstack 0
   643   000017                     ___flsub@a:
   644                           	callstack 0
   645                           
   646                           ; 4 bytes @ 0x16
   647   000017                     	ds	1
   648   000018                     CAN_transmit@tempEIDL:
   649                           	callstack 0
   650   000018                     vfprintf@ap:
   651                           	callstack 0
   652                           
   653                           ; 2 bytes @ 0x17
   654   000018                     	ds	1
   655   000019                     ??___fldiv:
   656   000019                     CAN_transmit@tempSIDH:
   657                           	callstack 0
   658                           
   659                           ; 1 bytes @ 0x18
   660   000019                     	ds	1
   661   00001A                     CAN_transmit@tempSIDL:
   662                           	callstack 0
   663   00001A                     vfprintf@cfmt:
   664                           	callstack 0
   665                           
   666                           ; 2 bytes @ 0x19
   667   00001A                     	ds	1
   668   00001B                     
   669                           ; 1 bytes @ 0x1A
   670   00001B                     	ds	1
   671   00001C                     ?_printf:
   672                           	callstack 0
   673   00001C                     printf@fmt:
   674                           	callstack 0
   675                           
   676                           ; 2 bytes @ 0x1B
   677   00001C                     	ds	1
   678   00001D                     ___fldiv@rem:
   679                           	callstack 0
   680                           
   681                           ; 4 bytes @ 0x1C
   682   00001D                     	ds	1
   683   00001E                     printf@ap:
   684                           	callstack 0
   685                           
   686                           ; 2 bytes @ 0x1D
   687   00001E                     	ds	3
   688   000021                     ___fldiv@sign:
   689                           	callstack 0
   690                           
   691                           ; 1 bytes @ 0x20
   692   000021                     	ds	1
   693   000022                     ___fldiv@new_exp:
   694                           	callstack 0
   695                           
   696                           ; 2 bytes @ 0x21
   697   000022                     	ds	2
   698   000024                     ___fldiv@grs:
   699                           	callstack 0
   700                           
   701                           ; 4 bytes @ 0x23
   702   000024                     	ds	4
   703   000028                     ___fldiv@bexp:
   704                           	callstack 0
   705                           
   706                           ; 1 bytes @ 0x27
   707   000028                     	ds	1
   708   000029                     ___fldiv@aexp:
   709                           	callstack 0
   710                           
   711                           ; 1 bytes @ 0x28
   712   000029                     	ds	1
   713   00002A                     ?___flmul:
   714                           	callstack 0
   715   00002A                     ___flmul@b:
   716                           	callstack 0
   717                           
   718                           ; 4 bytes @ 0x29
   719   00002A                     	ds	4
   720   00002E                     ___flmul@a:
   721                           	callstack 0
   722                           
   723                           ; 4 bytes @ 0x2D
   724   00002E                     	ds	4
   725   000032                     ??___flmul:
   726                           
   727                           ; 1 bytes @ 0x31
   728   000032                     	ds	4
   729   000036                     ___flmul@sign:
   730                           	callstack 0
   731                           
   732                           ; 1 bytes @ 0x35
   733   000036                     	ds	1
   734   000037                     ___flmul@aexp:
   735                           	callstack 0
   736                           
   737                           ; 1 bytes @ 0x36
   738   000037                     	ds	1
   739   000038                     ___flmul@grs:
   740                           	callstack 0
   741                           
   742                           ; 4 bytes @ 0x37
   743   000038                     	ds	4
   744   00003C                     ___flmul@bexp:
   745                           	callstack 0
   746                           
   747                           ; 1 bytes @ 0x3B
   748   00003C                     	ds	1
   749   00003D                     ___flmul@prod:
   750                           	callstack 0
   751                           
   752                           ; 4 bytes @ 0x3C
   753   00003D                     	ds	4
   754   000041                     ___flmul@temp:
   755                           	callstack 0
   756                           
   757                           ; 2 bytes @ 0x40
   758   000041                     	ds	2
   759   000043                     ?_temperature:
   760                           	callstack 0
   761   000043                     temperature@uibrute:
   762                           	callstack 0
   763                           
   764                           ; 2 bytes @ 0x42
   765   000043                     	ds	4
   766   000047                     
   767                           ; 1 bytes @ 0x46
   768 ;;
   769 ;;Main: autosize = 0, tempsize = 0, incstack = 0, save=0
   770 ;;
   771 ;; *************** function _main *****************
   772 ;; Defined at:
   773 ;;		line 58 in file "main.c"
   774 ;; Parameters:    Size  Location     Type
   775 ;;		None
   776 ;; Auto vars:     Size  Location     Type
   777 ;;  statue          1    0        enum E12624
   778 ;;  statue          1    0        enum E12624
   779 ;;  statue          1    0        enum E12624
   780 ;; Return value:  Size  Location     Type
   781 ;;                  1    wreg      void 
   782 ;; Registers used:
   783 ;;		wreg, fsr1l, fsr1h, fsr2l, fsr2h, status,2, status,0, tblptrl, tblptrh, tblptru, prodl, prodh, cstack
   784 ;; Tracked objects:
   785 ;;		On entry : 0/0
   786 ;;		On exit  : 0/0
   787 ;;		Unchanged: 0/0
   788 ;; Data sizes:     COMRAM   BANK0   BANK1   BANK2   BANK3   BANK4   BANK5   BANK6   BANK7   BANK8   BANK9  BANK10  BANK1
      +1  BANK12  BANK13  BANK14
   789 ;;      Params:         0       0       0       0       0       0       0       0       0       0       0       0       
      +0       0       0       0
   790 ;;      Locals:         0       0       0       0       0       0       0       0       0       0       0       0       
      +0       0       0       0
   791 ;;      Temps:          0       0       0       0       0       0       0       0       0       0       0       0       
      +0       0       0       0
   792 ;;      Totals:         0       0       0       0       0       0       0       0       0       0       0       0       
      +0       0       0       0
   793 ;;Total ram usage:        0 bytes
   794 ;; Hardware stack levels required when called: 10
   795 ;; This function calls:
   796 ;;		_CAN_messagesInBuffer
   797 ;;		_CAN_transmit
   798 ;;		_LCD
   799 ;;		_SYSTEM_Initialize
   800 ;;		_TMR0_Initialize
   801 ;;		_TMR0_SetInterruptHandler
   802 ;;		_controle_seuil
   803 ;;		_mesure
   804 ;;		_printf
   805 ;;		_reception
   806 ;; This function is called by:
   807 ;;		Startup code after reset
   808 ;; This function uses a non-reentrant model
   809 ;;
   810                           
   811                           	psect	text0
   812   002526                     __ptext0:
   813                           	callstack 0
   814   002526                     _main:
   815                           	callstack 21
   816   002526                     
   817                           ;main.c: 59:     SYSTEM_Initialize();
   818   002526  ECC4  F018         	call	_SYSTEM_Initialize	;wreg free
   819                           
   820                           ;main.c: 60:     TMR0_Initialize();
   821   00252A  ECD5  F018         	call	_TMR0_Initialize	;wreg free
   822   00252E                     
   823                           ;main.c: 61:     (INTCONbits.GIE = 1);
   824   00252E  8EF2               	bsf	242,7,c	;volatile
   825   002530                     
   826                           ;main.c: 63:     (INTCONbits.PEIE = 1);
   827   002530  8CF2               	bsf	242,6,c	;volatile
   828                           
   829                           ;main.c: 65:     TMR0_SetInterruptHandler(interruption);
   830   002532  0E74               	movlw	low _interruption
   831   002534  6E03               	movwf	TMR0_SetInterruptHandler@InterruptHandler^0,c
   832   002536  0E32               	movlw	high _interruption
   833   002538  6E04               	movwf	(TMR0_SetInterruptHandler@InterruptHandler+1)^0,c
   834   00253A  EC21  F019         	call	_TMR0_SetInterruptHandler	;wreg free
   835   00253E                     
   836                           ;main.c: 67:     LCD();
   837   00253E  EC4B  F018         	call	_LCD	;wreg free
   838   002542                     
   839                           ;main.c: 70:     RXM0SIDH = 0xF9;
   840   002542  0EF9               	movlw	249
   841   002544  010E               	movlb	14	; () banked
   842   002546  6FF8               	movwf	248,b	;volatile
   843   002548                     
   844                           ; BSR set to: 14
   845                           ;main.c: 71:     RXM0SIDL = 0xE3;
   846   002548  0EE3               	movlw	227
   847   00254A  6FF9               	movwf	249,b	;volatile
   848   00254C                     
   849                           ; BSR set to: 14
   850                           ;main.c: 72:     RXF0SIDH = 0x04;
   851   00254C  0E04               	movlw	4
   852   00254E  6FE0               	movwf	224,b	;volatile
   853   002550                     
   854                           ; BSR set to: 14
   855                           ;main.c: 73:     RXF0SIDL = 0x20;
   856   002550  0E20               	movlw	32
   857   002552  6FE1               	movwf	225,b	;volatile
   858   002554                     
   859                           ; BSR set to: 14
   860                           ;main.c: 74:     printf("SYSTEME ON");
   861   002554  0E01               	movlw	low STR_1
   862   002556  6E1C               	movwf	printf@fmt^0,c
   863   002558  0E10               	movlw	high STR_1
   864   00255A  6E1D               	movwf	(printf@fmt+1)^0,c
   865   00255C  EC9E  F018         	call	_printf	;wreg free
   866   002560                     
   867                           ;main.c: 75:     reception();
   868   002560  EC66  F017         	call	_reception	;wreg free
   869   002564                     l4418:
   870                           
   871                           ;main.c: 77:         reception();
   872   002564  EC66  F017         	call	_reception	;wreg free
   873   002568                     
   874                           ;main.c: 78:         if (udemarrage[1] == 0)
   875   002568  0100               	movlb	0	; () banked
   876   00256A  5184               	movf	(_udemarrage+4)& (0+255),w,b
   877   00256C  1185               	iorwf	(_udemarrage+5)& (0+255),w,b
   878   00256E  1186               	iorwf	(_udemarrage+6)& (0+255),w,b
   879   002570  1187               	iorwf	(_udemarrage+7)& (0+255),w,b
   880   002572  A4D8               	btfss	status,2,c
   881   002574  EFBE  F012         	goto	u4021
   882   002578  EFC0  F012         	goto	u4020
   883   00257C                     u4021:
   884   00257C  EFCA  F012         	goto	l4428
   885   002580                     u4020:
   886   002580                     
   887                           ; BSR set to: 0
   888   002580  9C8A               	bcf	138,6,c	;volatile
   889   002582                     
   890                           ; BSR set to: 0
   891   002582  9E8A               	bcf	138,7,c	;volatile
   892   002584  EFCA  F012         	goto	l4428
   893   002588                     l4426:
   894                           
   895                           ;main.c: 85:             printf("BUS OFF");
   896   002588  0E0C               	movlw	low STR_2
   897   00258A  6E1C               	movwf	printf@fmt^0,c
   898   00258C  0E10               	movlw	high STR_2
   899   00258E  6E1D               	movwf	(printf@fmt+1)^0,c
   900   002590  EC9E  F018         	call	_printf	;wreg free
   901   002594                     l4428:
   902                           
   903                           ;main.c: 84:         while (CAN_messagesInBuffer() > 0){
   904   002594  EC76  F018         	call	_CAN_messagesInBuffer	;wreg free
   905   002598  0900               	iorlw	0
   906   00259A  A4D8               	btfss	status,2,c
   907   00259C  EFD2  F012         	goto	u4031
   908   0025A0  EFD4  F012         	goto	u4030
   909   0025A4                     u4031:
   910   0025A4  EFC4  F012         	goto	l4426
   911   0025A8                     u4030:
   912   0025A8                     
   913                           ;main.c: 87:         reception();
   914   0025A8  EC66  F017         	call	_reception	;wreg free
   915   0025AC                     
   916                           ;main.c: 88:         if (udemarrage[1] == 1){
   917   0025AC  0100               	movlb	0	; () banked
   918   0025AE  0584               	decf	(_udemarrage+4)& (0+255),w,b
   919   0025B0  1185               	iorwf	(_udemarrage+5)& (0+255),w,b
   920   0025B2  1186               	iorwf	(_udemarrage+6)& (0+255),w,b
   921   0025B4  1187               	iorwf	(_udemarrage+7)& (0+255),w,b
   922   0025B6  A4D8               	btfss	status,2,c
   923   0025B8  EFE0  F012         	goto	u4041
   924   0025BC  EFE2  F012         	goto	u4040
   925   0025C0                     u4041:
   926   0025C0  EFB2  F012         	goto	l4418
   927   0025C4                     u4040:
   928   0025C4                     
   929                           ; BSR set to: 0
   930                           ;main.c: 89:             mesure();
   931   0025C4  ECDC  F015         	call	_mesure	;wreg free
   932   0025C8                     
   933                           ;main.c: 90:             if(itemps == 4)
   934   0025C8  0E04               	movlw	4
   935   0025CA  184B               	xorwf	_itemps^0,w,c
   936   0025CC  104C               	iorwf	(_itemps+1)^0,w,c
   937   0025CE  A4D8               	btfss	status,2,c
   938   0025D0  EFEC  F012         	goto	u4051
   939   0025D4  EFEE  F012         	goto	u4050
   940   0025D8                     u4051:
   941   0025D8  EF03  F013         	goto	l4444
   942   0025DC                     u4050:
   943   0025DC                     
   944                           ;main.c: 91:             {;main.c: 92:             txMessage.frame.id = 0x41;
   945   0025DC  0E41               	movlw	65
   946   0025DE  0100               	movlb	0	; () banked
   947   0025E0  6FAB               	movwf	(_txMessage+1)& (0+255),b
   948   0025E2  0E00               	movlw	0
   949   0025E4  6FAC               	movwf	(_txMessage+2)& (0+255),b
   950   0025E6  0E00               	movlw	0
   951   0025E8  6FAD               	movwf	(_txMessage+3)& (0+255),b
   952   0025EA  0E00               	movlw	0
   953   0025EC  6FAE               	movwf	(_txMessage+4)& (0+255),b
   954                           
   955                           ;main.c: 93:             txMessage.frame.dlc = 2;
   956   0025EE  0E02               	movlw	2
   957   0025F0  6FAF               	movwf	(_txMessage+5)& (0+255),b
   958   0025F2                     
   959                           ; BSR set to: 0
   960                           ;main.c: 94:             txMessage.frame.data0 = (uint8_t)(uT_vehicule_CAN);
   961   0025F2  C04F  F0B0         	movff	_uT_vehicule_CAN,_txMessage+6
   962                           
   963                           ;main.c: 95:             txMessage.frame.data1 = (uint8_t)(uT_vehicule_CAN >>8);
   964   0025F6  5050               	movf	(_uT_vehicule_CAN+1)^0,w,c
   965   0025F8  6FB1               	movwf	(_txMessage+7)& (0+255),b
   966   0025FA                     
   967                           ; BSR set to: 0
   968                           ;main.c: 96:             CAN_transmit(&txMessage);
   969   0025FA  0EAA               	movlw	low _txMessage
   970   0025FC  6E15               	movwf	CAN_transmit@tempCanMsg^0,c
   971   0025FE  0E00               	movlw	high _txMessage
   972   002600  6E16               	movwf	(CAN_transmit@tempCanMsg+1)^0,c
   973   002602  EC4D  F00E         	call	_CAN_transmit	;wreg free
   974   002606                     l4444:
   975                           
   976                           ;main.c: 98:         if(itemps == 6)
   977   002606  0E06               	movlw	6
   978   002608  184B               	xorwf	_itemps^0,w,c
   979   00260A  104C               	iorwf	(_itemps+1)^0,w,c
   980   00260C  A4D8               	btfss	status,2,c
   981   00260E  EF0B  F013         	goto	u4061
   982   002612  EF0D  F013         	goto	u4060
   983   002616                     u4061:
   984   002616  EF22  F013         	goto	l4452
   985   00261A                     u4060:
   986   00261A                     
   987                           ;main.c: 99:             {;main.c: 100:             txMessage.frame.id = 0x42;
   988   00261A  0E42               	movlw	66
   989   00261C  0100               	movlb	0	; () banked
   990   00261E  6FAB               	movwf	(_txMessage+1)& (0+255),b
   991   002620  0E00               	movlw	0
   992   002622  6FAC               	movwf	(_txMessage+2)& (0+255),b
   993   002624  0E00               	movlw	0
   994   002626  6FAD               	movwf	(_txMessage+3)& (0+255),b
   995   002628  0E00               	movlw	0
   996   00262A  6FAE               	movwf	(_txMessage+4)& (0+255),b
   997                           
   998                           ;main.c: 101:             txMessage.frame.dlc = 2;
   999   00262C  0E02               	movlw	2
  1000   00262E  6FAF               	movwf	(_txMessage+5)& (0+255),b
  1001   002630                     
  1002                           ; BSR set to: 0
  1003                           ;main.c: 102:             txMessage.frame.data0 = (uint8_t)(uT_consigne_CAN);
  1004   002630  C04D  F0B0         	movff	_uT_consigne_CAN,_txMessage+6
  1005                           
  1006                           ;main.c: 103:             txMessage.frame.data1 = (uint8_t)(uT_consigne_CAN >> 8);
  1007   002634  504E               	movf	(_uT_consigne_CAN+1)^0,w,c
  1008   002636  6FB1               	movwf	(_txMessage+7)& (0+255),b
  1009   002638                     
  1010                           ; BSR set to: 0
  1011                           ;main.c: 104:             CAN_transmit(&txMessage);
  1012   002638  0EAA               	movlw	low _txMessage
  1013   00263A  6E15               	movwf	CAN_transmit@tempCanMsg^0,c
  1014   00263C  0E00               	movlw	high _txMessage
  1015   00263E  6E16               	movwf	(CAN_transmit@tempCanMsg+1)^0,c
  1016   002640  EC4D  F00E         	call	_CAN_transmit	;wreg free
  1017   002644                     l4452:
  1018                           
  1019                           ;main.c: 106:         if(itemps == 12)
  1020   002644  0E0C               	movlw	12
  1021   002646  184B               	xorwf	_itemps^0,w,c
  1022   002648  104C               	iorwf	(_itemps+1)^0,w,c
  1023   00264A  A4D8               	btfss	status,2,c
  1024   00264C  EF2A  F013         	goto	u4071
  1025   002650  EF2C  F013         	goto	u4070
  1026   002654                     u4071:
  1027   002654  EFB2  F012         	goto	l4418
  1028   002658                     u4070:
  1029   002658                     
  1030                           ;main.c: 107:         {;main.c: 108:             controle_seuil();
  1031   002658  ECE1  F013         	call	_controle_seuil	;wreg free
  1032   00265C                     
  1033                           ;main.c: 109:             itemps = 0;
  1034   00265C  0E00               	movlw	0
  1035   00265E  6E4C               	movwf	(_itemps+1)^0,c
  1036   002660  0E00               	movlw	0
  1037   002662  6E4B               	movwf	_itemps^0,c
  1038   002664                     
  1039                           ;main.c: 111:             if (udemarrage[1] == 0)
  1040   002664  0100               	movlb	0	; () banked
  1041   002666  5184               	movf	(_udemarrage+4)& (0+255),w,b
  1042   002668  1185               	iorwf	(_udemarrage+5)& (0+255),w,b
  1043   00266A  1186               	iorwf	(_udemarrage+6)& (0+255),w,b
  1044   00266C  1187               	iorwf	(_udemarrage+7)& (0+255),w,b
  1045   00266E  A4D8               	btfss	status,2,c
  1046   002670  EF3C  F013         	goto	u4081
  1047   002674  EF3E  F013         	goto	u4080
  1048   002678                     u4081:
  1049   002678  EFB2  F012         	goto	l4418
  1050   00267C                     u4080:
  1051   00267C                     
  1052                           ; BSR set to: 0
  1053   00267C  9C8A               	bcf	138,6,c	;volatile
  1054   00267E                     
  1055                           ; BSR set to: 0
  1056   00267E  9E8A               	bcf	138,7,c	;volatile
  1057   002680  EFB2  F012         	goto	l4418
  1058   002684  EF3A  F000         	goto	start
  1059   002688                     __end_of_main:
  1060                           	callstack 0
  1061                           
  1062 ;; *************** function _reception *****************
  1063 ;; Defined at:
  1064 ;;		line 136 in file "main.c"
  1065 ;; Parameters:    Size  Location     Type
  1066 ;;		None
  1067 ;; Auto vars:     Size  Location     Type
  1068 ;;  statue          1    0        enum E12624
  1069 ;;  statue          1    0        enum E12624
  1070 ;; Return value:  Size  Location     Type
  1071 ;;                  1    wreg      void 
  1072 ;; Registers used:
  1073 ;;		wreg, fsr2l, fsr2h, status,2, status,0, cstack
  1074 ;; Tracked objects:
  1075 ;;		On entry : 0/0
  1076 ;;		On exit  : 0/0
  1077 ;;		Unchanged: 0/0
  1078 ;; Data sizes:     COMRAM   BANK0   BANK1   BANK2   BANK3   BANK4   BANK5   BANK6   BANK7   BANK8   BANK9  BANK10  BANK1
      +1  BANK12  BANK13  BANK14
  1079 ;;      Params:         0       0       0       0       0       0       0       0       0       0       0       0       
      +0       0       0       0
  1080 ;;      Locals:         0       0       0       0       0       0       0       0       0       0       0       0       
      +0       0       0       0
  1081 ;;      Temps:          0       0       0       0       0       0       0       0       0       0       0       0       
      +0       0       0       0
  1082 ;;      Totals:         0       0       0       0       0       0       0       0       0       0       0       0       
      +0       0       0       0
  1083 ;;Total ram usage:        0 bytes
  1084 ;; Hardware stack levels used: 1
  1085 ;; Hardware stack levels required when called: 6
  1086 ;; This function calls:
  1087 ;;		_CAN_receive
  1088 ;; This function is called by:
  1089 ;;		_main
  1090 ;; This function uses a non-reentrant model
  1091 ;;
  1092                           
  1093                           	psect	text1
  1094   002ECC                     __ptext1:
  1095                           	callstack 0
  1096   002ECC                     _reception:
  1097                           	callstack 24
  1098   002ECC                     
  1099                           ;main.c: 142:     CAN_receive(&rxMessage);
  1100   002ECC  0E9C               	movlw	low _rxMessage
  1101   002ECE  6E16               	movwf	CAN_receive@tempCanMsg^0,c
  1102   002ED0  0E00               	movlw	high _rxMessage
  1103   002ED2  6E17               	movwf	(CAN_receive@tempCanMsg+1)^0,c
  1104   002ED4  ECDA  F00F         	call	_CAN_receive	;wreg free
  1105   002ED8                     
  1106                           ;main.c: 145:     udemarrage[0] = rxMessage.frame.id;
  1107   002ED8  C09D  F080         	movff	_rxMessage+1,_udemarrage
  1108   002EDC  C09E  F081         	movff	_rxMessage+2,_udemarrage+1
  1109   002EE0  C09F  F082         	movff	_rxMessage+3,_udemarrage+2
  1110   002EE4  C0A0  F083         	movff	_rxMessage+4,_udemarrage+3
  1111   002EE8                     
  1112                           ;main.c: 146:     udemarrage[1] = rxMessage.frame.data0;
  1113   002EE8  0100               	movlb	0	; () banked
  1114   002EEA  51A2               	movf	(_rxMessage+6)& (0+255),w,b
  1115   002EEC  6F84               	movwf	(_udemarrage+4)& (0+255),b
  1116   002EEE  6B85               	clrf	(_udemarrage+5)& (0+255),b
  1117   002EF0  6B86               	clrf	(_udemarrage+6)& (0+255),b
  1118   002EF2  6B87               	clrf	(_udemarrage+7)& (0+255),b
  1119   002EF4                     
  1120                           ; BSR set to: 0
  1121                           ;main.c: 147:     if (udemarrage[0] == 0x011) {
  1122   002EF4  0E11               	movlw	17
  1123   002EF6  1980               	xorwf	_udemarrage& (0+255),w,b
  1124   002EF8  1181               	iorwf	(_udemarrage+1)& (0+255),w,b
  1125   002EFA  1182               	iorwf	(_udemarrage+2)& (0+255),w,b
  1126   002EFC  1183               	iorwf	(_udemarrage+3)& (0+255),w,b
  1127   002EFE  A4D8               	btfss	status,2,c
  1128   002F00  EF84  F017         	goto	u2891
  1129   002F04  EF86  F017         	goto	u2890
  1130   002F08                     u2891:
  1131   002F08  EF95  F017         	goto	l689
  1132   002F0C                     u2890:
  1133   002F0C                     
  1134                           ; BSR set to: 0
  1135                           ;main.c: 148:         if (udemarrage[1] == 0) {
  1136   002F0C  5184               	movf	(_udemarrage+4)& (0+255),w,b
  1137   002F0E  1185               	iorwf	(_udemarrage+5)& (0+255),w,b
  1138   002F10  1186               	iorwf	(_udemarrage+6)& (0+255),w,b
  1139   002F12  1187               	iorwf	(_udemarrage+7)& (0+255),w,b
  1140   002F14  A4D8               	btfss	status,2,c
  1141   002F16  EF8F  F017         	goto	u2901
  1142   002F1A  EF91  F017         	goto	u2900
  1143   002F1E                     u2901:
  1144   002F1E  EF95  F017         	goto	l3716
  1145   002F22                     u2900:
  1146   002F22                     
  1147                           ; BSR set to: 0
  1148   002F22  9C8A               	bcf	138,6,c	;volatile
  1149   002F24                     
  1150                           ; BSR set to: 0
  1151   002F24  9E8A               	bcf	138,7,c	;volatile
  1152   002F26  EF95  F017         	goto	l689
  1153   002F2A                     l3716:
  1154   002F2A                     l689:
  1155                           
  1156                           ; BSR set to: 0
  1157   002F2A  0012               	return		;funcret
  1158   002F2C                     __end_of_reception:
  1159                           	callstack 0
  1160                           
  1161 ;; *************** function _CAN_receive *****************
  1162 ;; Defined at:
  1163 ;;		line 243 in file "mcc_generated_files/ecan.c"
  1164 ;; Parameters:    Size  Location     Type
  1165 ;;  tempCanMsg      2   21[COMRAM] PTR struct .
  1166 ;;		 -> rxMessage(14), 
  1167 ;; Auto vars:     Size  Location     Type
  1168 ;;  returnValue     1    0        unsigned char 
  1169 ;; Return value:  Size  Location     Type
  1170 ;;                  1    wreg      unsigned char 
  1171 ;; Registers used:
  1172 ;;		wreg, fsr2l, fsr2h, status,2, status,0, cstack
  1173 ;; Tracked objects:
  1174 ;;		On entry : 0/0
  1175 ;;		On exit  : 0/0
  1176 ;;		Unchanged: 0/0
  1177 ;; Data sizes:     COMRAM   BANK0   BANK1   BANK2   BANK3   BANK4   BANK5   BANK6   BANK7   BANK8   BANK9  BANK10  BANK1
      +1  BANK12  BANK13  BANK14
  1178 ;;      Params:         2       0       0       0       0       0       0       0       0       0       0       0       
      +0       0       0       0
  1179 ;;      Locals:         0       0       0       0       0       0       0       0       0       0       0       0       
      +0       0       0       0
  1180 ;;      Temps:          0       0       0       0       0       0       0       0       0       0       0       0       
      +0       0       0       0
  1181 ;;      Totals:         2       0       0       0       0       0       0       0       0       0       0       0       
      +0       0       0       0
  1182 ;;Total ram usage:        2 bytes
  1183 ;; Hardware stack levels used: 1
  1184 ;; Hardware stack levels required when called: 5
  1185 ;; This function calls:
  1186 ;;		_convertReg2ExtendedCANid
  1187 ;;		_convertReg2StandardCANid
  1188 ;; This function is called by:
  1189 ;;		_reception
  1190 ;; This function uses a non-reentrant model
  1191 ;;
  1192                           
  1193                           	psect	text2
  1194   001FB4                     __ptext2:
  1195                           	callstack 0
  1196   001FB4                     _CAN_receive:
  1197                           	callstack 24
  1198   001FB4                     
  1199                           ;mcc_generated_files/ecan.c: 248:     if (RXB0CONbits.RXFUL != 0)
  1200   001FB4  AE60               	btfss	96,7,c	;volatile
  1201   001FB6  EFDF  F00F         	goto	u2621
  1202   001FBA  EFE1  F00F         	goto	u2620
  1203   001FBE                     u2621:
  1204   001FBE  EF6B  F010         	goto	l263
  1205   001FC2                     u2620:
  1206   001FC2                     
  1207                           ;mcc_generated_files/ecan.c: 249:     {;mcc_generated_files/ecan.c: 250:         if ((RX
      +                          B0SIDL & 0x08) == 0x08)
  1208   001FC2  A662               	btfss	98,3,c	;volatile
  1209   001FC4  EFE6  F00F         	goto	u2631
  1210   001FC8  EFE8  F00F         	goto	u2630
  1211   001FCC                     u2631:
  1212   001FCC  EF07  F010         	goto	l3348
  1213   001FD0                     u2630:
  1214   001FD0                     
  1215                           ;mcc_generated_files/ecan.c: 251:         {;mcc_generated_files/ecan.c: 253:            
      +                           tempCanMsg->frame.idType = (uint8_t) 2;
  1216   001FD0  C016  FFD9         	movff	CAN_receive@tempCanMsg,fsr2l
  1217   001FD4  C017  FFDA         	movff	CAN_receive@tempCanMsg+1,fsr2h
  1218   001FD8  0E02               	movlw	2
  1219   001FDA  6EDF               	movwf	indf2,c
  1220   001FDC                     
  1221                           ;mcc_generated_files/ecan.c: 254:             tempCanMsg->frame.id = convertReg2Extended
      +                          CANid(RXB0EIDH, RXB0EIDL, RXB0SIDH, RXB0SIDL);
  1222   001FDC  CF64 F003          	movff	3940,convertReg2ExtendedCANid@tempRXBn_EIDL	;volatile
  1223   001FE0  CF61 F004          	movff	3937,convertReg2ExtendedCANid@tempRXBn_SIDH	;volatile
  1224   001FE4  CF62 F005          	movff	3938,convertReg2ExtendedCANid@tempRXBn_SIDL	;volatile
  1225   001FE8  5063               	movf	99,w,c	;volatile
  1226   001FEA  EC44  F013         	call	_convertReg2ExtendedCANid
  1227   001FEE  EE20 F001          	lfsr	2,1
  1228   001FF2  5016               	movf	CAN_receive@tempCanMsg^0,w,c
  1229   001FF4  26D9               	addwf	fsr2l,f,c
  1230   001FF6  5017               	movf	(CAN_receive@tempCanMsg+1)^0,w,c
  1231   001FF8  22DA               	addwfc	fsr2h,f,c
  1232   001FFA  C003  FFDE         	movff	?_convertReg2ExtendedCANid,postinc2
  1233   001FFE  C004  FFDE         	movff	?_convertReg2ExtendedCANid+1,postinc2
  1234   002002  C005  FFDE         	movff	?_convertReg2ExtendedCANid+2,postinc2
  1235   002006  C006  FFDE         	movff	?_convertReg2ExtendedCANid+3,postinc2
  1236                           
  1237                           ;mcc_generated_files/ecan.c: 255:         }
  1238   00200A  EF20  F010         	goto	l3352
  1239   00200E                     l3348:
  1240                           
  1241                           ;mcc_generated_files/ecan.c: 257:         {;mcc_generated_files/ecan.c: 259:            
      +                           tempCanMsg->frame.idType = (uint8_t) 1;
  1242   00200E  C016  FFD9         	movff	CAN_receive@tempCanMsg,fsr2l
  1243   002012  C017  FFDA         	movff	CAN_receive@tempCanMsg+1,fsr2h
  1244   002016  0E01               	movlw	1
  1245   002018  6EDF               	movwf	indf2,c
  1246   00201A                     
  1247                           ;mcc_generated_files/ecan.c: 260:             tempCanMsg->frame.id = convertReg2Standard
      +                          CANid(RXB0SIDH, RXB0SIDL);
  1248   00201A  CF62 F003          	movff	3938,convertReg2StandardCANid@tempRXBn_SIDL	;volatile
  1249   00201E  5061               	movf	97,w,c	;volatile
  1250   002020  EC2A  F017         	call	_convertReg2StandardCANid
  1251   002024  EE20 F001          	lfsr	2,1
  1252   002028  5016               	movf	CAN_receive@tempCanMsg^0,w,c
  1253   00202A  26D9               	addwf	fsr2l,f,c
  1254   00202C  5017               	movf	(CAN_receive@tempCanMsg+1)^0,w,c
  1255   00202E  22DA               	addwfc	fsr2h,f,c
  1256   002030  C003  FFDE         	movff	?_convertReg2StandardCANid,postinc2
  1257   002034  C004  FFDE         	movff	?_convertReg2StandardCANid+1,postinc2
  1258   002038  C005  FFDE         	movff	?_convertReg2StandardCANid+2,postinc2
  1259   00203C  C006  FFDE         	movff	?_convertReg2StandardCANid+3,postinc2
  1260   002040                     l3352:
  1261                           
  1262                           ;mcc_generated_files/ecan.c: 263:         tempCanMsg->frame.dlc = RXB0DLC;
  1263   002040  EE20 F005          	lfsr	2,5
  1264   002044  5016               	movf	CAN_receive@tempCanMsg^0,w,c
  1265   002046  26D9               	addwf	fsr2l,f,c
  1266   002048  5017               	movf	(CAN_receive@tempCanMsg+1)^0,w,c
  1267   00204A  22DA               	addwfc	fsr2h,f,c
  1268   00204C  CF65 FFDF          	movff	3941,indf2	;volatile
  1269   002050                     
  1270                           ;mcc_generated_files/ecan.c: 264:         tempCanMsg->frame.data0 = RXB0D0;
  1271   002050  EE20 F006          	lfsr	2,6
  1272   002054  5016               	movf	CAN_receive@tempCanMsg^0,w,c
  1273   002056  26D9               	addwf	fsr2l,f,c
  1274   002058  5017               	movf	(CAN_receive@tempCanMsg+1)^0,w,c
  1275   00205A  22DA               	addwfc	fsr2h,f,c
  1276   00205C  CF66 FFDF          	movff	3942,indf2	;volatile
  1277   002060                     
  1278                           ;mcc_generated_files/ecan.c: 265:         tempCanMsg->frame.data1 = RXB0D1;
  1279   002060  EE20 F007          	lfsr	2,7
  1280   002064  5016               	movf	CAN_receive@tempCanMsg^0,w,c
  1281   002066  26D9               	addwf	fsr2l,f,c
  1282   002068  5017               	movf	(CAN_receive@tempCanMsg+1)^0,w,c
  1283   00206A  22DA               	addwfc	fsr2h,f,c
  1284   00206C  CF67 FFDF          	movff	3943,indf2	;volatile
  1285   002070                     
  1286                           ;mcc_generated_files/ecan.c: 266:         tempCanMsg->frame.data2 = RXB0D2;
  1287   002070  EE20 F008          	lfsr	2,8
  1288   002074  5016               	movf	CAN_receive@tempCanMsg^0,w,c
  1289   002076  26D9               	addwf	fsr2l,f,c
  1290   002078  5017               	movf	(CAN_receive@tempCanMsg+1)^0,w,c
  1291   00207A  22DA               	addwfc	fsr2h,f,c
  1292   00207C  CF68 FFDF          	movff	3944,indf2	;volatile
  1293   002080                     
  1294                           ;mcc_generated_files/ecan.c: 267:         tempCanMsg->frame.data3 = RXB0D3;
  1295   002080  EE20 F009          	lfsr	2,9
  1296   002084  5016               	movf	CAN_receive@tempCanMsg^0,w,c
  1297   002086  26D9               	addwf	fsr2l,f,c
  1298   002088  5017               	movf	(CAN_receive@tempCanMsg+1)^0,w,c
  1299   00208A  22DA               	addwfc	fsr2h,f,c
  1300   00208C  CF69 FFDF          	movff	3945,indf2	;volatile
  1301   002090                     
  1302                           ;mcc_generated_files/ecan.c: 268:         tempCanMsg->frame.data4 = RXB0D4;
  1303   002090  EE20 F00A          	lfsr	2,10
  1304   002094  5016               	movf	CAN_receive@tempCanMsg^0,w,c
  1305   002096  26D9               	addwf	fsr2l,f,c
  1306   002098  5017               	movf	(CAN_receive@tempCanMsg+1)^0,w,c
  1307   00209A  22DA               	addwfc	fsr2h,f,c
  1308   00209C  CF6A FFDF          	movff	3946,indf2	;volatile
  1309   0020A0                     
  1310                           ;mcc_generated_files/ecan.c: 269:         tempCanMsg->frame.data5 = RXB0D5;
  1311   0020A0  EE20 F00B          	lfsr	2,11
  1312   0020A4  5016               	movf	CAN_receive@tempCanMsg^0,w,c
  1313   0020A6  26D9               	addwf	fsr2l,f,c
  1314   0020A8  5017               	movf	(CAN_receive@tempCanMsg+1)^0,w,c
  1315   0020AA  22DA               	addwfc	fsr2h,f,c
  1316   0020AC  CF6B FFDF          	movff	3947,indf2	;volatile
  1317   0020B0                     
  1318                           ;mcc_generated_files/ecan.c: 270:         tempCanMsg->frame.data6 = RXB0D6;
  1319   0020B0  EE20 F00C          	lfsr	2,12
  1320   0020B4  5016               	movf	CAN_receive@tempCanMsg^0,w,c
  1321   0020B6  26D9               	addwf	fsr2l,f,c
  1322   0020B8  5017               	movf	(CAN_receive@tempCanMsg+1)^0,w,c
  1323   0020BA  22DA               	addwfc	fsr2h,f,c
  1324   0020BC  CF6C FFDF          	movff	3948,indf2	;volatile
  1325   0020C0                     
  1326                           ;mcc_generated_files/ecan.c: 271:         tempCanMsg->frame.data7 = RXB0D7;
  1327   0020C0  EE20 F00D          	lfsr	2,13
  1328   0020C4  5016               	movf	CAN_receive@tempCanMsg^0,w,c
  1329   0020C6  26D9               	addwf	fsr2l,f,c
  1330   0020C8  5017               	movf	(CAN_receive@tempCanMsg+1)^0,w,c
  1331   0020CA  22DA               	addwfc	fsr2h,f,c
  1332   0020CC  CF6D FFDF          	movff	3949,indf2	;volatile
  1333   0020D0                     
  1334                           ;mcc_generated_files/ecan.c: 272:         RXB0CONbits.RXFUL = 0;
  1335   0020D0  9E60               	bcf	96,7,c	;volatile
  1336   0020D2                     l3372:
  1337                           
  1338                           ;mcc_generated_files/ecan.c: 274:     }
  1339   0020D2  EFFE  F010         	goto	l270
  1340   0020D6                     l263:
  1341   0020D6  010F               	movlb	15	; () banked
  1342   0020D8  AF30               	btfss	48,7,b	;volatile
  1343   0020DA  EF71  F010         	goto	u2641
  1344   0020DE  EF73  F010         	goto	u2640
  1345   0020E2                     u2641:
  1346   0020E2  EFFE  F010         	goto	l270
  1347   0020E6                     u2640:
  1348   0020E6                     
  1349                           ; BSR set to: 15
  1350                           ;mcc_generated_files/ecan.c: 276:     {;mcc_generated_files/ecan.c: 277:         if ((RX
      +                          B1SIDL & 0x08) == 0x08)
  1351   0020E6  A732               	btfss	50,3,b	;volatile
  1352   0020E8  EF78  F010         	goto	u2651
  1353   0020EC  EF7A  F010         	goto	u2650
  1354   0020F0                     u2651:
  1355   0020F0  EF99  F010         	goto	l3380
  1356   0020F4                     u2650:
  1357   0020F4                     
  1358                           ; BSR set to: 15
  1359                           ;mcc_generated_files/ecan.c: 278:         {;mcc_generated_files/ecan.c: 280:            
      +                           tempCanMsg->frame.idType = (uint8_t) 2;
  1360   0020F4  C016  FFD9         	movff	CAN_receive@tempCanMsg,fsr2l
  1361   0020F8  C017  FFDA         	movff	CAN_receive@tempCanMsg+1,fsr2h
  1362   0020FC  0E02               	movlw	2
  1363   0020FE  6EDF               	movwf	indf2,c
  1364   002100                     
  1365                           ; BSR set to: 15
  1366                           ;mcc_generated_files/ecan.c: 281:             tempCanMsg->frame.id = convertReg2Extended
      +                          CANid(RXB1EIDH, RXB1EIDL, RXB1SIDH, RXB1SIDL);
  1367   002100  CF34 F003          	movff	3892,convertReg2ExtendedCANid@tempRXBn_EIDL	;volatile
  1368   002104  CF31 F004          	movff	3889,convertReg2ExtendedCANid@tempRXBn_SIDH	;volatile
  1369   002108  CF32 F005          	movff	3890,convertReg2ExtendedCANid@tempRXBn_SIDL	;volatile
  1370   00210C  5133               	movf	51,w,b	;volatile
  1371   00210E  EC44  F013         	call	_convertReg2ExtendedCANid
  1372   002112  EE20 F001          	lfsr	2,1
  1373   002116  5016               	movf	CAN_receive@tempCanMsg^0,w,c
  1374   002118  26D9               	addwf	fsr2l,f,c
  1375   00211A  5017               	movf	(CAN_receive@tempCanMsg+1)^0,w,c
  1376   00211C  22DA               	addwfc	fsr2h,f,c
  1377   00211E  C003  FFDE         	movff	?_convertReg2ExtendedCANid,postinc2
  1378   002122  C004  FFDE         	movff	?_convertReg2ExtendedCANid+1,postinc2
  1379   002126  C005  FFDE         	movff	?_convertReg2ExtendedCANid+2,postinc2
  1380   00212A  C006  FFDE         	movff	?_convertReg2ExtendedCANid+3,postinc2
  1381                           
  1382                           ;mcc_generated_files/ecan.c: 282:         }
  1383   00212E  EFB2  F010         	goto	l3384
  1384   002132                     l3380:
  1385                           
  1386                           ; BSR set to: 15
  1387                           ;mcc_generated_files/ecan.c: 284:         {;mcc_generated_files/ecan.c: 286:            
      +                           tempCanMsg->frame.idType = (uint8_t) 1;
  1388   002132  C016  FFD9         	movff	CAN_receive@tempCanMsg,fsr2l
  1389   002136  C017  FFDA         	movff	CAN_receive@tempCanMsg+1,fsr2h
  1390   00213A  0E01               	movlw	1
  1391   00213C  6EDF               	movwf	indf2,c
  1392   00213E                     
  1393                           ; BSR set to: 15
  1394                           ;mcc_generated_files/ecan.c: 287:             tempCanMsg->frame.id = convertReg2Standard
      +                          CANid(RXB1SIDH, RXB1SIDL);
  1395   00213E  CF32 F003          	movff	3890,convertReg2StandardCANid@tempRXBn_SIDL	;volatile
  1396   002142  5131               	movf	49,w,b	;volatile
  1397   002144  EC2A  F017         	call	_convertReg2StandardCANid
  1398   002148  EE20 F001          	lfsr	2,1
  1399   00214C  5016               	movf	CAN_receive@tempCanMsg^0,w,c
  1400   00214E  26D9               	addwf	fsr2l,f,c
  1401   002150  5017               	movf	(CAN_receive@tempCanMsg+1)^0,w,c
  1402   002152  22DA               	addwfc	fsr2h,f,c
  1403   002154  C003  FFDE         	movff	?_convertReg2StandardCANid,postinc2
  1404   002158  C004  FFDE         	movff	?_convertReg2StandardCANid+1,postinc2
  1405   00215C  C005  FFDE         	movff	?_convertReg2StandardCANid+2,postinc2
  1406   002160  C006  FFDE         	movff	?_convertReg2StandardCANid+3,postinc2
  1407   002164                     l3384:
  1408                           
  1409                           ;mcc_generated_files/ecan.c: 290:         tempCanMsg->frame.dlc = RXB1DLC;
  1410   002164  EE20 F005          	lfsr	2,5
  1411   002168  5016               	movf	CAN_receive@tempCanMsg^0,w,c
  1412   00216A  26D9               	addwf	fsr2l,f,c
  1413   00216C  5017               	movf	(CAN_receive@tempCanMsg+1)^0,w,c
  1414   00216E  22DA               	addwfc	fsr2h,f,c
  1415   002170  CF35 FFDF          	movff	3893,indf2	;volatile
  1416   002174                     
  1417                           ;mcc_generated_files/ecan.c: 291:         tempCanMsg->frame.data0 = RXB1D0;
  1418   002174  EE20 F006          	lfsr	2,6
  1419   002178  5016               	movf	CAN_receive@tempCanMsg^0,w,c
  1420   00217A  26D9               	addwf	fsr2l,f,c
  1421   00217C  5017               	movf	(CAN_receive@tempCanMsg+1)^0,w,c
  1422   00217E  22DA               	addwfc	fsr2h,f,c
  1423   002180  CF36 FFDF          	movff	3894,indf2	;volatile
  1424   002184                     
  1425                           ;mcc_generated_files/ecan.c: 292:         tempCanMsg->frame.data1 = RXB1D1;
  1426   002184  EE20 F007          	lfsr	2,7
  1427   002188  5016               	movf	CAN_receive@tempCanMsg^0,w,c
  1428   00218A  26D9               	addwf	fsr2l,f,c
  1429   00218C  5017               	movf	(CAN_receive@tempCanMsg+1)^0,w,c
  1430   00218E  22DA               	addwfc	fsr2h,f,c
  1431   002190  CF37 FFDF          	movff	3895,indf2	;volatile
  1432   002194                     
  1433                           ;mcc_generated_files/ecan.c: 293:         tempCanMsg->frame.data2 = RXB1D2;
  1434   002194  EE20 F008          	lfsr	2,8
  1435   002198  5016               	movf	CAN_receive@tempCanMsg^0,w,c
  1436   00219A  26D9               	addwf	fsr2l,f,c
  1437   00219C  5017               	movf	(CAN_receive@tempCanMsg+1)^0,w,c
  1438   00219E  22DA               	addwfc	fsr2h,f,c
  1439   0021A0  CF38 FFDF          	movff	3896,indf2	;volatile
  1440   0021A4                     
  1441                           ;mcc_generated_files/ecan.c: 294:         tempCanMsg->frame.data3 = RXB1D3;
  1442   0021A4  EE20 F009          	lfsr	2,9
  1443   0021A8  5016               	movf	CAN_receive@tempCanMsg^0,w,c
  1444   0021AA  26D9               	addwf	fsr2l,f,c
  1445   0021AC  5017               	movf	(CAN_receive@tempCanMsg+1)^0,w,c
  1446   0021AE  22DA               	addwfc	fsr2h,f,c
  1447   0021B0  CF39 FFDF          	movff	3897,indf2	;volatile
  1448   0021B4                     
  1449                           ;mcc_generated_files/ecan.c: 295:         tempCanMsg->frame.data4 = RXB1D4;
  1450   0021B4  EE20 F00A          	lfsr	2,10
  1451   0021B8  5016               	movf	CAN_receive@tempCanMsg^0,w,c
  1452   0021BA  26D9               	addwf	fsr2l,f,c
  1453   0021BC  5017               	movf	(CAN_receive@tempCanMsg+1)^0,w,c
  1454   0021BE  22DA               	addwfc	fsr2h,f,c
  1455   0021C0  CF3A FFDF          	movff	3898,indf2	;volatile
  1456   0021C4                     
  1457                           ;mcc_generated_files/ecan.c: 296:         tempCanMsg->frame.data5 = RXB1D5;
  1458   0021C4  EE20 F00B          	lfsr	2,11
  1459   0021C8  5016               	movf	CAN_receive@tempCanMsg^0,w,c
  1460   0021CA  26D9               	addwf	fsr2l,f,c
  1461   0021CC  5017               	movf	(CAN_receive@tempCanMsg+1)^0,w,c
  1462   0021CE  22DA               	addwfc	fsr2h,f,c
  1463   0021D0  CF3B FFDF          	movff	3899,indf2	;volatile
  1464   0021D4                     
  1465                           ;mcc_generated_files/ecan.c: 297:         tempCanMsg->frame.data6 = RXB1D6;
  1466   0021D4  EE20 F00C          	lfsr	2,12
  1467   0021D8  5016               	movf	CAN_receive@tempCanMsg^0,w,c
  1468   0021DA  26D9               	addwf	fsr2l,f,c
  1469   0021DC  5017               	movf	(CAN_receive@tempCanMsg+1)^0,w,c
  1470   0021DE  22DA               	addwfc	fsr2h,f,c
  1471   0021E0  CF3C FFDF          	movff	3900,indf2	;volatile
  1472   0021E4                     
  1473                           ;mcc_generated_files/ecan.c: 298:         tempCanMsg->frame.data7 = RXB1D7;
  1474   0021E4  EE20 F00D          	lfsr	2,13
  1475   0021E8  5016               	movf	CAN_receive@tempCanMsg^0,w,c
  1476   0021EA  26D9               	addwf	fsr2l,f,c
  1477   0021EC  5017               	movf	(CAN_receive@tempCanMsg+1)^0,w,c
  1478   0021EE  22DA               	addwfc	fsr2h,f,c
  1479   0021F0  CF3D FFDF          	movff	3901,indf2	;volatile
  1480   0021F4                     
  1481                           ;mcc_generated_files/ecan.c: 299:         RXB1CONbits.RXFUL = 0;
  1482   0021F4  010F               	movlb	15	; () banked
  1483   0021F6  9F30               	bcf	48,7,b	;volatile
  1484   0021F8  EF69  F010         	goto	l3372
  1485   0021FC                     l270:
  1486   0021FC  0012               	return		;funcret
  1487   0021FE                     __end_of_CAN_receive:
  1488                           	callstack 0
  1489                           
  1490 ;; *************** function _convertReg2StandardCANid *****************
  1491 ;; Defined at:
  1492 ;;		line 389 in file "mcc_generated_files/ecan.c"
  1493 ;; Parameters:    Size  Location     Type
  1494 ;;  tempRXBn_SID    1    wreg     unsigned char 
  1495 ;;  tempRXBn_SID    1    2[COMRAM] unsigned char 
  1496 ;; Auto vars:     Size  Location     Type
  1497 ;;  tempRXBn_SID    1    8[COMRAM] unsigned char 
  1498 ;;  ConvertedID     4   13[COMRAM] unsigned long 
  1499 ;;  returnValue     4    9[COMRAM] unsigned long 
  1500 ;; Return value:  Size  Location     Type
  1501 ;;                  4    2[COMRAM] unsigned long 
  1502 ;; Registers used:
  1503 ;;		wreg, status,2, status,0
  1504 ;; Tracked objects:
  1505 ;;		On entry : 0/0
  1506 ;;		On exit  : 0/0
  1507 ;;		Unchanged: 0/0
  1508 ;; Data sizes:     COMRAM   BANK0   BANK1   BANK2   BANK3   BANK4   BANK5   BANK6   BANK7   BANK8   BANK9  BANK10  BANK1
      +1  BANK12  BANK13  BANK14
  1509 ;;      Params:         4       0       0       0       0       0       0       0       0       0       0       0       
      +0       0       0       0
  1510 ;;      Locals:         9       0       0       0       0       0       0       0       0       0       0       0       
      +0       0       0       0
  1511 ;;      Temps:          2       0       0       0       0       0       0       0       0       0       0       0       
      +0       0       0       0
  1512 ;;      Totals:        15       0       0       0       0       0       0       0       0       0       0       0       
      +0       0       0       0
  1513 ;;Total ram usage:       15 bytes
  1514 ;; Hardware stack levels used: 1
  1515 ;; Hardware stack levels required when called: 4
  1516 ;; This function calls:
  1517 ;;		Nothing
  1518 ;; This function is called by:
  1519 ;;		_CAN_receive
  1520 ;; This function uses a non-reentrant model
  1521 ;;
  1522                           
  1523                           	psect	text3
  1524   002E54                     __ptext3:
  1525                           	callstack 0
  1526   002E54                     _convertReg2StandardCANid:
  1527                           	callstack 24
  1528                           
  1529                           ;incstack = 0
  1530                           ;convertReg2StandardCANid@tempRXBn_SIDH stored from wreg
  1531   002E54  6E09               	movwf	convertReg2StandardCANid@tempRXBn_SIDH^0,c
  1532   002E56                     
  1533                           ;mcc_generated_files/ecan.c: 392:     uint32_t ConvertedID;;mcc_generated_files/ecan.c: 
      +                          396:     ConvertedID = (uint32_t)(tempRXBn_SIDH << 3);
  1534   002E56  5009               	movf	convertReg2StandardCANid@tempRXBn_SIDH^0,w,c
  1535   002E58  6E07               	movwf	??_convertReg2StandardCANid^0,c
  1536   002E5A  6A08               	clrf	(??_convertReg2StandardCANid+1)^0,c
  1537   002E5C  90D8               	bcf	status,0,c
  1538   002E5E  3607               	rlcf	??_convertReg2StandardCANid^0,f,c
  1539   002E60  3608               	rlcf	(??_convertReg2StandardCANid+1)^0,f,c
  1540   002E62  90D8               	bcf	status,0,c
  1541   002E64  3607               	rlcf	??_convertReg2StandardCANid^0,f,c
  1542   002E66  3608               	rlcf	(??_convertReg2StandardCANid+1)^0,f,c
  1543   002E68  90D8               	bcf	status,0,c
  1544   002E6A  3607               	rlcf	??_convertReg2StandardCANid^0,f,c
  1545   002E6C  3608               	rlcf	(??_convertReg2StandardCANid+1)^0,f,c
  1546   002E6E  C007  F00E         	movff	??_convertReg2StandardCANid,convertReg2StandardCANid@ConvertedID
  1547   002E72  C008  F00F         	movff	??_convertReg2StandardCANid+1,convertReg2StandardCANid@ConvertedID+1
  1548   002E76  0E00               	movlw	0
  1549   002E78  BE0F               	btfsc	(convertReg2StandardCANid@ConvertedID+1)^0,7,c
  1550   002E7A  0EFF               	movlw	-1
  1551   002E7C  6E10               	movwf	(convertReg2StandardCANid@ConvertedID+2)^0,c
  1552   002E7E  6E11               	movwf	(convertReg2StandardCANid@ConvertedID+3)^0,c
  1553   002E80                     
  1554                           ;mcc_generated_files/ecan.c: 397:     ConvertedID = ConvertedID + (uint32_t)(tempRXBn_SI
      +                          DL >> 5);
  1555   002E80  C003  F007         	movff	convertReg2StandardCANid@tempRXBn_SIDL,??_convertReg2StandardCANid
  1556   002E84  0E05               	movlw	5
  1557   002E86  6E08               	movwf	(??_convertReg2StandardCANid+1)^0,c
  1558   002E88                     u1645:
  1559   002E88  90D8               	bcf	status,0,c
  1560   002E8A  3207               	rrcf	??_convertReg2StandardCANid^0,f,c
  1561   002E8C  2E08               	decfsz	(??_convertReg2StandardCANid+1)^0,f,c
  1562   002E8E  EF44  F017         	goto	u1645
  1563   002E92  5007               	movf	??_convertReg2StandardCANid^0,w,c
  1564   002E94  240E               	addwf	convertReg2StandardCANid@ConvertedID^0,w,c
  1565   002E96  6E0E               	movwf	convertReg2StandardCANid@ConvertedID^0,c
  1566   002E98  0E00               	movlw	0
  1567   002E9A  200F               	addwfc	(convertReg2StandardCANid@ConvertedID+1)^0,w,c
  1568   002E9C  6E0F               	movwf	(convertReg2StandardCANid@ConvertedID+1)^0,c
  1569   002E9E  0E00               	movlw	0
  1570   002EA0  2010               	addwfc	(convertReg2StandardCANid@ConvertedID+2)^0,w,c
  1571   002EA2  6E10               	movwf	(convertReg2StandardCANid@ConvertedID+2)^0,c
  1572   002EA4  0E00               	movlw	0
  1573   002EA6  2011               	addwfc	(convertReg2StandardCANid@ConvertedID+3)^0,w,c
  1574   002EA8  6E11               	movwf	(convertReg2StandardCANid@ConvertedID+3)^0,c
  1575   002EAA                     
  1576                           ;mcc_generated_files/ecan.c: 398:     returnValue = ConvertedID;
  1577   002EAA  C00E  F00A         	movff	convertReg2StandardCANid@ConvertedID,convertReg2StandardCANid@returnValue
  1578   002EAE  C00F  F00B         	movff	convertReg2StandardCANid@ConvertedID+1,convertReg2StandardCANid@returnValue+1
  1579   002EB2  C010  F00C         	movff	convertReg2StandardCANid@ConvertedID+2,convertReg2StandardCANid@returnValue+2
  1580   002EB6  C011  F00D         	movff	convertReg2StandardCANid@ConvertedID+3,convertReg2StandardCANid@returnValue+3
  1581   002EBA                     
  1582                           ;mcc_generated_files/ecan.c: 399:     return (returnValue);
  1583   002EBA  C00A  F003         	movff	convertReg2StandardCANid@returnValue,?_convertReg2StandardCANid
  1584   002EBE  C00B  F004         	movff	convertReg2StandardCANid@returnValue+1,?_convertReg2StandardCANid+1
  1585   002EC2  C00C  F005         	movff	convertReg2StandardCANid@returnValue+2,?_convertReg2StandardCANid+2
  1586   002EC6  C00D  F006         	movff	convertReg2StandardCANid@returnValue+3,?_convertReg2StandardCANid+3
  1587   002ECA  0012               	return		;funcret
  1588   002ECC                     __end_of_convertReg2StandardCANid:
  1589                           	callstack 0
  1590                           
  1591 ;; *************** function _convertReg2ExtendedCANid *****************
  1592 ;; Defined at:
  1593 ;;		line 368 in file "mcc_generated_files/ecan.c"
  1594 ;; Parameters:    Size  Location     Type
  1595 ;;  tempRXBn_EID    1    wreg     unsigned char 
  1596 ;;  tempRXBn_EID    1    2[COMRAM] unsigned char 
  1597 ;;  tempRXBn_SID    1    3[COMRAM] unsigned char 
  1598 ;;  tempRXBn_SID    1    4[COMRAM] unsigned char 
  1599 ;; Auto vars:     Size  Location     Type
  1600 ;;  tempRXBn_EID    1   10[COMRAM] unsigned char 
  1601 ;;  ConvertedID     4   17[COMRAM] unsigned long 
  1602 ;;  returnValue     4   11[COMRAM] unsigned long 
  1603 ;;  CAN_standard    1   16[COMRAM] unsigned char 
  1604 ;;  CAN_standard    1   15[COMRAM] unsigned char 
  1605 ;; Return value:  Size  Location     Type
  1606 ;;                  4    2[COMRAM] unsigned long 
  1607 ;; Registers used:
  1608 ;;		wreg, status,2, status,0
  1609 ;; Tracked objects:
  1610 ;;		On entry : 0/0
  1611 ;;		On exit  : 0/0
  1612 ;;		Unchanged: 0/0
  1613 ;; Data sizes:     COMRAM   BANK0   BANK1   BANK2   BANK3   BANK4   BANK5   BANK6   BANK7   BANK8   BANK9  BANK10  BANK1
      +1  BANK12  BANK13  BANK14
  1614 ;;      Params:         4       0       0       0       0       0       0       0       0       0       0       0       
      +0       0       0       0
  1615 ;;      Locals:        11       0       0       0       0       0       0       0       0       0       0       0       
      +0       0       0       0
  1616 ;;      Temps:          4       0       0       0       0       0       0       0       0       0       0       0       
      +0       0       0       0
  1617 ;;      Totals:        19       0       0       0       0       0       0       0       0       0       0       0       
      +0       0       0       0
  1618 ;;Total ram usage:       19 bytes
  1619 ;; Hardware stack levels used: 1
  1620 ;; Hardware stack levels required when called: 4
  1621 ;; This function calls:
  1622 ;;		Nothing
  1623 ;; This function is called by:
  1624 ;;		_CAN_receive
  1625 ;; This function uses a non-reentrant model
  1626 ;;
  1627                           
  1628                           	psect	text4
  1629   002688                     __ptext4:
  1630                           	callstack 0
  1631   002688                     _convertReg2ExtendedCANid:
  1632                           	callstack 24
  1633                           
  1634                           ;incstack = 0
  1635                           ;convertReg2ExtendedCANid@tempRXBn_EIDH stored from wreg
  1636   002688  6E0B               	movwf	convertReg2ExtendedCANid@tempRXBn_EIDH^0,c
  1637   00268A                     
  1638                           ;mcc_generated_files/ecan.c: 371:     uint32_t ConvertedID = 0;
  1639   00268A  0E00               	movlw	0
  1640   00268C  6E12               	movwf	convertReg2ExtendedCANid@ConvertedID^0,c
  1641   00268E  0E00               	movlw	0
  1642   002690  6E13               	movwf	(convertReg2ExtendedCANid@ConvertedID+1)^0,c
  1643   002692  0E00               	movlw	0
  1644   002694  6E14               	movwf	(convertReg2ExtendedCANid@ConvertedID+2)^0,c
  1645   002696  0E00               	movlw	0
  1646   002698  6E15               	movwf	(convertReg2ExtendedCANid@ConvertedID+3)^0,c
  1647   00269A                     
  1648                           ;mcc_generated_files/ecan.c: 372:     uint8_t CAN_standardLo_ID_lo2bits;;mcc_generated_f
      +                          iles/ecan.c: 373:     uint8_t CAN_standardLo_ID_hi3bits;;mcc_generated_files/ecan.c: 375
      +                          :     CAN_standardLo_ID_lo2bits = (uint8_t)(tempRXBn_SIDL & 0x03);
  1649   00269A  5005               	movf	convertReg2ExtendedCANid@tempRXBn_SIDL^0,w,c
  1650   00269C  0B03               	andlw	3
  1651   00269E  6E10               	movwf	convertReg2ExtendedCANid@CAN_standardLo_ID_lo2bits^0,c
  1652   0026A0                     
  1653                           ;mcc_generated_files/ecan.c: 376:     CAN_standardLo_ID_hi3bits = (uint8_t)(tempRXBn_SID
      +                          L >> 5);
  1654   0026A0  3805               	swapf	convertReg2ExtendedCANid@tempRXBn_SIDL^0,w,c
  1655   0026A2  42E8               	rrncf	wreg,f,c
  1656   0026A4  0B07               	andlw	7
  1657   0026A6  6E11               	movwf	convertReg2ExtendedCANid@CAN_standardLo_ID_hi3bits^0,c
  1658   0026A8                     
  1659                           ;mcc_generated_files/ecan.c: 377:     ConvertedID = (uint32_t)(tempRXBn_SIDH << 3);
  1660   0026A8  5004               	movf	convertReg2ExtendedCANid@tempRXBn_SIDH^0,w,c
  1661   0026AA  6E07               	movwf	??_convertReg2ExtendedCANid^0,c
  1662   0026AC  6A08               	clrf	(??_convertReg2ExtendedCANid+1)^0,c
  1663   0026AE  90D8               	bcf	status,0,c
  1664   0026B0  3607               	rlcf	??_convertReg2ExtendedCANid^0,f,c
  1665   0026B2  3608               	rlcf	(??_convertReg2ExtendedCANid+1)^0,f,c
  1666   0026B4  90D8               	bcf	status,0,c
  1667   0026B6  3607               	rlcf	??_convertReg2ExtendedCANid^0,f,c
  1668   0026B8  3608               	rlcf	(??_convertReg2ExtendedCANid+1)^0,f,c
  1669   0026BA  90D8               	bcf	status,0,c
  1670   0026BC  3607               	rlcf	??_convertReg2ExtendedCANid^0,f,c
  1671   0026BE  3608               	rlcf	(??_convertReg2ExtendedCANid+1)^0,f,c
  1672   0026C0  C007  F012         	movff	??_convertReg2ExtendedCANid,convertReg2ExtendedCANid@ConvertedID
  1673   0026C4  C008  F013         	movff	??_convertReg2ExtendedCANid+1,convertReg2ExtendedCANid@ConvertedID+1
  1674   0026C8  0E00               	movlw	0
  1675   0026CA  BE13               	btfsc	(convertReg2ExtendedCANid@ConvertedID+1)^0,7,c
  1676   0026CC  0EFF               	movlw	-1
  1677   0026CE  6E14               	movwf	(convertReg2ExtendedCANid@ConvertedID+2)^0,c
  1678   0026D0  6E15               	movwf	(convertReg2ExtendedCANid@ConvertedID+3)^0,c
  1679   0026D2                     
  1680                           ;mcc_generated_files/ecan.c: 378:     ConvertedID = ConvertedID + CAN_standardLo_ID_hi3b
      +                          its;
  1681   0026D2  5011               	movf	convertReg2ExtendedCANid@CAN_standardLo_ID_hi3bits^0,w,c
  1682   0026D4  2412               	addwf	convertReg2ExtendedCANid@ConvertedID^0,w,c
  1683   0026D6  6E12               	movwf	convertReg2ExtendedCANid@ConvertedID^0,c
  1684   0026D8  0E00               	movlw	0
  1685   0026DA  2013               	addwfc	(convertReg2ExtendedCANid@ConvertedID+1)^0,w,c
  1686   0026DC  6E13               	movwf	(convertReg2ExtendedCANid@ConvertedID+1)^0,c
  1687   0026DE  0E00               	movlw	0
  1688   0026E0  2014               	addwfc	(convertReg2ExtendedCANid@ConvertedID+2)^0,w,c
  1689   0026E2  6E14               	movwf	(convertReg2ExtendedCANid@ConvertedID+2)^0,c
  1690   0026E4  0E00               	movlw	0
  1691   0026E6  2015               	addwfc	(convertReg2ExtendedCANid@ConvertedID+3)^0,w,c
  1692   0026E8  6E15               	movwf	(convertReg2ExtendedCANid@ConvertedID+3)^0,c
  1693   0026EA                     
  1694                           ;mcc_generated_files/ecan.c: 379:     ConvertedID = (ConvertedID << 2);
  1695   0026EA  C012  F007         	movff	convertReg2ExtendedCANid@ConvertedID,??_convertReg2ExtendedCANid
  1696   0026EE  C013  F008         	movff	convertReg2ExtendedCANid@ConvertedID+1,??_convertReg2ExtendedCANid+1
  1697   0026F2  C014  F009         	movff	convertReg2ExtendedCANid@ConvertedID+2,??_convertReg2ExtendedCANid+2
  1698   0026F6  C015  F00A         	movff	convertReg2ExtendedCANid@ConvertedID+3,??_convertReg2ExtendedCANid+3
  1699   0026FA  0E02               	movlw	2
  1700   0026FC                     u1635:
  1701   0026FC  90D8               	bcf	status,0,c
  1702   0026FE  3607               	rlcf	??_convertReg2ExtendedCANid^0,f,c
  1703   002700  3608               	rlcf	(??_convertReg2ExtendedCANid+1)^0,f,c
  1704   002702  3609               	rlcf	(??_convertReg2ExtendedCANid+2)^0,f,c
  1705   002704  360A               	rlcf	(??_convertReg2ExtendedCANid+3)^0,f,c
  1706   002706  2EE8               	decfsz	wreg,f,c
  1707   002708  EF7E  F013         	goto	u1635
  1708   00270C  C007  F012         	movff	??_convertReg2ExtendedCANid,convertReg2ExtendedCANid@ConvertedID
  1709   002710  C008  F013         	movff	??_convertReg2ExtendedCANid+1,convertReg2ExtendedCANid@ConvertedID+1
  1710   002714  C009  F014         	movff	??_convertReg2ExtendedCANid+2,convertReg2ExtendedCANid@ConvertedID+2
  1711   002718  C00A  F015         	movff	??_convertReg2ExtendedCANid+3,convertReg2ExtendedCANid@ConvertedID+3
  1712   00271C                     
  1713                           ;mcc_generated_files/ecan.c: 380:     ConvertedID = ConvertedID + CAN_standardLo_ID_lo2b
      +                          its;
  1714   00271C  5010               	movf	convertReg2ExtendedCANid@CAN_standardLo_ID_lo2bits^0,w,c
  1715   00271E  2412               	addwf	convertReg2ExtendedCANid@ConvertedID^0,w,c
  1716   002720  6E12               	movwf	convertReg2ExtendedCANid@ConvertedID^0,c
  1717   002722  0E00               	movlw	0
  1718   002724  2013               	addwfc	(convertReg2ExtendedCANid@ConvertedID+1)^0,w,c
  1719   002726  6E13               	movwf	(convertReg2ExtendedCANid@ConvertedID+1)^0,c
  1720   002728  0E00               	movlw	0
  1721   00272A  2014               	addwfc	(convertReg2ExtendedCANid@ConvertedID+2)^0,w,c
  1722   00272C  6E14               	movwf	(convertReg2ExtendedCANid@ConvertedID+2)^0,c
  1723   00272E  0E00               	movlw	0
  1724   002730  2015               	addwfc	(convertReg2ExtendedCANid@ConvertedID+3)^0,w,c
  1725   002732  6E15               	movwf	(convertReg2ExtendedCANid@ConvertedID+3)^0,c
  1726                           
  1727                           ;mcc_generated_files/ecan.c: 381:     ConvertedID = (ConvertedID << 8);
  1728   002734  C012  F008         	movff	convertReg2ExtendedCANid@ConvertedID,??_convertReg2ExtendedCANid+1
  1729   002738  C013  F009         	movff	convertReg2ExtendedCANid@ConvertedID+1,??_convertReg2ExtendedCANid+2
  1730   00273C  C014  F00A         	movff	convertReg2ExtendedCANid@ConvertedID+2,??_convertReg2ExtendedCANid+3
  1731   002740  6A07               	clrf	??_convertReg2ExtendedCANid^0,c
  1732   002742  C007  F012         	movff	??_convertReg2ExtendedCANid,convertReg2ExtendedCANid@ConvertedID
  1733   002746  C008  F013         	movff	??_convertReg2ExtendedCANid+1,convertReg2ExtendedCANid@ConvertedID+1
  1734   00274A  C009  F014         	movff	??_convertReg2ExtendedCANid+2,convertReg2ExtendedCANid@ConvertedID+2
  1735   00274E  C00A  F015         	movff	??_convertReg2ExtendedCANid+3,convertReg2ExtendedCANid@ConvertedID+3
  1736   002752                     
  1737                           ;mcc_generated_files/ecan.c: 382:     ConvertedID = ConvertedID + tempRXBn_EIDH;
  1738   002752  500B               	movf	convertReg2ExtendedCANid@tempRXBn_EIDH^0,w,c
  1739   002754  2412               	addwf	convertReg2ExtendedCANid@ConvertedID^0,w,c
  1740   002756  6E12               	movwf	convertReg2ExtendedCANid@ConvertedID^0,c
  1741   002758  0E00               	movlw	0
  1742   00275A  2013               	addwfc	(convertReg2ExtendedCANid@ConvertedID+1)^0,w,c
  1743   00275C  6E13               	movwf	(convertReg2ExtendedCANid@ConvertedID+1)^0,c
  1744   00275E  0E00               	movlw	0
  1745   002760  2014               	addwfc	(convertReg2ExtendedCANid@ConvertedID+2)^0,w,c
  1746   002762  6E14               	movwf	(convertReg2ExtendedCANid@ConvertedID+2)^0,c
  1747   002764  0E00               	movlw	0
  1748   002766  2015               	addwfc	(convertReg2ExtendedCANid@ConvertedID+3)^0,w,c
  1749   002768  6E15               	movwf	(convertReg2ExtendedCANid@ConvertedID+3)^0,c
  1750   00276A                     
  1751                           ;mcc_generated_files/ecan.c: 383:     ConvertedID = (ConvertedID << 8);
  1752   00276A  C012  F008         	movff	convertReg2ExtendedCANid@ConvertedID,??_convertReg2ExtendedCANid+1
  1753   00276E  C013  F009         	movff	convertReg2ExtendedCANid@ConvertedID+1,??_convertReg2ExtendedCANid+2
  1754   002772  C014  F00A         	movff	convertReg2ExtendedCANid@ConvertedID+2,??_convertReg2ExtendedCANid+3
  1755   002776  6A07               	clrf	??_convertReg2ExtendedCANid^0,c
  1756   002778  C007  F012         	movff	??_convertReg2ExtendedCANid,convertReg2ExtendedCANid@ConvertedID
  1757   00277C  C008  F013         	movff	??_convertReg2ExtendedCANid+1,convertReg2ExtendedCANid@ConvertedID+1
  1758   002780  C009  F014         	movff	??_convertReg2ExtendedCANid+2,convertReg2ExtendedCANid@ConvertedID+2
  1759   002784  C00A  F015         	movff	??_convertReg2ExtendedCANid+3,convertReg2ExtendedCANid@ConvertedID+3
  1760                           
  1761                           ;mcc_generated_files/ecan.c: 384:     ConvertedID = ConvertedID + tempRXBn_EIDL;
  1762   002788  5003               	movf	convertReg2ExtendedCANid@tempRXBn_EIDL^0,w,c
  1763   00278A  2412               	addwf	convertReg2ExtendedCANid@ConvertedID^0,w,c
  1764   00278C  6E12               	movwf	convertReg2ExtendedCANid@ConvertedID^0,c
  1765   00278E  0E00               	movlw	0
  1766   002790  2013               	addwfc	(convertReg2ExtendedCANid@ConvertedID+1)^0,w,c
  1767   002792  6E13               	movwf	(convertReg2ExtendedCANid@ConvertedID+1)^0,c
  1768   002794  0E00               	movlw	0
  1769   002796  2014               	addwfc	(convertReg2ExtendedCANid@ConvertedID+2)^0,w,c
  1770   002798  6E14               	movwf	(convertReg2ExtendedCANid@ConvertedID+2)^0,c
  1771   00279A  0E00               	movlw	0
  1772   00279C  2015               	addwfc	(convertReg2ExtendedCANid@ConvertedID+3)^0,w,c
  1773   00279E  6E15               	movwf	(convertReg2ExtendedCANid@ConvertedID+3)^0,c
  1774   0027A0                     
  1775                           ;mcc_generated_files/ecan.c: 385:     returnValue = ConvertedID;
  1776   0027A0  C012  F00C         	movff	convertReg2ExtendedCANid@ConvertedID,convertReg2ExtendedCANid@returnValue
  1777   0027A4  C013  F00D         	movff	convertReg2ExtendedCANid@ConvertedID+1,convertReg2ExtendedCANid@returnValue+1
  1778   0027A8  C014  F00E         	movff	convertReg2ExtendedCANid@ConvertedID+2,convertReg2ExtendedCANid@returnValue+2
  1779   0027AC  C015  F00F         	movff	convertReg2ExtendedCANid@ConvertedID+3,convertReg2ExtendedCANid@returnValue+3
  1780   0027B0                     
  1781                           ;mcc_generated_files/ecan.c: 386:     return (returnValue);
  1782   0027B0  C00C  F003         	movff	convertReg2ExtendedCANid@returnValue,?_convertReg2ExtendedCANid
  1783   0027B4  C00D  F004         	movff	convertReg2ExtendedCANid@returnValue+1,?_convertReg2ExtendedCANid+1
  1784   0027B8  C00E  F005         	movff	convertReg2ExtendedCANid@returnValue+2,?_convertReg2ExtendedCANid+2
  1785   0027BC  C00F  F006         	movff	convertReg2ExtendedCANid@returnValue+3,?_convertReg2ExtendedCANid+3
  1786   0027C0  0012               	return		;funcret
  1787   0027C2                     __end_of_convertReg2ExtendedCANid:
  1788                           	callstack 0
  1789                           
  1790 ;; *************** function _printf *****************
  1791 ;; Defined at:
  1792 ;;		line 5 in file "C:\Program Files\Microchip\xc8\v2.40\pic\sources\c99\common\printf.c"
  1793 ;; Parameters:    Size  Location     Type
  1794 ;;  fmt             2   27[COMRAM] PTR const unsigned char 
  1795 ;;		 -> STR_2(8), STR_1(11), 
  1796 ;; Auto vars:     Size  Location     Type
  1797 ;;  ap              2   29[COMRAM] PTR void [1]
  1798 ;;		 -> ?_printf(2), 
  1799 ;;  ret             2    0        int 
  1800 ;; Return value:  Size  Location     Type
  1801 ;;                  2   27[COMRAM] int 
  1802 ;; Registers used:
  1803 ;;		wreg, fsr1l, fsr1h, fsr2l, fsr2h, status,2, status,0, tblptrl, tblptrh, tblptru, cstack
  1804 ;; Tracked objects:
  1805 ;;		On entry : 0/0
  1806 ;;		On exit  : 0/0
  1807 ;;		Unchanged: 0/0
  1808 ;; Data sizes:     COMRAM   BANK0   BANK1   BANK2   BANK3   BANK4   BANK5   BANK6   BANK7   BANK8   BANK9  BANK10  BANK1
      +1  BANK12  BANK13  BANK14
  1809 ;;      Params:         2       0       0       0       0       0       0       0       0       0       0       0       
      +0       0       0       0
  1810 ;;      Locals:         2       0       0       0       0       0       0       0       0       0       0       0       
      +0       0       0       0
  1811 ;;      Temps:          0       0       0       0       0       0       0       0       0       0       0       0       
      +0       0       0       0
  1812 ;;      Totals:         4       0       0       0       0       0       0       0       0       0       0       0       
      +0       0       0       0
  1813 ;;Total ram usage:        4 bytes
  1814 ;; Hardware stack levels used: 1
  1815 ;; Hardware stack levels required when called: 9
  1816 ;; This function calls:
  1817 ;;		_vfprintf
  1818 ;; This function is called by:
  1819 ;;		_main
  1820 ;; This function uses a non-reentrant model
  1821 ;;
  1822                           
  1823                           	psect	text5
  1824   00313C                     __ptext5:
  1825                           	callstack 0
  1826   00313C                     _printf:
  1827                           	callstack 21
  1828   00313C  0E1E               	movlw	low (?_printf+2)
  1829   00313E  6E1E               	movwf	printf@ap^0,c
  1830   003140  0E00               	movlw	high (?_printf+2)
  1831   003142  6E1F               	movwf	(printf@ap+1)^0,c
  1832   003144  0E00               	movlw	0
  1833   003146  6E14               	movwf	vfprintf@fp^0,c
  1834   003148  0E00               	movlw	0
  1835   00314A  6E15               	movwf	(vfprintf@fp+1)^0,c
  1836   00314C  C01C  F016         	movff	printf@fmt,vfprintf@fmt
  1837   003150  C01D  F017         	movff	printf@fmt+1,vfprintf@fmt+1
  1838   003154  0E1E               	movlw	low printf@ap
  1839   003156  6E18               	movwf	vfprintf@ap^0,c
  1840   003158  0E00               	movlw	high printf@ap
  1841   00315A  6E19               	movwf	(vfprintf@ap+1)^0,c
  1842   00315C  EC96  F017         	call	_vfprintf	;wreg free
  1843   003160  0012               	return		;funcret
  1844   003162                     __end_of_printf:
  1845                           	callstack 0
  1846                           
  1847 ;; *************** function _vfprintf *****************
  1848 ;; Defined at:
  1849 ;;		line 1520 in file "C:\Program Files\Microchip\xc8\v2.40\pic\sources\c99\common\doprnt.c"
  1850 ;; Parameters:    Size  Location     Type
  1851 ;;  fp              2   19[COMRAM] PTR struct _IO_FILE
  1852 ;;		 -> NULL(0), 
  1853 ;;  fmt             2   21[COMRAM] PTR const unsigned char 
  1854 ;;		 -> STR_2(8), STR_1(11), 
  1855 ;;  ap              2   23[COMRAM] PTR PTR void 
  1856 ;;		 -> printf@ap(2), 
  1857 ;; Auto vars:     Size  Location     Type
  1858 ;;  cfmt            2   25[COMRAM] PTR unsigned char 
  1859 ;;		 -> STR_2(8), STR_1(11), 
  1860 ;; Return value:  Size  Location     Type
  1861 ;;                  2   19[COMRAM] int 
  1862 ;; Registers used:
  1863 ;;		wreg, fsr1l, fsr1h, fsr2l, fsr2h, status,2, status,0, tblptrl, tblptrh, tblptru, cstack
  1864 ;; Tracked objects:
  1865 ;;		On entry : 0/0
  1866 ;;		On exit  : 0/0
  1867 ;;		Unchanged: 0/0
  1868 ;; Data sizes:     COMRAM   BANK0   BANK1   BANK2   BANK3   BANK4   BANK5   BANK6   BANK7   BANK8   BANK9  BANK10  BANK1
      +1  BANK12  BANK13  BANK14
  1869 ;;      Params:         6       0       0       0       0       0       0       0       0       0       0       0       
      +0       0       0       0
  1870 ;;      Locals:         2       0       0       0       0       0       0       0       0       0       0       0       
      +0       0       0       0
  1871 ;;      Temps:          0       0       0       0       0       0       0       0       0       0       0       0       
      +0       0       0       0
  1872 ;;      Totals:         8       0       0       0       0       0       0       0       0       0       0       0       
      +0       0       0       0
  1873 ;;Total ram usage:        8 bytes
  1874 ;; Hardware stack levels used: 1
  1875 ;; Hardware stack levels required when called: 8
  1876 ;; This function calls:
  1877 ;;		_vfpfcnvrt
  1878 ;; This function is called by:
  1879 ;;		_printf
  1880 ;; This function uses a non-reentrant model
  1881 ;;
  1882                           
  1883                           	psect	text6
  1884   002F2C                     __ptext6:
  1885                           	callstack 0
  1886   002F2C                     _vfprintf:
  1887                           	callstack 21
  1888   002F2C                     
  1889                           ;C:\Program Files\Microchip\xc8\v2.40\pic\sources\c99\common\doprnt.c: 1520: int vfprint
      +                          f(FILE *fp, const char *fmt, va_list ap);C:\Program Files\Microchip\xc8\v2.40\pic\source
      +                          s\c99\common\doprnt.c: 1521: {;C:\Program Files\Microchip\xc8\v2.40\pic\sources\c99\comm
      +                          on\doprnt.c: 1523:     char *cfmt;;C:\Program Files\Microchip\xc8\v2.40\pic\sources\c99\
      +                          common\doprnt.c: 1525:     cfmt = (char *)fmt;
  1890   002F2C  C016  F01A         	movff	vfprintf@fmt,vfprintf@cfmt
  1891   002F30  C017  F01B         	movff	vfprintf@fmt+1,vfprintf@cfmt+1
  1892                           
  1893                           ;C:\Program Files\Microchip\xc8\v2.40\pic\sources\c99\common\doprnt.c: 1529:     while (
      +                          *cfmt) {
  1894   002F34  EFAA  F017         	goto	l3544
  1895   002F38                     l3542:
  1896                           
  1897                           ;C:\Program Files\Microchip\xc8\v2.40\pic\sources\c99\common\doprnt.c: 1533:    vfpfcnvr
      +                          t(fp, &cfmt, ap);
  1898   002F38  C014  F00E         	movff	vfprintf@fp,vfpfcnvrt@fp
  1899   002F3C  C015  F00F         	movff	vfprintf@fp+1,vfpfcnvrt@fp+1
  1900   002F40  0E1A               	movlw	low vfprintf@cfmt
  1901   002F42  6E10               	movwf	vfpfcnvrt@fmt^0,c
  1902   002F44  0E00               	movlw	high vfprintf@cfmt
  1903   002F46  6E11               	movwf	(vfpfcnvrt@fmt+1)^0,c
  1904   002F48  C018  F012         	movff	vfprintf@ap,vfpfcnvrt@ap
  1905   002F4C  C019  F013         	movff	vfprintf@ap+1,vfpfcnvrt@ap+1
  1906   002F50  ECEA  F016         	call	_vfpfcnvrt	;wreg free
  1907   002F54                     l3544:
  1908                           
  1909                           ;C:\Program Files\Microchip\xc8\v2.40\pic\sources\c99\common\doprnt.c: 1529:     while (
      +                          *cfmt) {
  1910   002F54  C01A  FFF6         	movff	vfprintf@cfmt,tblptrl
  1911   002F58  C01B  FFF7         	movff	vfprintf@cfmt+1,tblptrh
  1912   002F5C                     	if	0	;tblptru may be non-zero
  1913   002F5C                     	endif
  1914   002F5C                     	if	0	;tblptru may be non-zero
  1915   002F5C                     	endif
  1916   002F5C  0008               	tblrd		*
  1917   002F5E  50F5               	movf	tablat,w,c
  1918   002F60  0900               	iorlw	0
  1919   002F62  A4D8               	btfss	status,2,c
  1920   002F64  EFB6  F017         	goto	u2811
  1921   002F68  EFB8  F017         	goto	u2810
  1922   002F6C                     u2811:
  1923   002F6C  EF9C  F017         	goto	l3542
  1924   002F70                     u2810:
  1925   002F70                     
  1926                           ;C:\Program Files\Microchip\xc8\v2.40\pic\sources\c99\common\doprnt.c: 1538:  return 0;
  1927   002F70  0E00               	movlw	0
  1928   002F72  6E15               	movwf	(?_vfprintf+1)^0,c
  1929   002F74  0E00               	movlw	0
  1930   002F76  6E14               	movwf	?_vfprintf^0,c
  1931   002F78  0012               	return		;funcret
  1932   002F7A                     __end_of_vfprintf:
  1933                           	callstack 0
  1934                           
  1935 ;; *************** function _vfpfcnvrt *****************
  1936 ;; Defined at:
  1937 ;;		line 1007 in file "C:\Program Files\Microchip\xc8\v2.40\pic\sources\c99\common\doprnt.c"
  1938 ;; Parameters:    Size  Location     Type
  1939 ;;  fp              2   13[COMRAM] PTR struct _IO_FILE
  1940 ;;		 -> NULL(0), 
  1941 ;;  fmt             2   15[COMRAM] PTR PTR unsigned char 
  1942 ;;		 -> vfprintf@cfmt(2), 
  1943 ;;  ap              2   17[COMRAM] PTR PTR void 
  1944 ;;		 -> printf@ap(2), 
  1945 ;; Auto vars:     Size  Location     Type
  1946 ;;  convarg         8    0        struct .
  1947 ;;  cp              3    0        PTR unsigned char 
  1948 ;;  i               2    0        int 
  1949 ;;  done            2    0        int 
  1950 ;;  c               1    0        unsigned char 
  1951 ;; Return value:  Size  Location     Type
  1952 ;;                  1    wreg      void 
  1953 ;; Registers used:
  1954 ;;		wreg, fsr1l, fsr1h, fsr2l, fsr2h, status,2, status,0, tblptrl, tblptrh, tblptru, cstack
  1955 ;; Tracked objects:
  1956 ;;		On entry : 0/0
  1957 ;;		On exit  : 0/0
  1958 ;;		Unchanged: 0/0
  1959 ;; Data sizes:     COMRAM   BANK0   BANK1   BANK2   BANK3   BANK4   BANK5   BANK6   BANK7   BANK8   BANK9  BANK10  BANK1
      +1  BANK12  BANK13  BANK14
  1960 ;;      Params:         6       0       0       0       0       0       0       0       0       0       0       0       
      +0       0       0       0
  1961 ;;      Locals:         0       0       0       0       0       0       0       0       0       0       0       0       
      +0       0       0       0
  1962 ;;      Temps:          0       0       0       0       0       0       0       0       0       0       0       0       
      +0       0       0       0
  1963 ;;      Totals:         6       0       0       0       0       0       0       0       0       0       0       0       
      +0       0       0       0
  1964 ;;Total ram usage:        6 bytes
  1965 ;; Hardware stack levels used: 1
  1966 ;; Hardware stack levels required when called: 7
  1967 ;; This function calls:
  1968 ;;		_fputc
  1969 ;; This function is called by:
  1970 ;;		_vfprintf
  1971 ;; This function uses a non-reentrant model
  1972 ;;
  1973                           
  1974                           	psect	text7
  1975   002DD4                     __ptext7:
  1976                           	callstack 0
  1977   002DD4                     _vfpfcnvrt:
  1978                           	callstack 21
  1979   002DD4                     
  1980                           ;C:\Program Files\Microchip\xc8\v2.40\pic\sources\c99\common\doprnt.c: 1007: vfpfcnvrt(F
      +                          ILE *fp, char *fmt[], va_list ap);C:\Program Files\Microchip\xc8\v2.40\pic\sources\c99\c
      +                          ommon\doprnt.c: 1008: {;C:\Program Files\Microchip\xc8\v2.40\pic\sources\c99\common\dopr
      +                          nt.c: 1009:     char c, *cp;;C:\Program Files\Microchip\xc8\v2.40\pic\sources\c99\common
      +                          \doprnt.c: 1010:     int done, i;;C:\Program Files\Microchip\xc8\v2.40\pic\sources\c99\c
      +                          ommon\doprnt.c: 1016:  } convarg;;C:\Program Files\Microchip\xc8\v2.40\pic\sources\c99\c
      +                          ommon\doprnt.c: 1019:     if ((*fmt)[0] == '%') {
  1981   002DD4  C010  FFD9         	movff	vfpfcnvrt@fmt,fsr2l
  1982   002DD8  C011  FFDA         	movff	vfpfcnvrt@fmt+1,fsr2h
  1983   002DDC  CFDE FFF6          	movff	postinc2,tblptrl
  1984   002DE0  CFDD FFF7          	movff	postdec2,tblptrh
  1985   002DE4                     	if	0	;tblptru may be non-zero
  1986   002DE4                     	endif
  1987   002DE4                     	if	0	;tblptru may be non-zero
  1988   002DE4                     	endif
  1989   002DE4  0008               	tblrd		*
  1990   002DE6  50F5               	movf	tablat,w,c
  1991   002DE8  0A25               	xorlw	37
  1992   002DEA  A4D8               	btfss	status,2,c
  1993   002DEC  EFFA  F016         	goto	u2561
  1994   002DF0  EFFC  F016         	goto	u2560
  1995   002DF4                     u2561:
  1996   002DF4  EF15  F017         	goto	l3282
  1997   002DF8                     u2560:
  1998   002DF8                     
  1999                           ;C:\Program Files\Microchip\xc8\v2.40\pic\sources\c99\common\doprnt.c: 1020:         ++*
      +                          fmt;
  2000   002DF8  C010  FFD9         	movff	vfpfcnvrt@fmt,fsr2l
  2001   002DFC  C011  FFDA         	movff	vfpfcnvrt@fmt+1,fsr2h
  2002   002E00  2ADE               	incf	postinc2,f,c
  2003   002E02  0E00               	movlw	0
  2004   002E04  22DD               	addwfc	postdec2,f,c
  2005   002E06                     
  2006                           ;C:\Program Files\Microchip\xc8\v2.40\pic\sources\c99\common\doprnt.c: 1022:         fla
      +                          gs = width = 0;
  2007   002E06  0E00               	movlw	0
  2008   002E08  0100               	movlb	0	; () banked
  2009   002E0A  6F91               	movwf	(_width+1)& (0+255),b
  2010   002E0C  0E00               	movlw	0
  2011   002E0E  6F90               	movwf	_width& (0+255),b
  2012   002E10  C090  F053         	movff	_width,_flags
  2013   002E14                     
  2014                           ; BSR set to: 0
  2015                           ;C:\Program Files\Microchip\xc8\v2.40\pic\sources\c99\common\doprnt.c: 1023:         pre
      +                          c = -1;
  2016   002E14  6992               	setf	_prec& (0+255),b
  2017   002E16  6993               	setf	(_prec+1)& (0+255),b
  2018   002E18                     l3278:
  2019                           
  2020                           ;C:\Program Files\Microchip\xc8\v2.40\pic\sources\c99\common\doprnt.c: 1509:         ++*
      +                          fmt;
  2021   002E18  C010  FFD9         	movff	vfpfcnvrt@fmt,fsr2l
  2022   002E1C  C011  FFDA         	movff	vfpfcnvrt@fmt+1,fsr2h
  2023   002E20  2ADE               	incf	postinc2,f,c
  2024   002E22  0E00               	movlw	0
  2025   002E24  22DD               	addwfc	postdec2,f,c
  2026   002E26  EF29  F017         	goto	l1422
  2027   002E2A                     l3282:
  2028                           
  2029                           ;C:\Program Files\Microchip\xc8\v2.40\pic\sources\c99\common\doprnt.c: 1514:     fputc((
      +                          int)(*fmt)[0], fp);
  2030   002E2A  C010  FFD9         	movff	vfpfcnvrt@fmt,fsr2l
  2031   002E2E  C011  FFDA         	movff	vfpfcnvrt@fmt+1,fsr2h
  2032   002E32  CFDE FFF6          	movff	postinc2,tblptrl
  2033   002E36  CFDD FFF7          	movff	postdec2,tblptrh
  2034   002E3A                     	if	0	;tblptru may be non-zero
  2035   002E3A                     	endif
  2036   002E3A                     	if	0	;tblptru may be non-zero
  2037   002E3A                     	endif
  2038   002E3A  0008               	tblrd		*
  2039   002E3C  50F5               	movf	tablat,w,c
  2040   002E3E  6E05               	movwf	fputc@c^0,c
  2041   002E40  6A06               	clrf	(fputc@c+1)^0,c
  2042   002E42  C00E  F007         	movff	vfpfcnvrt@fp,fputc@fp
  2043   002E46  C00F  F008         	movff	vfpfcnvrt@fp+1,fputc@fp+1
  2044   002E4A  EC9F  F016         	call	_fputc	;wreg free
  2045   002E4E  EF0C  F017         	goto	l3278
  2046   002E52                     l1422:
  2047   002E52  0012               	return		;funcret
  2048   002E54                     __end_of_vfpfcnvrt:
  2049                           	callstack 0
  2050                           
  2051 ;; *************** function _fputc *****************
  2052 ;; Defined at:
  2053 ;;		line 8 in file "C:\Program Files\Microchip\xc8\v2.40\pic\sources\c99\common\nf_fputc.c"
  2054 ;; Parameters:    Size  Location     Type
  2055 ;;  c               2    4[COMRAM] int 
  2056 ;;  fp              2    6[COMRAM] PTR struct _IO_FILE
  2057 ;;		 -> NULL(0), 
  2058 ;; Auto vars:     Size  Location     Type
  2059 ;;		None
  2060 ;; Return value:  Size  Location     Type
  2061 ;;                  2    4[COMRAM] int 
  2062 ;; Registers used:
  2063 ;;		wreg, fsr1l, fsr1h, fsr2l, fsr2h, status,2, status,0, cstack
  2064 ;; Tracked objects:
  2065 ;;		On entry : 0/0
  2066 ;;		On exit  : 0/0
  2067 ;;		Unchanged: 0/0
  2068 ;; Data sizes:     COMRAM   BANK0   BANK1   BANK2   BANK3   BANK4   BANK5   BANK6   BANK7   BANK8   BANK9  BANK10  BANK1
      +1  BANK12  BANK13  BANK14
  2069 ;;      Params:         4       0       0       0       0       0       0       0       0       0       0       0       
      +0       0       0       0
  2070 ;;      Locals:         0       0       0       0       0       0       0       0       0       0       0       0       
      +0       0       0       0
  2071 ;;      Temps:          5       0       0       0       0       0       0       0       0       0       0       0       
      +0       0       0       0
  2072 ;;      Totals:         9       0       0       0       0       0       0       0       0       0       0       0       
      +0       0       0       0
  2073 ;;Total ram usage:        9 bytes
  2074 ;; Hardware stack levels used: 1
  2075 ;; Hardware stack levels required when called: 6
  2076 ;; This function calls:
  2077 ;;		_putch
  2078 ;; This function is called by:
  2079 ;;		_vfpfcnvrt
  2080 ;; This function uses a non-reentrant model
  2081 ;;
  2082                           
  2083                           	psect	text8
  2084   002D3E                     __ptext8:
  2085                           	callstack 0
  2086   002D3E                     _fputc:
  2087                           	callstack 21
  2088   002D3E  5007               	movf	fputc@fp^0,w,c
  2089   002D40  1008               	iorwf	(fputc@fp+1)^0,w,c
  2090   002D42  B4D8               	btfsc	status,2,c
  2091   002D44  EFA6  F016         	goto	u1591
  2092   002D48  EFA8  F016         	goto	u1590
  2093   002D4C                     u1591:
  2094   002D4C  EFB1  F016         	goto	l2696
  2095   002D50                     u1590:
  2096   002D50  5007               	movf	fputc@fp^0,w,c
  2097   002D52  1008               	iorwf	(fputc@fp+1)^0,w,c
  2098   002D54  A4D8               	btfss	status,2,c
  2099   002D56  EFAF  F016         	goto	u1601
  2100   002D5A  EFB1  F016         	goto	u1600
  2101   002D5E                     u1601:
  2102   002D5E  EFB6  F016         	goto	l2698
  2103   002D62                     u1600:
  2104   002D62                     l2696:
  2105   002D62  5005               	movf	fputc@c^0,w,c
  2106   002D64  EC1C  F019         	call	_putch
  2107   002D68  EFE9  F016         	goto	l1440
  2108   002D6C                     l2698:
  2109   002D6C  EE20 F009          	lfsr	2,9
  2110   002D70  5007               	movf	fputc@fp^0,w,c
  2111   002D72  26D9               	addwf	fsr2l,f,c
  2112   002D74  5008               	movf	(fputc@fp+1)^0,w,c
  2113   002D76  22DA               	addwfc	fsr2h,f,c
  2114   002D78  50DE               	movf	postinc2,w,c
  2115   002D7A  10DE               	iorwf	postinc2,w,c
  2116   002D7C  B4D8               	btfsc	status,2,c
  2117   002D7E  EFC3  F016         	goto	u1611
  2118   002D82  EFC5  F016         	goto	u1610
  2119   002D86                     u1611:
  2120   002D86  EFE0  F016         	goto	l2702
  2121   002D8A                     u1610:
  2122   002D8A  EE20 F009          	lfsr	2,9
  2123   002D8E  5007               	movf	fputc@fp^0,w,c
  2124   002D90  26D9               	addwf	fsr2l,f,c
  2125   002D92  5008               	movf	(fputc@fp+1)^0,w,c
  2126   002D94  22DA               	addwfc	fsr2h,f,c
  2127   002D96  EE10 F003          	lfsr	1,3
  2128   002D9A  5007               	movf	fputc@fp^0,w,c
  2129   002D9C  26E1               	addwf	fsr1l,f,c
  2130   002D9E  5008               	movf	(fputc@fp+1)^0,w,c
  2131   002DA0  22E2               	addwfc	fsr1h,f,c
  2132   002DA2  50DE               	movf	postinc2,w,c
  2133   002DA4  5CE6               	subwf	postinc1,w,c
  2134   002DA6  50E6               	movf	postinc1,w,c
  2135   002DA8  0A80               	xorlw	128
  2136   002DAA  6E0D               	movwf	(??_fputc+4)^0,c
  2137   002DAC  50DE               	movf	postinc2,w,c
  2138   002DAE  0A80               	xorlw	128
  2139   002DB0  580D               	subwfb	(??_fputc+4)^0,w,c
  2140   002DB2  B0D8               	btfsc	status,0,c
  2141   002DB4  EFDE  F016         	goto	u1621
  2142   002DB8  EFE0  F016         	goto	u1620
  2143   002DBC                     u1621:
  2144   002DBC  EFE9  F016         	goto	l1440
  2145   002DC0                     u1620:
  2146   002DC0                     l2702:
  2147   002DC0  EE20 F003          	lfsr	2,3
  2148   002DC4  5007               	movf	fputc@fp^0,w,c
  2149   002DC6  26D9               	addwf	fsr2l,f,c
  2150   002DC8  5008               	movf	(fputc@fp+1)^0,w,c
  2151   002DCA  22DA               	addwfc	fsr2h,f,c
  2152   002DCC  2ADE               	incf	postinc2,f,c
  2153   002DCE  0E00               	movlw	0
  2154   002DD0  22DD               	addwfc	postdec2,f,c
  2155   002DD2                     l1440:
  2156   002DD2  0012               	return		;funcret
  2157   002DD4                     __end_of_fputc:
  2158                           	callstack 0
  2159                           
  2160 ;; *************** function _putch *****************
  2161 ;; Defined at:
  2162 ;;		line 146 in file "mcc_generated_files/eusart1.c"
  2163 ;; Parameters:    Size  Location     Type
  2164 ;;  txData          1    wreg     unsigned char 
  2165 ;; Auto vars:     Size  Location     Type
  2166 ;;  txData          1    3[COMRAM] unsigned char 
  2167 ;; Return value:  Size  Location     Type
  2168 ;;                  1    wreg      void 
  2169 ;; Registers used:
  2170 ;;		wreg, status,2, cstack
  2171 ;; Tracked objects:
  2172 ;;		On entry : 0/0
  2173 ;;		On exit  : 0/0
  2174 ;;		Unchanged: 0/0
  2175 ;; Data sizes:     COMRAM   BANK0   BANK1   BANK2   BANK3   BANK4   BANK5   BANK6   BANK7   BANK8   BANK9  BANK10  BANK1
      +1  BANK12  BANK13  BANK14
  2176 ;;      Params:         0       0       0       0       0       0       0       0       0       0       0       0       
      +0       0       0       0
  2177 ;;      Locals:         1       0       0       0       0       0       0       0       0       0       0       0       
      +0       0       0       0
  2178 ;;      Temps:          0       0       0       0       0       0       0       0       0       0       0       0       
      +0       0       0       0
  2179 ;;      Totals:         1       0       0       0       0       0       0       0       0       0       0       0       
      +0       0       0       0
  2180 ;;Total ram usage:        1 bytes
  2181 ;; Hardware stack levels used: 1
  2182 ;; Hardware stack levels required when called: 5
  2183 ;; This function calls:
  2184 ;;		_EUSART1_Write
  2185 ;; This function is called by:
  2186 ;;		_fputc
  2187 ;; This function uses a non-reentrant model
  2188 ;;
  2189                           
  2190                           	psect	text9
  2191   003238                     __ptext9:
  2192                           	callstack 0
  2193   003238                     _putch:
  2194                           	callstack 21
  2195                           
  2196                           ;incstack = 0
  2197                           ;putch@txData stored from wreg
  2198   003238  6E04               	movwf	putch@txData^0,c
  2199   00323A                     
  2200                           ;mcc_generated_files/eusart1.c: 146: void putch(char txData);mcc_generated_files/eusart1
      +                          .c: 147: {;mcc_generated_files/eusart1.c: 148:     EUSART1_Write(txData);
  2201   00323A  5004               	movf	putch@txData^0,w,c
  2202   00323C  EC01  F019         	call	_EUSART1_Write
  2203   003240  0012               	return		;funcret
  2204   003242                     __end_of_putch:
  2205                           	callstack 0
  2206                           
  2207 ;; *************** function _mesure *****************
  2208 ;; Defined at:
  2209 ;;		line 185 in file "main.c"
  2210 ;; Parameters:    Size  Location     Type
  2211 ;;		None
  2212 ;; Auto vars:     Size  Location     Type
  2213 ;;		None
  2214 ;; Return value:  Size  Location     Type
  2215 ;;                  1    wreg      void 
  2216 ;; Registers used:
  2217 ;;		wreg, status,2, status,0, prodl, prodh, cstack
  2218 ;; Tracked objects:
  2219 ;;		On entry : 0/0
  2220 ;;		On exit  : 0/0
  2221 ;;		Unchanged: 0/0
  2222 ;; Data sizes:     COMRAM   BANK0   BANK1   BANK2   BANK3   BANK4   BANK5   BANK6   BANK7   BANK8   BANK9  BANK10  BANK1
      +1  BANK12  BANK13  BANK14
  2223 ;;      Params:         0       0       0       0       0       0       0       0       0       0       0       0       
      +0       0       0       0
  2224 ;;      Locals:         0       0       0       0       0       0       0       0       0       0       0       0       
      +0       0       0       0
  2225 ;;      Temps:          0       0       0       0       0       0       0       0       0       0       0       0       
      +0       0       0       0
  2226 ;;      Totals:         0       0       0       0       0       0       0       0       0       0       0       0       
      +0       0       0       0
  2227 ;;Total ram usage:        0 bytes
  2228 ;; Hardware stack levels used: 1
  2229 ;; Hardware stack levels required when called: 6
  2230 ;; This function calls:
  2231 ;;		_ADC_GetConversion
  2232 ;;		___fltol
  2233 ;;		___wmul
  2234 ;;		_temperature
  2235 ;; This function is called by:
  2236 ;;		_main
  2237 ;; This function uses a non-reentrant model
  2238 ;;
  2239                           
  2240                           	psect	text10
  2241   002BB8                     __ptext10:
  2242                           	callstack 0
  2243   002BB8                     _mesure:
  2244                           	callstack 24
  2245   002BB8                     
  2246                           ;main.c: 186:     uT_vehicule_ADC = ADC_GetConversion(0);
  2247   002BB8  0E00               	movlw	0
  2248   002BBA  ECFF  F017         	call	_ADC_GetConversion
  2249   002BBE  C003  F096         	movff	?_ADC_GetConversion,_uT_vehicule_ADC
  2250   002BC2  C004  F097         	movff	?_ADC_GetConversion+1,_uT_vehicule_ADC+1
  2251                           
  2252                           ;main.c: 187:     uT_consigne_ADC = ADC_GetConversion(1);
  2253   002BC6  0E01               	movlw	1
  2254   002BC8  ECFF  F017         	call	_ADC_GetConversion
  2255   002BCC  C003  F094         	movff	?_ADC_GetConversion,_uT_consigne_ADC
  2256   002BD0  C004  F095         	movff	?_ADC_GetConversion+1,_uT_consigne_ADC+1
  2257   002BD4                     
  2258                           ;main.c: 189:     fT_vehicule = temperature(uT_vehicule_ADC);
  2259   002BD4  C096  F043         	movff	_uT_vehicule_ADC,temperature@uibrute
  2260   002BD8  C097  F044         	movff	_uT_vehicule_ADC+1,temperature@uibrute+1
  2261   002BDC  EC47  F016         	call	_temperature	;wreg free
  2262   002BE0  C043  F08C         	movff	?_temperature,_fT_vehicule
  2263   002BE4  C044  F08D         	movff	?_temperature+1,_fT_vehicule+1
  2264   002BE8  C045  F08E         	movff	?_temperature+2,_fT_vehicule+2
  2265   002BEC  C046  F08F         	movff	?_temperature+3,_fT_vehicule+3
  2266   002BF0                     
  2267                           ;main.c: 190:     fT_consigne = temperature(uT_consigne_ADC);
  2268   002BF0  C094  F043         	movff	_uT_consigne_ADC,temperature@uibrute
  2269   002BF4  C095  F044         	movff	_uT_consigne_ADC+1,temperature@uibrute+1
  2270   002BF8  EC47  F016         	call	_temperature	;wreg free
  2271   002BFC  C043  F088         	movff	?_temperature,_fT_consigne
  2272   002C00  C044  F089         	movff	?_temperature+1,_fT_consigne+1
  2273   002C04  C045  F08A         	movff	?_temperature+2,_fT_consigne+2
  2274   002C08  C046  F08B         	movff	?_temperature+3,_fT_consigne+3
  2275                           
  2276                           ;main.c: 192:     uT_vehicule_CAN = (int)(fT_vehicule);
  2277   002C0C  C08C  F003         	movff	_fT_vehicule,___fltol@f1
  2278   002C10  C08D  F004         	movff	_fT_vehicule+1,___fltol@f1+1
  2279   002C14  C08E  F005         	movff	_fT_vehicule+2,___fltol@f1+2
  2280   002C18  C08F  F006         	movff	_fT_vehicule+3,___fltol@f1+3
  2281   002C1C  EC6A  F014         	call	___fltol	;wreg free
  2282   002C20  C003  F04F         	movff	?___fltol,_uT_vehicule_CAN
  2283   002C24  C004  F050         	movff	?___fltol+1,_uT_vehicule_CAN+1
  2284                           
  2285                           ;main.c: 193:     uT_consigne_CAN = (int)(fT_consigne);
  2286   002C28  C088  F003         	movff	_fT_consigne,___fltol@f1
  2287   002C2C  C089  F004         	movff	_fT_consigne+1,___fltol@f1+1
  2288   002C30  C08A  F005         	movff	_fT_consigne+2,___fltol@f1+2
  2289   002C34  C08B  F006         	movff	_fT_consigne+3,___fltol@f1+3
  2290   002C38  EC6A  F014         	call	___fltol	;wreg free
  2291   002C3C  C003  F04D         	movff	?___fltol,_uT_consigne_CAN
  2292   002C40  C004  F04E         	movff	?___fltol+1,_uT_consigne_CAN+1
  2293   002C44                     
  2294                           ;main.c: 194:     uT_vehicule_CAN = (uT_vehicule_CAN *10);
  2295   002C44  C04F  F003         	movff	_uT_vehicule_CAN,___wmul@multiplier
  2296   002C48  C050  F004         	movff	_uT_vehicule_CAN+1,___wmul@multiplier+1
  2297   002C4C  0E00               	movlw	0
  2298   002C4E  6E06               	movwf	(___wmul@multiplicand+1)^0,c
  2299   002C50  0E0A               	movlw	10
  2300   002C52  6E05               	movwf	___wmul@multiplicand^0,c
  2301   002C54  ECB1  F018         	call	___wmul	;wreg free
  2302   002C58  C003  F04F         	movff	?___wmul,_uT_vehicule_CAN
  2303   002C5C  C004  F050         	movff	?___wmul+1,_uT_vehicule_CAN+1
  2304   002C60                     
  2305                           ;main.c: 195:     uT_vehicule_CAN= (~uT_vehicule_CAN) +1;
  2306   002C60  6C4F               	negf	_uT_vehicule_CAN^0,c
  2307   002C62  1E50               	comf	(_uT_vehicule_CAN+1)^0,f,c
  2308   002C64  B0D8               	btfsc	status,0,c
  2309   002C66  2A50               	incf	(_uT_vehicule_CAN+1)^0,f,c
  2310   002C68                     
  2311                           ;main.c: 196:     uT_consigne_CAN = (uT_consigne_CAN *10);
  2312   002C68  C04D  F003         	movff	_uT_consigne_CAN,___wmul@multiplier
  2313   002C6C  C04E  F004         	movff	_uT_consigne_CAN+1,___wmul@multiplier+1
  2314   002C70  0E00               	movlw	0
  2315   002C72  6E06               	movwf	(___wmul@multiplicand+1)^0,c
  2316   002C74  0E0A               	movlw	10
  2317   002C76  6E05               	movwf	___wmul@multiplicand^0,c
  2318   002C78  ECB1  F018         	call	___wmul	;wreg free
  2319   002C7C  C003  F04D         	movff	?___wmul,_uT_consigne_CAN
  2320   002C80  C004  F04E         	movff	?___wmul+1,_uT_consigne_CAN+1
  2321   002C84                     
  2322                           ;main.c: 197:     uT_consigne_CAN = (~uT_consigne_CAN) +1;
  2323   002C84  6C4D               	negf	_uT_consigne_CAN^0,c
  2324   002C86  1E4E               	comf	(_uT_consigne_CAN+1)^0,f,c
  2325   002C88  B0D8               	btfsc	status,0,c
  2326   002C8A  2A4E               	incf	(_uT_consigne_CAN+1)^0,f,c
  2327   002C8C  0012               	return		;funcret
  2328   002C8E                     __end_of_mesure:
  2329                           	callstack 0
  2330                           
  2331 ;; *************** function _temperature *****************
  2332 ;; Defined at:
  2333 ;;		line 200 in file "main.c"
  2334 ;; Parameters:    Size  Location     Type
  2335 ;;  uibrute         2   66[COMRAM] unsigned short 
  2336 ;; Auto vars:     Size  Location     Type
  2337 ;;  fcelsius        4    4[BANK0 ] float 
  2338 ;;  ftemperature    4    0[BANK0 ] float 
  2339 ;; Return value:  Size  Location     Type
  2340 ;;                  4   66[COMRAM] float 
  2341 ;; Registers used:
  2342 ;;		wreg, status,2, status,0, prodl, prodh, cstack
  2343 ;; Tracked objects:
  2344 ;;		On entry : 0/0
  2345 ;;		On exit  : 0/0
  2346 ;;		Unchanged: 0/0
  2347 ;; Data sizes:     COMRAM   BANK0   BANK1   BANK2   BANK3   BANK4   BANK5   BANK6   BANK7   BANK8   BANK9  BANK10  BANK1
      +1  BANK12  BANK13  BANK14
  2348 ;;      Params:         4       0       0       0       0       0       0       0       0       0       0       0       
      +0       0       0       0
  2349 ;;      Locals:         0       8       0       0       0       0       0       0       0       0       0       0       
      +0       0       0       0
  2350 ;;      Temps:          0       0       0       0       0       0       0       0       0       0       0       0       
      +0       0       0       0
  2351 ;;      Totals:         4       8       0       0       0       0       0       0       0       0       0       0       
      +0       0       0       0
  2352 ;;Total ram usage:       12 bytes
  2353 ;; Hardware stack levels used: 1
  2354 ;; Hardware stack levels required when called: 5
  2355 ;; This function calls:
  2356 ;;		___fladd
  2357 ;;		___fldiv
  2358 ;;		___flmul
  2359 ;;		___xxtofl
  2360 ;; This function is called by:
  2361 ;;		_mesure
  2362 ;; This function uses a non-reentrant model
  2363 ;;
  2364                           
  2365                           	psect	text11
  2366   002C8E                     __ptext11:
  2367                           	callstack 0
  2368   002C8E                     _temperature:
  2369                           	callstack 24
  2370   002C8E                     
  2371                           ;main.c: 201:     float ftemperature;;main.c: 202:     float fcelsius;;main.c: 203:     
      +                          ftemperature = (uibrute / 4095.0) * 500;
  2372   002C8E  0E00               	movlw	0
  2373   002C90  6E15               	movwf	___fldiv@a^0,c
  2374   002C92  0EF0               	movlw	240
  2375   002C94  6E16               	movwf	(___fldiv@a+1)^0,c
  2376   002C96  0E7F               	movlw	127
  2377   002C98  6E17               	movwf	(___fldiv@a+2)^0,c
  2378   002C9A  0E45               	movlw	69
  2379   002C9C  6E18               	movwf	(___fldiv@a+3)^0,c
  2380   002C9E  C043  F003         	movff	temperature@uibrute,___xxtofl@val
  2381   002CA2  C044  F004         	movff	temperature@uibrute+1,___xxtofl@val+1
  2382   002CA6  6A05               	clrf	(___xxtofl@val+2)^0,c
  2383   002CA8  6A06               	clrf	(___xxtofl@val+3)^0,c
  2384   002CAA  0E00               	movlw	0
  2385   002CAC  ECFF  F010         	call	___xxtofl
  2386   002CB0  C003  F011         	movff	?___xxtofl,___fldiv@b
  2387   002CB4  C004  F012         	movff	?___xxtofl+1,___fldiv@b+1
  2388   002CB8  C005  F013         	movff	?___xxtofl+2,___fldiv@b+2
  2389   002CBC  C006  F014         	movff	?___xxtofl+3,___fldiv@b+3
  2390   002CC0  EC80  F00C         	call	___fldiv	;wreg free
  2391   002CC4  C011  F02A         	movff	?___fldiv,___flmul@b
  2392   002CC8  C012  F02B         	movff	?___fldiv+1,___flmul@b+1
  2393   002CCC  C013  F02C         	movff	?___fldiv+2,___flmul@b+2
  2394   002CD0  C014  F02D         	movff	?___fldiv+3,___flmul@b+3
  2395   002CD4  0E00               	movlw	0
  2396   002CD6  6E2E               	movwf	___flmul@a^0,c
  2397   002CD8  0E00               	movlw	0
  2398   002CDA  6E2F               	movwf	(___flmul@a+1)^0,c
  2399   002CDC  0EFA               	movlw	250
  2400   002CDE  6E30               	movwf	(___flmul@a+2)^0,c
  2401   002CE0  0E43               	movlw	67
  2402   002CE2  6E31               	movwf	(___flmul@a+3)^0,c
  2403   002CE4  EC6B  F00A         	call	___flmul	;wreg free
  2404   002CE8  C02A  F0C0         	movff	?___flmul,temperature@ftemperature
  2405   002CEC  C02B  F0C1         	movff	?___flmul+1,temperature@ftemperature+1
  2406   002CF0  C02C  F0C2         	movff	?___flmul+2,temperature@ftemperature+2
  2407   002CF4  C02D  F0C3         	movff	?___flmul+3,temperature@ftemperature+3
  2408   002CF8                     
  2409                           ;main.c: 204:     fcelsius = (ftemperature - 250);
  2410   002CF8  C0C0  F003         	movff	temperature@ftemperature,___fladd@b
  2411   002CFC  C0C1  F004         	movff	temperature@ftemperature+1,___fladd@b+1
  2412   002D00  C0C2  F005         	movff	temperature@ftemperature+2,___fladd@b+2
  2413   002D04  C0C3  F006         	movff	temperature@ftemperature+3,___fladd@b+3
  2414   002D08  0E00               	movlw	0
  2415   002D0A  6E07               	movwf	___fladd@a^0,c
  2416   002D0C  0E00               	movlw	0
  2417   002D0E  6E08               	movwf	(___fladd@a+1)^0,c
  2418   002D10  0E7A               	movlw	122
  2419   002D12  6E09               	movwf	(___fladd@a+2)^0,c
  2420   002D14  0EC3               	movlw	195
  2421   002D16  6E0A               	movwf	(___fladd@a+3)^0,c
  2422   002D18  EC0B  F008         	call	___fladd	;wreg free
  2423   002D1C  C003  F0C4         	movff	?___fladd,temperature@fcelsius
  2424   002D20  C004  F0C5         	movff	?___fladd+1,temperature@fcelsius+1
  2425   002D24  C005  F0C6         	movff	?___fladd+2,temperature@fcelsius+2
  2426   002D28  C006  F0C7         	movff	?___fladd+3,temperature@fcelsius+3
  2427   002D2C                     
  2428                           ;main.c: 205:     return fcelsius;
  2429   002D2C  C0C4  F043         	movff	temperature@fcelsius,?_temperature
  2430   002D30  C0C5  F044         	movff	temperature@fcelsius+1,?_temperature+1
  2431   002D34  C0C6  F045         	movff	temperature@fcelsius+2,?_temperature+2
  2432   002D38  C0C7  F046         	movff	temperature@fcelsius+3,?_temperature+3
  2433   002D3C  0012               	return		;funcret
  2434   002D3E                     __end_of_temperature:
  2435                           	callstack 0
  2436                           
  2437 ;; *************** function ___xxtofl *****************
  2438 ;; Defined at:
  2439 ;;		line 10 in file "C:\Program Files\Microchip\xc8\v2.40\pic\sources\c99\common\xxtofl.c"
  2440 ;; Parameters:    Size  Location     Type
  2441 ;;  sign            1    wreg     unsigned char 
  2442 ;;  val             4    2[COMRAM] long 
  2443 ;; Auto vars:     Size  Location     Type
  2444 ;;  sign            1   10[COMRAM] unsigned char 
  2445 ;;  arg             4   12[COMRAM] unsigned long 
  2446 ;;  exp             1   11[COMRAM] unsigned char 
  2447 ;; Return value:  Size  Location     Type
  2448 ;;                  4    2[COMRAM] unsigned char 
  2449 ;; Registers used:
  2450 ;;		wreg, status,2, status,0
  2451 ;; Tracked objects:
  2452 ;;		On entry : 0/0
  2453 ;;		On exit  : 0/0
  2454 ;;		Unchanged: 0/0
  2455 ;; Data sizes:     COMRAM   BANK0   BANK1   BANK2   BANK3   BANK4   BANK5   BANK6   BANK7   BANK8   BANK9  BANK10  BANK1
      +1  BANK12  BANK13  BANK14
  2456 ;;      Params:         4       0       0       0       0       0       0       0       0       0       0       0       
      +0       0       0       0
  2457 ;;      Locals:         6       0       0       0       0       0       0       0       0       0       0       0       
      +0       0       0       0
  2458 ;;      Temps:          4       0       0       0       0       0       0       0       0       0       0       0       
      +0       0       0       0
  2459 ;;      Totals:        14       0       0       0       0       0       0       0       0       0       0       0       
      +0       0       0       0
  2460 ;;Total ram usage:       14 bytes
  2461 ;; Hardware stack levels used: 1
  2462 ;; Hardware stack levels required when called: 4
  2463 ;; This function calls:
  2464 ;;		Nothing
  2465 ;; This function is called by:
  2466 ;;		_temperature
  2467 ;; This function uses a non-reentrant model
  2468 ;;
  2469                           
  2470                           	psect	text12
  2471   0021FE                     __ptext12:
  2472                           	callstack 0
  2473   0021FE                     ___xxtofl:
  2474                           	callstack 24
  2475                           
  2476                           ;incstack = 0
  2477                           ;___xxtofl@sign stored from wreg
  2478   0021FE  6E0B               	movwf	___xxtofl@sign^0,c
  2479   002200  500B               	movf	___xxtofl@sign^0,w,c
  2480   002202  B4D8               	btfsc	status,2,c
  2481   002204  EF06  F011         	goto	u3881
  2482   002208  EF08  F011         	goto	u3880
  2483   00220C                     u3881:
  2484   00220C  EF2A  F011         	goto	l1373
  2485   002210                     u3880:
  2486   002210  BE06               	btfsc	(___xxtofl@val+3)^0,7,c
  2487   002212  EF0F  F011         	goto	u3890
  2488   002216  EF0D  F011         	goto	u3891
  2489   00221A                     u3891:
  2490   00221A  EF2A  F011         	goto	l1373
  2491   00221E                     u3890:
  2492   00221E  C003  F007         	movff	___xxtofl@val,??___xxtofl
  2493   002222  C004  F008         	movff	___xxtofl@val+1,??___xxtofl+1
  2494   002226  C005  F009         	movff	___xxtofl@val+2,??___xxtofl+2
  2495   00222A  C006  F00A         	movff	___xxtofl@val+3,??___xxtofl+3
  2496   00222E  1E07               	comf	??___xxtofl^0,f,c
  2497   002230  1E08               	comf	(??___xxtofl+1)^0,f,c
  2498   002232  1E09               	comf	(??___xxtofl+2)^0,f,c
  2499   002234  1E0A               	comf	(??___xxtofl+3)^0,f,c
  2500   002236  2A07               	incf	??___xxtofl^0,f,c
  2501   002238  0E00               	movlw	0
  2502   00223A  2208               	addwfc	(??___xxtofl+1)^0,f,c
  2503   00223C  2209               	addwfc	(??___xxtofl+2)^0,f,c
  2504   00223E  220A               	addwfc	(??___xxtofl+3)^0,f,c
  2505   002240  C007  F00D         	movff	??___xxtofl,___xxtofl@arg
  2506   002244  C008  F00E         	movff	??___xxtofl+1,___xxtofl@arg+1
  2507   002248  C009  F00F         	movff	??___xxtofl+2,___xxtofl@arg+2
  2508   00224C  C00A  F010         	movff	??___xxtofl+3,___xxtofl@arg+3
  2509   002250  EF32  F011         	goto	l4308
  2510   002254                     l1373:
  2511   002254  C003  F00D         	movff	___xxtofl@val,___xxtofl@arg
  2512   002258  C004  F00E         	movff	___xxtofl@val+1,___xxtofl@arg+1
  2513   00225C  C005  F00F         	movff	___xxtofl@val+2,___xxtofl@arg+2
  2514   002260  C006  F010         	movff	___xxtofl@val+3,___xxtofl@arg+3
  2515   002264                     l4308:
  2516   002264  5003               	movf	___xxtofl@val^0,w,c
  2517   002266  1004               	iorwf	(___xxtofl@val+1)^0,w,c
  2518   002268  1005               	iorwf	(___xxtofl@val+2)^0,w,c
  2519   00226A  1006               	iorwf	(___xxtofl@val+3)^0,w,c
  2520   00226C  A4D8               	btfss	status,2,c
  2521   00226E  EF3B  F011         	goto	u3901
  2522   002272  EF3D  F011         	goto	u3900
  2523   002276                     u3901:
  2524   002276  EF47  F011         	goto	l4314
  2525   00227A                     u3900:
  2526   00227A  0E00               	movlw	0
  2527   00227C  6E03               	movwf	?___xxtofl^0,c
  2528   00227E  0E00               	movlw	0
  2529   002280  6E04               	movwf	(?___xxtofl+1)^0,c
  2530   002282  0E00               	movlw	0
  2531   002284  6E05               	movwf	(?___xxtofl+2)^0,c
  2532   002286  0E00               	movlw	0
  2533   002288  6E06               	movwf	(?___xxtofl+3)^0,c
  2534   00228A  EFD8  F011         	goto	l1376
  2535   00228E                     l4314:
  2536   00228E  0E96               	movlw	150
  2537   002290  6E0C               	movwf	___xxtofl@exp^0,c
  2538   002292  EF51  F011         	goto	l4318
  2539   002296                     l4316:
  2540   002296  2A0C               	incf	___xxtofl@exp^0,f,c
  2541   002298  90D8               	bcf	status,0,c
  2542   00229A  3210               	rrcf	(___xxtofl@arg+3)^0,f,c
  2543   00229C  320F               	rrcf	(___xxtofl@arg+2)^0,f,c
  2544   00229E  320E               	rrcf	(___xxtofl@arg+1)^0,f,c
  2545   0022A0  320D               	rrcf	___xxtofl@arg^0,f,c
  2546   0022A2                     l4318:
  2547   0022A2  0E00               	movlw	0
  2548   0022A4  140D               	andwf	___xxtofl@arg^0,w,c
  2549   0022A6  6E07               	movwf	??___xxtofl^0,c
  2550   0022A8  0E00               	movlw	0
  2551   0022AA  140E               	andwf	(___xxtofl@arg+1)^0,w,c
  2552   0022AC  6E08               	movwf	(??___xxtofl+1)^0,c
  2553   0022AE  0E00               	movlw	0
  2554   0022B0  140F               	andwf	(___xxtofl@arg+2)^0,w,c
  2555   0022B2  6E09               	movwf	(??___xxtofl+2)^0,c
  2556   0022B4  0EFE               	movlw	254
  2557   0022B6  1410               	andwf	(___xxtofl@arg+3)^0,w,c
  2558   0022B8  6E0A               	movwf	(??___xxtofl+3)^0,c
  2559   0022BA  5007               	movf	??___xxtofl^0,w,c
  2560   0022BC  1008               	iorwf	(??___xxtofl+1)^0,w,c
  2561   0022BE  1009               	iorwf	(??___xxtofl+2)^0,w,c
  2562   0022C0  100A               	iorwf	(??___xxtofl+3)^0,w,c
  2563   0022C2  A4D8               	btfss	status,2,c
  2564   0022C4  EF66  F011         	goto	u3911
  2565   0022C8  EF68  F011         	goto	u3910
  2566   0022CC                     u3911:
  2567   0022CC  EF4B  F011         	goto	l4316
  2568   0022D0                     u3910:
  2569   0022D0  EF76  F011         	goto	l1380
  2570   0022D4                     l4320:
  2571   0022D4  2A0C               	incf	___xxtofl@exp^0,f,c
  2572   0022D6  0E01               	movlw	1
  2573   0022D8  260D               	addwf	___xxtofl@arg^0,f,c
  2574   0022DA  0E00               	movlw	0
  2575   0022DC  220E               	addwfc	(___xxtofl@arg+1)^0,f,c
  2576   0022DE  220F               	addwfc	(___xxtofl@arg+2)^0,f,c
  2577   0022E0  2210               	addwfc	(___xxtofl@arg+3)^0,f,c
  2578   0022E2  90D8               	bcf	status,0,c
  2579   0022E4  3210               	rrcf	(___xxtofl@arg+3)^0,f,c
  2580   0022E6  320F               	rrcf	(___xxtofl@arg+2)^0,f,c
  2581   0022E8  320E               	rrcf	(___xxtofl@arg+1)^0,f,c
  2582   0022EA  320D               	rrcf	___xxtofl@arg^0,f,c
  2583   0022EC                     l1380:
  2584   0022EC  0E00               	movlw	0
  2585   0022EE  140D               	andwf	___xxtofl@arg^0,w,c
  2586   0022F0  6E07               	movwf	??___xxtofl^0,c
  2587   0022F2  0E00               	movlw	0
  2588   0022F4  140E               	andwf	(___xxtofl@arg+1)^0,w,c
  2589   0022F6  6E08               	movwf	(??___xxtofl+1)^0,c
  2590   0022F8  0E00               	movlw	0
  2591   0022FA  140F               	andwf	(___xxtofl@arg+2)^0,w,c
  2592   0022FC  6E09               	movwf	(??___xxtofl+2)^0,c
  2593   0022FE  0EFF               	movlw	255
  2594   002300  1410               	andwf	(___xxtofl@arg+3)^0,w,c
  2595   002302  6E0A               	movwf	(??___xxtofl+3)^0,c
  2596   002304  5007               	movf	??___xxtofl^0,w,c
  2597   002306  1008               	iorwf	(??___xxtofl+1)^0,w,c
  2598   002308  1009               	iorwf	(??___xxtofl+2)^0,w,c
  2599   00230A  100A               	iorwf	(??___xxtofl+3)^0,w,c
  2600   00230C  A4D8               	btfss	status,2,c
  2601   00230E  EF8B  F011         	goto	u3921
  2602   002312  EF8D  F011         	goto	u3920
  2603   002316                     u3921:
  2604   002316  EF6A  F011         	goto	l4320
  2605   00231A                     u3920:
  2606   00231A  EF95  F011         	goto	l4328
  2607   00231E                     l4326:
  2608   00231E  060C               	decf	___xxtofl@exp^0,f,c
  2609   002320  90D8               	bcf	status,0,c
  2610   002322  360D               	rlcf	___xxtofl@arg^0,f,c
  2611   002324  360E               	rlcf	(___xxtofl@arg+1)^0,f,c
  2612   002326  360F               	rlcf	(___xxtofl@arg+2)^0,f,c
  2613   002328  3610               	rlcf	(___xxtofl@arg+3)^0,f,c
  2614   00232A                     l4328:
  2615   00232A  BE0F               	btfsc	(___xxtofl@arg+2)^0,7,c
  2616   00232C  EF9A  F011         	goto	u3931
  2617   002330  EF9C  F011         	goto	u3930
  2618   002334                     u3931:
  2619   002334  EFA4  F011         	goto	l1387
  2620   002338                     u3930:
  2621   002338  0E02               	movlw	2
  2622   00233A  600C               	cpfslt	___xxtofl@exp^0,c
  2623   00233C  EFA2  F011         	goto	u3941
  2624   002340  EFA4  F011         	goto	u3940
  2625   002344                     u3941:
  2626   002344  EF8F  F011         	goto	l4326
  2627   002348                     u3940:
  2628   002348                     l1387:
  2629   002348  B00C               	btfsc	___xxtofl@exp^0,0,c
  2630   00234A  EFA9  F011         	goto	u3951
  2631   00234E  EFAB  F011         	goto	u3950
  2632   002352                     u3951:
  2633   002352  EFAC  F011         	goto	l4334
  2634   002356                     u3950:
  2635   002356  9E0F               	bcf	(___xxtofl@arg+2)^0,7,c
  2636   002358                     l4334:
  2637   002358  90D8               	bcf	status,0,c
  2638   00235A  320C               	rrcf	___xxtofl@exp^0,f,c
  2639   00235C  C00C  F007         	movff	___xxtofl@exp,??___xxtofl
  2640   002360  6A08               	clrf	(??___xxtofl+1)^0,c
  2641   002362  6A09               	clrf	(??___xxtofl+2)^0,c
  2642   002364  6A0A               	clrf	(??___xxtofl+3)^0,c
  2643   002366  C007  F00A         	movff	??___xxtofl,??___xxtofl+3
  2644   00236A  6A09               	clrf	(??___xxtofl+2)^0,c
  2645   00236C  6A08               	clrf	(??___xxtofl+1)^0,c
  2646   00236E  6A07               	clrf	??___xxtofl^0,c
  2647   002370  5007               	movf	??___xxtofl^0,w,c
  2648   002372  120D               	iorwf	___xxtofl@arg^0,f,c
  2649   002374  5008               	movf	(??___xxtofl+1)^0,w,c
  2650   002376  120E               	iorwf	(___xxtofl@arg+1)^0,f,c
  2651   002378  5009               	movf	(??___xxtofl+2)^0,w,c
  2652   00237A  120F               	iorwf	(___xxtofl@arg+2)^0,f,c
  2653   00237C  500A               	movf	(??___xxtofl+3)^0,w,c
  2654   00237E  1210               	iorwf	(___xxtofl@arg+3)^0,f,c
  2655   002380  500B               	movf	___xxtofl@sign^0,w,c
  2656   002382  B4D8               	btfsc	status,2,c
  2657   002384  EFC6  F011         	goto	u3961
  2658   002388  EFC8  F011         	goto	u3960
  2659   00238C                     u3961:
  2660   00238C  EFD0  F011         	goto	l4344
  2661   002390                     u3960:
  2662   002390  BE06               	btfsc	(___xxtofl@val+3)^0,7,c
  2663   002392  EFCF  F011         	goto	u3970
  2664   002396  EFCD  F011         	goto	u3971
  2665   00239A                     u3971:
  2666   00239A  EFD0  F011         	goto	l4344
  2667   00239E                     u3970:
  2668   00239E  8E10               	bsf	(___xxtofl@arg+3)^0,7,c
  2669   0023A0                     l4344:
  2670   0023A0  C00D  F003         	movff	___xxtofl@arg,?___xxtofl
  2671   0023A4  C00E  F004         	movff	___xxtofl@arg+1,?___xxtofl+1
  2672   0023A8  C00F  F005         	movff	___xxtofl@arg+2,?___xxtofl+2
  2673   0023AC  C010  F006         	movff	___xxtofl@arg+3,?___xxtofl+3
  2674   0023B0                     l1376:
  2675   0023B0  0012               	return		;funcret
  2676   0023B2                     __end_of___xxtofl:
  2677                           	callstack 0
  2678                           
  2679 ;; *************** function ___flmul *****************
  2680 ;; Defined at:
  2681 ;;		line 8 in file "C:\Program Files\Microchip\xc8\v2.40\pic\sources\c99\common\sprcmul.c"
  2682 ;; Parameters:    Size  Location     Type
  2683 ;;  b               4   41[COMRAM] unsigned char 
  2684 ;;  a               4   45[COMRAM] unsigned char 
  2685 ;; Auto vars:     Size  Location     Type
  2686 ;;  prod            4   60[COMRAM] struct .
  2687 ;;  grs             4   55[COMRAM] unsigned long 
  2688 ;;  temp            2   64[COMRAM] struct .
  2689 ;;  bexp            1   59[COMRAM] unsigned char 
  2690 ;;  aexp            1   54[COMRAM] unsigned char 
  2691 ;;  sign            1   53[COMRAM] unsigned char 
  2692 ;; Return value:  Size  Location     Type
  2693 ;;                  4   41[COMRAM] unsigned char 
  2694 ;; Registers used:
  2695 ;;		wreg, status,2, status,0, prodl, prodh
  2696 ;; Tracked objects:
  2697 ;;		On entry : 0/0
  2698 ;;		On exit  : 0/0
  2699 ;;		Unchanged: 0/0
  2700 ;; Data sizes:     COMRAM   BANK0   BANK1   BANK2   BANK3   BANK4   BANK5   BANK6   BANK7   BANK8   BANK9  BANK10  BANK1
      +1  BANK12  BANK13  BANK14
  2701 ;;      Params:         8       0       0       0       0       0       0       0       0       0       0       0       
      +0       0       0       0
  2702 ;;      Locals:        13       0       0       0       0       0       0       0       0       0       0       0       
      +0       0       0       0
  2703 ;;      Temps:          4       0       0       0       0       0       0       0       0       0       0       0       
      +0       0       0       0
  2704 ;;      Totals:        25       0       0       0       0       0       0       0       0       0       0       0       
      +0       0       0       0
  2705 ;;Total ram usage:       25 bytes
  2706 ;; Hardware stack levels used: 1
  2707 ;; Hardware stack levels required when called: 4
  2708 ;; This function calls:
  2709 ;;		Nothing
  2710 ;; This function is called by:
  2711 ;;		_temperature
  2712 ;; This function uses a non-reentrant model
  2713 ;;
  2714                           
  2715                           	psect	text13
  2716   0014D6                     __ptext13:
  2717                           	callstack 0
  2718   0014D6                     ___flmul:
  2719                           	callstack 24
  2720   0014D6  502D               	movf	(___flmul@b+3)^0,w,c
  2721   0014D8  0B80               	andlw	128
  2722   0014DA  6E36               	movwf	___flmul@sign^0,c
  2723   0014DC  502D               	movf	(___flmul@b+3)^0,w,c
  2724   0014DE  242D               	addwf	(___flmul@b+3)^0,w,c
  2725   0014E0  6E3C               	movwf	___flmul@bexp^0,c
  2726   0014E2  AE2C               	btfss	(___flmul@b+2)^0,7,c
  2727   0014E4  EF76  F00A         	goto	u3691
  2728   0014E8  EF78  F00A         	goto	u3690
  2729   0014EC                     u3691:
  2730   0014EC  EF79  F00A         	goto	l4178
  2731   0014F0                     u3690:
  2732   0014F0  803C               	bsf	___flmul@bexp^0,0,c
  2733   0014F2                     l4178:
  2734   0014F2  503C               	movf	___flmul@bexp^0,w,c
  2735   0014F4  B4D8               	btfsc	status,2,c
  2736   0014F6  EF7F  F00A         	goto	u3701
  2737   0014FA  EF81  F00A         	goto	u3700
  2738   0014FE                     u3701:
  2739   0014FE  EF94  F00A         	goto	l4186
  2740   001502                     u3700:
  2741   001502  283C               	incf	___flmul@bexp^0,w,c
  2742   001504  A4D8               	btfss	status,2,c
  2743   001506  EF87  F00A         	goto	u3711
  2744   00150A  EF89  F00A         	goto	u3710
  2745   00150E                     u3711:
  2746   00150E  EF91  F00A         	goto	l4184
  2747   001512                     u3710:
  2748   001512  0E00               	movlw	0
  2749   001514  6E2A               	movwf	___flmul@b^0,c
  2750   001516  0E00               	movlw	0
  2751   001518  6E2B               	movwf	(___flmul@b+1)^0,c
  2752   00151A  0E00               	movlw	0
  2753   00151C  6E2C               	movwf	(___flmul@b+2)^0,c
  2754   00151E  0E00               	movlw	0
  2755   001520  6E2D               	movwf	(___flmul@b+3)^0,c
  2756   001522                     l4184:
  2757   001522  8E2C               	bsf	(___flmul@b+2)^0,7,c
  2758   001524  EF9C  F00A         	goto	l4188
  2759   001528                     l4186:
  2760   001528  0E00               	movlw	0
  2761   00152A  6E2A               	movwf	___flmul@b^0,c
  2762   00152C  0E00               	movlw	0
  2763   00152E  6E2B               	movwf	(___flmul@b+1)^0,c
  2764   001530  0E00               	movlw	0
  2765   001532  6E2C               	movwf	(___flmul@b+2)^0,c
  2766   001534  0E00               	movlw	0
  2767   001536  6E2D               	movwf	(___flmul@b+3)^0,c
  2768   001538                     l4188:
  2769   001538  5031               	movf	(___flmul@a+3)^0,w,c
  2770   00153A  0B80               	andlw	128
  2771   00153C  1A36               	xorwf	___flmul@sign^0,f,c
  2772   00153E  5031               	movf	(___flmul@a+3)^0,w,c
  2773   001540  2431               	addwf	(___flmul@a+3)^0,w,c
  2774   001542  6E37               	movwf	___flmul@aexp^0,c
  2775   001544  AE30               	btfss	(___flmul@a+2)^0,7,c
  2776   001546  EFA7  F00A         	goto	u3721
  2777   00154A  EFA9  F00A         	goto	u3720
  2778   00154E                     u3721:
  2779   00154E  EFAA  F00A         	goto	l4196
  2780   001552                     u3720:
  2781   001552  8037               	bsf	___flmul@aexp^0,0,c
  2782   001554                     l4196:
  2783   001554  5037               	movf	___flmul@aexp^0,w,c
  2784   001556  B4D8               	btfsc	status,2,c
  2785   001558  EFB0  F00A         	goto	u3731
  2786   00155C  EFB2  F00A         	goto	u3730
  2787   001560                     u3731:
  2788   001560  EFC5  F00A         	goto	l4204
  2789   001564                     u3730:
  2790   001564  2837               	incf	___flmul@aexp^0,w,c
  2791   001566  A4D8               	btfss	status,2,c
  2792   001568  EFB8  F00A         	goto	u3741
  2793   00156C  EFBA  F00A         	goto	u3740
  2794   001570                     u3741:
  2795   001570  EFC2  F00A         	goto	l4202
  2796   001574                     u3740:
  2797   001574  0E00               	movlw	0
  2798   001576  6E2E               	movwf	___flmul@a^0,c
  2799   001578  0E00               	movlw	0
  2800   00157A  6E2F               	movwf	(___flmul@a+1)^0,c
  2801   00157C  0E00               	movlw	0
  2802   00157E  6E30               	movwf	(___flmul@a+2)^0,c
  2803   001580  0E00               	movlw	0
  2804   001582  6E31               	movwf	(___flmul@a+3)^0,c
  2805   001584                     l4202:
  2806   001584  8E30               	bsf	(___flmul@a+2)^0,7,c
  2807   001586  EFCD  F00A         	goto	l1332
  2808   00158A                     l4204:
  2809   00158A  0E00               	movlw	0
  2810   00158C  6E2E               	movwf	___flmul@a^0,c
  2811   00158E  0E00               	movlw	0
  2812   001590  6E2F               	movwf	(___flmul@a+1)^0,c
  2813   001592  0E00               	movlw	0
  2814   001594  6E30               	movwf	(___flmul@a+2)^0,c
  2815   001596  0E00               	movlw	0
  2816   001598  6E31               	movwf	(___flmul@a+3)^0,c
  2817   00159A                     l1332:
  2818   00159A  5037               	movf	___flmul@aexp^0,w,c
  2819   00159C  B4D8               	btfsc	status,2,c
  2820   00159E  EFD3  F00A         	goto	u3751
  2821   0015A2  EFD5  F00A         	goto	u3750
  2822   0015A6                     u3751:
  2823   0015A6  EFDD  F00A         	goto	l4208
  2824   0015AA                     u3750:
  2825   0015AA  503C               	movf	___flmul@bexp^0,w,c
  2826   0015AC  A4D8               	btfss	status,2,c
  2827   0015AE  EFDB  F00A         	goto	u3761
  2828   0015B2  EFDD  F00A         	goto	u3760
  2829   0015B6                     u3761:
  2830   0015B6  EFE7  F00A         	goto	l4212
  2831   0015BA                     u3760:
  2832   0015BA                     l4208:
  2833   0015BA  0E00               	movlw	0
  2834   0015BC  6E2A               	movwf	?___flmul^0,c
  2835   0015BE  0E00               	movlw	0
  2836   0015C0  6E2B               	movwf	(?___flmul+1)^0,c
  2837   0015C2  0E00               	movlw	0
  2838   0015C4  6E2C               	movwf	(?___flmul+2)^0,c
  2839   0015C6  0E00               	movlw	0
  2840   0015C8  6E2D               	movwf	(?___flmul+3)^0,c
  2841   0015CA  EF7F  F00C         	goto	l1336
  2842   0015CE                     l4212:
  2843   0015CE  5030               	movf	(___flmul@a+2)^0,w,c
  2844   0015D0  022A               	mulwf	___flmul@b^0,c
  2845   0015D2  CFF3 F041          	movff	prodl,___flmul@temp
  2846   0015D6  CFF4 F042          	movff	prodh,___flmul@temp+1
  2847   0015DA  5041               	movf	___flmul@temp^0,w,c
  2848   0015DC  6E38               	movwf	___flmul@grs^0,c
  2849   0015DE  6A39               	clrf	(___flmul@grs+1)^0,c
  2850   0015E0  6A3A               	clrf	(___flmul@grs+2)^0,c
  2851   0015E2  6A3B               	clrf	(___flmul@grs+3)^0,c
  2852   0015E4  5042               	movf	(___flmul@temp+1)^0,w,c
  2853   0015E6  6E3D               	movwf	___flmul@prod^0,c
  2854   0015E8  6A3E               	clrf	(___flmul@prod+1)^0,c
  2855   0015EA  6A3F               	clrf	(___flmul@prod+2)^0,c
  2856   0015EC  6A40               	clrf	(___flmul@prod+3)^0,c
  2857   0015EE  502F               	movf	(___flmul@a+1)^0,w,c
  2858   0015F0  022B               	mulwf	(___flmul@b+1)^0,c
  2859   0015F2  CFF3 F041          	movff	prodl,___flmul@temp
  2860   0015F6  CFF4 F042          	movff	prodh,___flmul@temp+1
  2861   0015FA  5041               	movf	___flmul@temp^0,w,c
  2862   0015FC  2638               	addwf	___flmul@grs^0,f,c
  2863   0015FE  0E00               	movlw	0
  2864   001600  2239               	addwfc	(___flmul@grs+1)^0,f,c
  2865   001602  223A               	addwfc	(___flmul@grs+2)^0,f,c
  2866   001604  223B               	addwfc	(___flmul@grs+3)^0,f,c
  2867   001606  5042               	movf	(___flmul@temp+1)^0,w,c
  2868   001608  263D               	addwf	___flmul@prod^0,f,c
  2869   00160A  0E00               	movlw	0
  2870   00160C  223E               	addwfc	(___flmul@prod+1)^0,f,c
  2871   00160E  223F               	addwfc	(___flmul@prod+2)^0,f,c
  2872   001610  2240               	addwfc	(___flmul@prod+3)^0,f,c
  2873   001612  502E               	movf	___flmul@a^0,w,c
  2874   001614  022C               	mulwf	(___flmul@b+2)^0,c
  2875   001616  CFF3 F041          	movff	prodl,___flmul@temp
  2876   00161A  CFF4 F042          	movff	prodh,___flmul@temp+1
  2877   00161E  5041               	movf	___flmul@temp^0,w,c
  2878   001620  2638               	addwf	___flmul@grs^0,f,c
  2879   001622  0E00               	movlw	0
  2880   001624  2239               	addwfc	(___flmul@grs+1)^0,f,c
  2881   001626  223A               	addwfc	(___flmul@grs+2)^0,f,c
  2882   001628  223B               	addwfc	(___flmul@grs+3)^0,f,c
  2883   00162A  5042               	movf	(___flmul@temp+1)^0,w,c
  2884   00162C  263D               	addwf	___flmul@prod^0,f,c
  2885   00162E  0E00               	movlw	0
  2886   001630  223E               	addwfc	(___flmul@prod+1)^0,f,c
  2887   001632  223F               	addwfc	(___flmul@prod+2)^0,f,c
  2888   001634  2240               	addwfc	(___flmul@prod+3)^0,f,c
  2889   001636  C03A  F03B         	movff	___flmul@grs+2,___flmul@grs+3
  2890   00163A  C039  F03A         	movff	___flmul@grs+1,___flmul@grs+2
  2891   00163E  C038  F039         	movff	___flmul@grs,___flmul@grs+1
  2892   001642  6A38               	clrf	___flmul@grs^0,c
  2893   001644  502E               	movf	___flmul@a^0,w,c
  2894   001646  022B               	mulwf	(___flmul@b+1)^0,c
  2895   001648  CFF3 F041          	movff	prodl,___flmul@temp
  2896   00164C  CFF4 F042          	movff	prodh,___flmul@temp+1
  2897   001650  5041               	movf	___flmul@temp^0,w,c
  2898   001652  2638               	addwf	___flmul@grs^0,f,c
  2899   001654  5042               	movf	(___flmul@temp+1)^0,w,c
  2900   001656  2239               	addwfc	(___flmul@grs+1)^0,f,c
  2901   001658  0E00               	movlw	0
  2902   00165A  223A               	addwfc	(___flmul@grs+2)^0,f,c
  2903   00165C  0E00               	movlw	0
  2904   00165E  223B               	addwfc	(___flmul@grs+3)^0,f,c
  2905   001660  502F               	movf	(___flmul@a+1)^0,w,c
  2906   001662  022A               	mulwf	___flmul@b^0,c
  2907   001664  CFF3 F041          	movff	prodl,___flmul@temp
  2908   001668  CFF4 F042          	movff	prodh,___flmul@temp+1
  2909   00166C  5041               	movf	___flmul@temp^0,w,c
  2910   00166E  2638               	addwf	___flmul@grs^0,f,c
  2911   001670  5042               	movf	(___flmul@temp+1)^0,w,c
  2912   001672  2239               	addwfc	(___flmul@grs+1)^0,f,c
  2913   001674  0E00               	movlw	0
  2914   001676  223A               	addwfc	(___flmul@grs+2)^0,f,c
  2915   001678  0E00               	movlw	0
  2916   00167A  223B               	addwfc	(___flmul@grs+3)^0,f,c
  2917   00167C  C03A  F03B         	movff	___flmul@grs+2,___flmul@grs+3
  2918   001680  C039  F03A         	movff	___flmul@grs+1,___flmul@grs+2
  2919   001684  C038  F039         	movff	___flmul@grs,___flmul@grs+1
  2920   001688  6A38               	clrf	___flmul@grs^0,c
  2921   00168A  502E               	movf	___flmul@a^0,w,c
  2922   00168C  022A               	mulwf	___flmul@b^0,c
  2923   00168E  CFF3 F041          	movff	prodl,___flmul@temp
  2924   001692  CFF4 F042          	movff	prodh,___flmul@temp+1
  2925   001696  5041               	movf	___flmul@temp^0,w,c
  2926   001698  2638               	addwf	___flmul@grs^0,f,c
  2927   00169A  5042               	movf	(___flmul@temp+1)^0,w,c
  2928   00169C  2239               	addwfc	(___flmul@grs+1)^0,f,c
  2929   00169E  0E00               	movlw	0
  2930   0016A0  223A               	addwfc	(___flmul@grs+2)^0,f,c
  2931   0016A2  0E00               	movlw	0
  2932   0016A4  223B               	addwfc	(___flmul@grs+3)^0,f,c
  2933   0016A6  5030               	movf	(___flmul@a+2)^0,w,c
  2934   0016A8  022B               	mulwf	(___flmul@b+1)^0,c
  2935   0016AA  CFF3 F041          	movff	prodl,___flmul@temp
  2936   0016AE  CFF4 F042          	movff	prodh,___flmul@temp+1
  2937   0016B2  5041               	movf	___flmul@temp^0,w,c
  2938   0016B4  263D               	addwf	___flmul@prod^0,f,c
  2939   0016B6  5042               	movf	(___flmul@temp+1)^0,w,c
  2940   0016B8  223E               	addwfc	(___flmul@prod+1)^0,f,c
  2941   0016BA  0E00               	movlw	0
  2942   0016BC  223F               	addwfc	(___flmul@prod+2)^0,f,c
  2943   0016BE  0E00               	movlw	0
  2944   0016C0  2240               	addwfc	(___flmul@prod+3)^0,f,c
  2945   0016C2  502F               	movf	(___flmul@a+1)^0,w,c
  2946   0016C4  022C               	mulwf	(___flmul@b+2)^0,c
  2947   0016C6  CFF3 F041          	movff	prodl,___flmul@temp
  2948   0016CA  CFF4 F042          	movff	prodh,___flmul@temp+1
  2949   0016CE  5041               	movf	___flmul@temp^0,w,c
  2950   0016D0  263D               	addwf	___flmul@prod^0,f,c
  2951   0016D2  5042               	movf	(___flmul@temp+1)^0,w,c
  2952   0016D4  223E               	addwfc	(___flmul@prod+1)^0,f,c
  2953   0016D6  0E00               	movlw	0
  2954   0016D8  223F               	addwfc	(___flmul@prod+2)^0,f,c
  2955   0016DA  0E00               	movlw	0
  2956   0016DC  2240               	addwfc	(___flmul@prod+3)^0,f,c
  2957   0016DE  5030               	movf	(___flmul@a+2)^0,w,c
  2958   0016E0  022C               	mulwf	(___flmul@b+2)^0,c
  2959   0016E2  CFF3 F041          	movff	prodl,___flmul@temp
  2960   0016E6  CFF4 F042          	movff	prodh,___flmul@temp+1
  2961   0016EA  5041               	movf	___flmul@temp^0,w,c
  2962   0016EC  6E32               	movwf	??___flmul^0,c
  2963   0016EE  5042               	movf	(___flmul@temp+1)^0,w,c
  2964   0016F0  6E33               	movwf	(??___flmul+1)^0,c
  2965   0016F2  6A34               	clrf	(??___flmul+2)^0,c
  2966   0016F4  6A35               	clrf	(??___flmul+3)^0,c
  2967   0016F6  C034  F035         	movff	??___flmul+2,??___flmul+3
  2968   0016FA  C033  F034         	movff	??___flmul+1,??___flmul+2
  2969   0016FE  C032  F033         	movff	??___flmul,??___flmul+1
  2970   001702  6A32               	clrf	??___flmul^0,c
  2971   001704  5032               	movf	??___flmul^0,w,c
  2972   001706  263D               	addwf	___flmul@prod^0,f,c
  2973   001708  5033               	movf	(??___flmul+1)^0,w,c
  2974   00170A  223E               	addwfc	(___flmul@prod+1)^0,f,c
  2975   00170C  5034               	movf	(??___flmul+2)^0,w,c
  2976   00170E  223F               	addwfc	(___flmul@prod+2)^0,f,c
  2977   001710  5035               	movf	(??___flmul+3)^0,w,c
  2978   001712  2240               	addwfc	(___flmul@prod+3)^0,f,c
  2979   001714  C038  F032         	movff	___flmul@grs,??___flmul
  2980   001718  C039  F033         	movff	___flmul@grs+1,??___flmul+1
  2981   00171C  C03A  F034         	movff	___flmul@grs+2,??___flmul+2
  2982   001720  C03B  F035         	movff	___flmul@grs+3,??___flmul+3
  2983   001724  0E19               	movlw	25
  2984   001726  EF9A  F00B         	goto	u3770
  2985   00172A                     u3775:
  2986   00172A  90D8               	bcf	status,0,c
  2987   00172C  3235               	rrcf	(??___flmul+3)^0,f,c
  2988   00172E  3234               	rrcf	(??___flmul+2)^0,f,c
  2989   001730  3233               	rrcf	(??___flmul+1)^0,f,c
  2990   001732  3232               	rrcf	??___flmul^0,f,c
  2991   001734                     u3770:
  2992   001734  2EE8               	decfsz	wreg,f,c
  2993   001736  EF95  F00B         	goto	u3775
  2994   00173A  5032               	movf	??___flmul^0,w,c
  2995   00173C  263D               	addwf	___flmul@prod^0,f,c
  2996   00173E  5033               	movf	(??___flmul+1)^0,w,c
  2997   001740  223E               	addwfc	(___flmul@prod+1)^0,f,c
  2998   001742  5034               	movf	(??___flmul+2)^0,w,c
  2999   001744  223F               	addwfc	(___flmul@prod+2)^0,f,c
  3000   001746  5035               	movf	(??___flmul+3)^0,w,c
  3001   001748  2240               	addwfc	(___flmul@prod+3)^0,f,c
  3002   00174A  C03A  F03B         	movff	___flmul@grs+2,___flmul@grs+3
  3003   00174E  C039  F03A         	movff	___flmul@grs+1,___flmul@grs+2
  3004   001752  C038  F039         	movff	___flmul@grs,___flmul@grs+1
  3005   001756  6A38               	clrf	___flmul@grs^0,c
  3006   001758  5037               	movf	___flmul@aexp^0,w,c
  3007   00175A  C03C  F032         	movff	___flmul@bexp,??___flmul
  3008   00175E  6A33               	clrf	(??___flmul+1)^0,c
  3009   001760  2632               	addwf	??___flmul^0,f,c
  3010   001762  0E00               	movlw	0
  3011   001764  2233               	addwfc	(??___flmul+1)^0,f,c
  3012   001766  0E82               	movlw	130
  3013   001768  2432               	addwf	??___flmul^0,w,c
  3014   00176A  6E41               	movwf	___flmul@temp^0,c
  3015   00176C  0EFF               	movlw	255
  3016   00176E  2033               	addwfc	(??___flmul+1)^0,w,c
  3017   001770  6E42               	movwf	(___flmul@temp+1)^0,c
  3018   001772  EFD0  F00B         	goto	l4260
  3019   001776                     l4254:
  3020   001776  90D8               	bcf	status,0,c
  3021   001778  363D               	rlcf	___flmul@prod^0,f,c
  3022   00177A  363E               	rlcf	(___flmul@prod+1)^0,f,c
  3023   00177C  363F               	rlcf	(___flmul@prod+2)^0,f,c
  3024   00177E  3640               	rlcf	(___flmul@prod+3)^0,f,c
  3025   001780  AE3B               	btfss	(___flmul@grs+3)^0,7,c
  3026   001782  EFC5  F00B         	goto	u3781
  3027   001786  EFC7  F00B         	goto	u3780
  3028   00178A                     u3781:
  3029   00178A  EFC8  F00B         	goto	l1339
  3030   00178E                     u3780:
  3031   00178E  803D               	bsf	___flmul@prod^0,0,c
  3032   001790                     l1339:
  3033   001790  90D8               	bcf	status,0,c
  3034   001792  3638               	rlcf	___flmul@grs^0,f,c
  3035   001794  3639               	rlcf	(___flmul@grs+1)^0,f,c
  3036   001796  363A               	rlcf	(___flmul@grs+2)^0,f,c
  3037   001798  363B               	rlcf	(___flmul@grs+3)^0,f,c
  3038   00179A  0641               	decf	___flmul@temp^0,f,c
  3039   00179C  A0D8               	btfss	status,0,c
  3040   00179E  0642               	decf	(___flmul@temp+1)^0,f,c
  3041   0017A0                     l4260:
  3042   0017A0  AE3F               	btfss	(___flmul@prod+2)^0,7,c
  3043   0017A2  EFD5  F00B         	goto	u3791
  3044   0017A6  EFD7  F00B         	goto	u3790
  3045   0017AA                     u3791:
  3046   0017AA  EFBB  F00B         	goto	l4254
  3047   0017AE                     u3790:
  3048   0017AE  0E00               	movlw	0
  3049   0017B0  6E37               	movwf	___flmul@aexp^0,c
  3050   0017B2  AE3B               	btfss	(___flmul@grs+3)^0,7,c
  3051   0017B4  EFDE  F00B         	goto	u3801
  3052   0017B8  EFE0  F00B         	goto	u3800
  3053   0017BC                     u3801:
  3054   0017BC  EF04  F00C         	goto	l1341
  3055   0017C0                     u3800:
  3056   0017C0  0EFF               	movlw	255
  3057   0017C2  1438               	andwf	___flmul@grs^0,w,c
  3058   0017C4  6E32               	movwf	??___flmul^0,c
  3059   0017C6  0EFF               	movlw	255
  3060   0017C8  1439               	andwf	(___flmul@grs+1)^0,w,c
  3061   0017CA  6E33               	movwf	(??___flmul+1)^0,c
  3062   0017CC  0EFF               	movlw	255
  3063   0017CE  143A               	andwf	(___flmul@grs+2)^0,w,c
  3064   0017D0  6E34               	movwf	(??___flmul+2)^0,c
  3065   0017D2  0E7F               	movlw	127
  3066   0017D4  143B               	andwf	(___flmul@grs+3)^0,w,c
  3067   0017D6  6E35               	movwf	(??___flmul+3)^0,c
  3068   0017D8  5032               	movf	??___flmul^0,w,c
  3069   0017DA  1033               	iorwf	(??___flmul+1)^0,w,c
  3070   0017DC  1034               	iorwf	(??___flmul+2)^0,w,c
  3071   0017DE  1035               	iorwf	(??___flmul+3)^0,w,c
  3072   0017E0  B4D8               	btfsc	status,2,c
  3073   0017E2  EFF5  F00B         	goto	u3811
  3074   0017E6  EFF7  F00B         	goto	u3810
  3075   0017EA                     u3811:
  3076   0017EA  EFFB  F00B         	goto	l1342
  3077   0017EE                     u3810:
  3078   0017EE                     l4268:
  3079   0017EE  0E01               	movlw	1
  3080   0017F0  6E37               	movwf	___flmul@aexp^0,c
  3081   0017F2  EF04  F00C         	goto	l1341
  3082   0017F6                     l1342:
  3083   0017F6  A03D               	btfss	___flmul@prod^0,0,c
  3084   0017F8  EF00  F00C         	goto	u3821
  3085   0017FC  EF02  F00C         	goto	u3820
  3086   001800                     u3821:
  3087   001800  EF04  F00C         	goto	l1341
  3088   001804                     u3820:
  3089   001804  EFF7  F00B         	goto	l4268
  3090   001808                     l1341:
  3091   001808  5037               	movf	___flmul@aexp^0,w,c
  3092   00180A  B4D8               	btfsc	status,2,c
  3093   00180C  EF0A  F00C         	goto	u3831
  3094   001810  EF0C  F00C         	goto	u3830
  3095   001814                     u3831:
  3096   001814  EF30  F00C         	goto	l4280
  3097   001818                     u3830:
  3098   001818  0E01               	movlw	1
  3099   00181A  263D               	addwf	___flmul@prod^0,f,c
  3100   00181C  0E00               	movlw	0
  3101   00181E  223E               	addwfc	(___flmul@prod+1)^0,f,c
  3102   001820  223F               	addwfc	(___flmul@prod+2)^0,f,c
  3103   001822  2240               	addwfc	(___flmul@prod+3)^0,f,c
  3104   001824  A040               	btfss	(___flmul@prod+3)^0,0,c
  3105   001826  EF17  F00C         	goto	u3841
  3106   00182A  EF19  F00C         	goto	u3840
  3107   00182E                     u3841:
  3108   00182E  EF30  F00C         	goto	l4280
  3109   001832                     u3840:
  3110   001832  C03D  F032         	movff	___flmul@prod,??___flmul
  3111   001836  C03E  F033         	movff	___flmul@prod+1,??___flmul+1
  3112   00183A  C03F  F034         	movff	___flmul@prod+2,??___flmul+2
  3113   00183E  C040  F035         	movff	___flmul@prod+3,??___flmul+3
  3114   001842  3435               	rlcf	(??___flmul+3)^0,w,c
  3115   001844  3235               	rrcf	(??___flmul+3)^0,f,c
  3116   001846  3234               	rrcf	(??___flmul+2)^0,f,c
  3117   001848  3233               	rrcf	(??___flmul+1)^0,f,c
  3118   00184A  3232               	rrcf	??___flmul^0,f,c
  3119   00184C  C032  F03D         	movff	??___flmul,___flmul@prod
  3120   001850  C033  F03E         	movff	??___flmul+1,___flmul@prod+1
  3121   001854  C034  F03F         	movff	??___flmul+2,___flmul@prod+2
  3122   001858  C035  F040         	movff	??___flmul+3,___flmul@prod+3
  3123   00185C  4A41               	infsnz	___flmul@temp^0,f,c
  3124   00185E  2A42               	incf	(___flmul@temp+1)^0,f,c
  3125   001860                     l4280:
  3126   001860  BE42               	btfsc	(___flmul@temp+1)^0,7,c
  3127   001862  EF3B  F00C         	goto	u3851
  3128   001866  5042               	movf	(___flmul@temp+1)^0,w,c
  3129   001868  E108               	bnz	u3850
  3130   00186A  2841               	incf	___flmul@temp^0,w,c
  3131   00186C  A0D8               	btfss	status,0,c
  3132   00186E  EF3B  F00C         	goto	u3851
  3133   001872  EF3D  F00C         	goto	u3850
  3134   001876                     u3851:
  3135   001876  EF47  F00C         	goto	l4284
  3136   00187A                     u3850:
  3137   00187A  0E00               	movlw	0
  3138   00187C  6E3D               	movwf	___flmul@prod^0,c
  3139   00187E  0E00               	movlw	0
  3140   001880  6E3E               	movwf	(___flmul@prod+1)^0,c
  3141   001882  0E80               	movlw	128
  3142   001884  6E3F               	movwf	(___flmul@prod+2)^0,c
  3143   001886  0E7F               	movlw	127
  3144   001888  6E40               	movwf	(___flmul@prod+3)^0,c
  3145   00188A  EF75  F00C         	goto	l4296
  3146   00188E                     l4284:
  3147   00188E  BE42               	btfsc	(___flmul@temp+1)^0,7,c
  3148   001890  EF54  F00C         	goto	u3860
  3149   001894  5042               	movf	(___flmul@temp+1)^0,w,c
  3150   001896  E106               	bnz	u3861
  3151   001898  0441               	decf	___flmul@temp^0,w,c
  3152   00189A  B0D8               	btfsc	status,0,c
  3153   00189C  EF52  F00C         	goto	u3861
  3154   0018A0  EF54  F00C         	goto	u3860
  3155   0018A4                     u3861:
  3156   0018A4  EF60  F00C         	goto	l1349
  3157   0018A8                     u3860:
  3158   0018A8  0E00               	movlw	0
  3159   0018AA  6E3D               	movwf	___flmul@prod^0,c
  3160   0018AC  0E00               	movlw	0
  3161   0018AE  6E3E               	movwf	(___flmul@prod+1)^0,c
  3162   0018B0  0E00               	movlw	0
  3163   0018B2  6E3F               	movwf	(___flmul@prod+2)^0,c
  3164   0018B4  0E00               	movlw	0
  3165   0018B6  6E40               	movwf	(___flmul@prod+3)^0,c
  3166   0018B8  0E00               	movlw	0
  3167   0018BA  6E36               	movwf	___flmul@sign^0,c
  3168   0018BC  EF75  F00C         	goto	l4296
  3169   0018C0                     l1349:
  3170   0018C0  C041  F03C         	movff	___flmul@temp,___flmul@bexp
  3171   0018C4  0EFF               	movlw	255
  3172   0018C6  163D               	andwf	___flmul@prod^0,f,c
  3173   0018C8  0EFF               	movlw	255
  3174   0018CA  163E               	andwf	(___flmul@prod+1)^0,f,c
  3175   0018CC  0E7F               	movlw	127
  3176   0018CE  163F               	andwf	(___flmul@prod+2)^0,f,c
  3177   0018D0  0E00               	movlw	0
  3178   0018D2  1640               	andwf	(___flmul@prod+3)^0,f,c
  3179   0018D4  A03C               	btfss	___flmul@bexp^0,0,c
  3180   0018D6  EF6F  F00C         	goto	u3871
  3181   0018DA  EF71  F00C         	goto	u3870
  3182   0018DE                     u3871:
  3183   0018DE  EF72  F00C         	goto	l4294
  3184   0018E2                     u3870:
  3185   0018E2  8E3F               	bsf	(___flmul@prod+2)^0,7,c
  3186   0018E4                     l4294:
  3187   0018E4  90D8               	bcf	status,0,c
  3188   0018E6  303C               	rrcf	___flmul@bexp^0,w,c
  3189   0018E8  6E40               	movwf	(___flmul@prod+3)^0,c
  3190   0018EA                     l4296:
  3191   0018EA  5036               	movf	___flmul@sign^0,w,c
  3192   0018EC  1240               	iorwf	(___flmul@prod+3)^0,f,c
  3193   0018EE  C03D  F02A         	movff	___flmul@prod,?___flmul
  3194   0018F2  C03E  F02B         	movff	___flmul@prod+1,?___flmul+1
  3195   0018F6  C03F  F02C         	movff	___flmul@prod+2,?___flmul+2
  3196   0018FA  C040  F02D         	movff	___flmul@prod+3,?___flmul+3
  3197   0018FE                     l1336:
  3198   0018FE  0012               	return		;funcret
  3199   001900                     __end_of___flmul:
  3200                           	callstack 0
  3201                           
  3202 ;; *************** function ___fldiv *****************
  3203 ;; Defined at:
  3204 ;;		line 11 in file "C:\Program Files\Microchip\xc8\v2.40\pic\sources\c99\common\sprcdiv.c"
  3205 ;; Parameters:    Size  Location     Type
  3206 ;;  b               4   16[COMRAM] unsigned char 
  3207 ;;  a               4   20[COMRAM] unsigned char 
  3208 ;; Auto vars:     Size  Location     Type
  3209 ;;  grs             4   35[COMRAM] unsigned long 
  3210 ;;  rem             4   28[COMRAM] unsigned long 
  3211 ;;  new_exp         2   33[COMRAM] short 
  3212 ;;  aexp            1   40[COMRAM] unsigned char 
  3213 ;;  bexp            1   39[COMRAM] unsigned char 
  3214 ;;  sign            1   32[COMRAM] unsigned char 
  3215 ;; Return value:  Size  Location     Type
  3216 ;;                  4   16[COMRAM] unsigned char 
  3217 ;; Registers used:
  3218 ;;		wreg, status,2, status,0
  3219 ;; Tracked objects:
  3220 ;;		On entry : 0/0
  3221 ;;		On exit  : 0/0
  3222 ;;		Unchanged: 0/0
  3223 ;; Data sizes:     COMRAM   BANK0   BANK1   BANK2   BANK3   BANK4   BANK5   BANK6   BANK7   BANK8   BANK9  BANK10  BANK1
      +1  BANK12  BANK13  BANK14
  3224 ;;      Params:         8       0       0       0       0       0       0       0       0       0       0       0       
      +0       0       0       0
  3225 ;;      Locals:        13       0       0       0       0       0       0       0       0       0       0       0       
      +0       0       0       0
  3226 ;;      Temps:          4       0       0       0       0       0       0       0       0       0       0       0       
      +0       0       0       0
  3227 ;;      Totals:        25       0       0       0       0       0       0       0       0       0       0       0       
      +0       0       0       0
  3228 ;;Total ram usage:       25 bytes
  3229 ;; Hardware stack levels used: 1
  3230 ;; Hardware stack levels required when called: 4
  3231 ;; This function calls:
  3232 ;;		Nothing
  3233 ;; This function is called by:
  3234 ;;		_temperature
  3235 ;; This function uses a non-reentrant model
  3236 ;;
  3237                           
  3238                           	psect	text14
  3239   001900                     __ptext14:
  3240                           	callstack 0
  3241   001900                     ___fldiv:
  3242                           	callstack 24
  3243   001900  5014               	movf	(___fldiv@b+3)^0,w,c
  3244   001902  0B80               	andlw	128
  3245   001904  6E21               	movwf	___fldiv@sign^0,c
  3246   001906  5014               	movf	(___fldiv@b+3)^0,w,c
  3247   001908  2414               	addwf	(___fldiv@b+3)^0,w,c
  3248   00190A  6E28               	movwf	___fldiv@bexp^0,c
  3249   00190C  AE13               	btfss	(___fldiv@b+2)^0,7,c
  3250   00190E  EF8B  F00C         	goto	u3461
  3251   001912  EF8D  F00C         	goto	u3460
  3252   001916                     u3461:
  3253   001916  EF8E  F00C         	goto	l4040
  3254   00191A                     u3460:
  3255   00191A  8028               	bsf	___fldiv@bexp^0,0,c
  3256   00191C                     l4040:
  3257   00191C  5028               	movf	___fldiv@bexp^0,w,c
  3258   00191E  B4D8               	btfsc	status,2,c
  3259   001920  EF94  F00C         	goto	u3471
  3260   001924  EF96  F00C         	goto	u3470
  3261   001928                     u3471:
  3262   001928  EFAB  F00C         	goto	l4050
  3263   00192C                     u3470:
  3264   00192C  2828               	incf	___fldiv@bexp^0,w,c
  3265   00192E  A4D8               	btfss	status,2,c
  3266   001930  EF9C  F00C         	goto	u3481
  3267   001934  EF9E  F00C         	goto	u3480
  3268   001938                     u3481:
  3269   001938  EFA6  F00C         	goto	l4046
  3270   00193C                     u3480:
  3271   00193C  0E00               	movlw	0
  3272   00193E  6E11               	movwf	___fldiv@b^0,c
  3273   001940  0E00               	movlw	0
  3274   001942  6E12               	movwf	(___fldiv@b+1)^0,c
  3275   001944  0E00               	movlw	0
  3276   001946  6E13               	movwf	(___fldiv@b+2)^0,c
  3277   001948  0E00               	movlw	0
  3278   00194A  6E14               	movwf	(___fldiv@b+3)^0,c
  3279   00194C                     l4046:
  3280   00194C  8E13               	bsf	(___fldiv@b+2)^0,7,c
  3281   00194E  0E00               	movlw	0
  3282   001950  6E14               	movwf	(___fldiv@b+3)^0,c
  3283   001952  EFB3  F00C         	goto	l4052
  3284   001956                     l4050:
  3285   001956  0E00               	movlw	0
  3286   001958  6E11               	movwf	___fldiv@b^0,c
  3287   00195A  0E00               	movlw	0
  3288   00195C  6E12               	movwf	(___fldiv@b+1)^0,c
  3289   00195E  0E00               	movlw	0
  3290   001960  6E13               	movwf	(___fldiv@b+2)^0,c
  3291   001962  0E00               	movlw	0
  3292   001964  6E14               	movwf	(___fldiv@b+3)^0,c
  3293   001966                     l4052:
  3294   001966  5018               	movf	(___fldiv@a+3)^0,w,c
  3295   001968  0B80               	andlw	128
  3296   00196A  1A21               	xorwf	___fldiv@sign^0,f,c
  3297   00196C  5018               	movf	(___fldiv@a+3)^0,w,c
  3298   00196E  2418               	addwf	(___fldiv@a+3)^0,w,c
  3299   001970  6E29               	movwf	___fldiv@aexp^0,c
  3300   001972  AE17               	btfss	(___fldiv@a+2)^0,7,c
  3301   001974  EFBE  F00C         	goto	u3491
  3302   001978  EFC0  F00C         	goto	u3490
  3303   00197C                     u3491:
  3304   00197C  EFC1  F00C         	goto	l4060
  3305   001980                     u3490:
  3306   001980  8029               	bsf	___fldiv@aexp^0,0,c
  3307   001982                     l4060:
  3308   001982  5029               	movf	___fldiv@aexp^0,w,c
  3309   001984  B4D8               	btfsc	status,2,c
  3310   001986  EFC7  F00C         	goto	u3501
  3311   00198A  EFC9  F00C         	goto	u3500
  3312   00198E                     u3501:
  3313   00198E  EFDE  F00C         	goto	l4070
  3314   001992                     u3500:
  3315   001992  2829               	incf	___fldiv@aexp^0,w,c
  3316   001994  A4D8               	btfss	status,2,c
  3317   001996  EFCF  F00C         	goto	u3511
  3318   00199A  EFD1  F00C         	goto	u3510
  3319   00199E                     u3511:
  3320   00199E  EFD9  F00C         	goto	l4066
  3321   0019A2                     u3510:
  3322   0019A2  0E00               	movlw	0
  3323   0019A4  6E15               	movwf	___fldiv@a^0,c
  3324   0019A6  0E00               	movlw	0
  3325   0019A8  6E16               	movwf	(___fldiv@a+1)^0,c
  3326   0019AA  0E00               	movlw	0
  3327   0019AC  6E17               	movwf	(___fldiv@a+2)^0,c
  3328   0019AE  0E00               	movlw	0
  3329   0019B0  6E18               	movwf	(___fldiv@a+3)^0,c
  3330   0019B2                     l4066:
  3331   0019B2  8E17               	bsf	(___fldiv@a+2)^0,7,c
  3332   0019B4  0E00               	movlw	0
  3333   0019B6  6E18               	movwf	(___fldiv@a+3)^0,c
  3334   0019B8  EFE6  F00C         	goto	l4072
  3335   0019BC                     l4070:
  3336   0019BC  0E00               	movlw	0
  3337   0019BE  6E15               	movwf	___fldiv@a^0,c
  3338   0019C0  0E00               	movlw	0
  3339   0019C2  6E16               	movwf	(___fldiv@a+1)^0,c
  3340   0019C4  0E00               	movlw	0
  3341   0019C6  6E17               	movwf	(___fldiv@a+2)^0,c
  3342   0019C8  0E00               	movlw	0
  3343   0019CA  6E18               	movwf	(___fldiv@a+3)^0,c
  3344   0019CC                     l4072:
  3345   0019CC  5015               	movf	___fldiv@a^0,w,c
  3346   0019CE  1016               	iorwf	(___fldiv@a+1)^0,w,c
  3347   0019D0  1017               	iorwf	(___fldiv@a+2)^0,w,c
  3348   0019D2  1018               	iorwf	(___fldiv@a+3)^0,w,c
  3349   0019D4  A4D8               	btfss	status,2,c
  3350   0019D6  EFEF  F00C         	goto	u3521
  3351   0019DA  EFF1  F00C         	goto	u3520
  3352   0019DE                     u3521:
  3353   0019DE  EF09  F00D         	goto	l4084
  3354   0019E2                     u3520:
  3355   0019E2  0E00               	movlw	0
  3356   0019E4  6E11               	movwf	___fldiv@b^0,c
  3357   0019E6  0E00               	movlw	0
  3358   0019E8  6E12               	movwf	(___fldiv@b+1)^0,c
  3359   0019EA  0E00               	movlw	0
  3360   0019EC  6E13               	movwf	(___fldiv@b+2)^0,c
  3361   0019EE  0E00               	movlw	0
  3362   0019F0  6E14               	movwf	(___fldiv@b+3)^0,c
  3363   0019F2  0E80               	movlw	128
  3364   0019F4  1213               	iorwf	(___fldiv@b+2)^0,f,c
  3365   0019F6  0E7F               	movlw	127
  3366   0019F8  1214               	iorwf	(___fldiv@b+3)^0,f,c
  3367   0019FA                     l4078:
  3368   0019FA  5021               	movf	___fldiv@sign^0,w,c
  3369   0019FC  1214               	iorwf	(___fldiv@b+3)^0,f,c
  3370   0019FE  C011  F011         	movff	___fldiv@b,?___fldiv
  3371   001A02  C012  F012         	movff	___fldiv@b+1,?___fldiv+1
  3372   001A06  C013  F013         	movff	___fldiv@b+2,?___fldiv+2
  3373   001A0A  C014  F014         	movff	___fldiv@b+3,?___fldiv+3
  3374   001A0E  EF4C  F00E         	goto	l1300
  3375   001A12                     l4084:
  3376   001A12  5028               	movf	___fldiv@bexp^0,w,c
  3377   001A14  A4D8               	btfss	status,2,c
  3378   001A16  EF0F  F00D         	goto	u3531
  3379   001A1A  EF11  F00D         	goto	u3530
  3380   001A1E                     u3531:
  3381   001A1E  EF1B  F00D         	goto	l4092
  3382   001A22                     u3530:
  3383   001A22  0E00               	movlw	0
  3384   001A24  6E11               	movwf	?___fldiv^0,c
  3385   001A26  0E00               	movlw	0
  3386   001A28  6E12               	movwf	(?___fldiv+1)^0,c
  3387   001A2A  0E00               	movlw	0
  3388   001A2C  6E13               	movwf	(?___fldiv+2)^0,c
  3389   001A2E  0E00               	movlw	0
  3390   001A30  6E14               	movwf	(?___fldiv+3)^0,c
  3391   001A32  EF4C  F00E         	goto	l1300
  3392   001A36                     l4092:
  3393   001A36  5029               	movf	___fldiv@aexp^0,w,c
  3394   001A38  C028  F019         	movff	___fldiv@bexp,??___fldiv
  3395   001A3C  6A1A               	clrf	(??___fldiv+1)^0,c
  3396   001A3E  5E19               	subwf	??___fldiv^0,f,c
  3397   001A40  0E00               	movlw	0
  3398   001A42  5A1A               	subwfb	(??___fldiv+1)^0,f,c
  3399   001A44  0E7F               	movlw	127
  3400   001A46  2419               	addwf	??___fldiv^0,w,c
  3401   001A48  6E22               	movwf	___fldiv@new_exp^0,c
  3402   001A4A  0E00               	movlw	0
  3403   001A4C  201A               	addwfc	(??___fldiv+1)^0,w,c
  3404   001A4E  6E23               	movwf	(___fldiv@new_exp+1)^0,c
  3405   001A50  C011  F01D         	movff	___fldiv@b,___fldiv@rem
  3406   001A54  C012  F01E         	movff	___fldiv@b+1,___fldiv@rem+1
  3407   001A58  C013  F01F         	movff	___fldiv@b+2,___fldiv@rem+2
  3408   001A5C  C014  F020         	movff	___fldiv@b+3,___fldiv@rem+3
  3409   001A60  0E00               	movlw	0
  3410   001A62  6E11               	movwf	___fldiv@b^0,c
  3411   001A64  0E00               	movlw	0
  3412   001A66  6E12               	movwf	(___fldiv@b+1)^0,c
  3413   001A68  0E00               	movlw	0
  3414   001A6A  6E13               	movwf	(___fldiv@b+2)^0,c
  3415   001A6C  0E00               	movlw	0
  3416   001A6E  6E14               	movwf	(___fldiv@b+3)^0,c
  3417   001A70  0E00               	movlw	0
  3418   001A72  6E24               	movwf	___fldiv@grs^0,c
  3419   001A74  0E00               	movlw	0
  3420   001A76  6E25               	movwf	(___fldiv@grs+1)^0,c
  3421   001A78  0E00               	movlw	0
  3422   001A7A  6E26               	movwf	(___fldiv@grs+2)^0,c
  3423   001A7C  0E00               	movlw	0
  3424   001A7E  6E27               	movwf	(___fldiv@grs+3)^0,c
  3425   001A80  0E00               	movlw	0
  3426   001A82  6E29               	movwf	___fldiv@aexp^0,c
  3427   001A84  EF7C  F00D         	goto	l1302
  3428   001A88                     l4102:
  3429   001A88  5029               	movf	___fldiv@aexp^0,w,c
  3430   001A8A  B4D8               	btfsc	status,2,c
  3431   001A8C  EF4A  F00D         	goto	u3541
  3432   001A90  EF4C  F00D         	goto	u3540
  3433   001A94                     u3541:
  3434   001A94  EF63  F00D         	goto	l4110
  3435   001A98                     u3540:
  3436   001A98  90D8               	bcf	status,0,c
  3437   001A9A  361D               	rlcf	___fldiv@rem^0,f,c
  3438   001A9C  361E               	rlcf	(___fldiv@rem+1)^0,f,c
  3439   001A9E  361F               	rlcf	(___fldiv@rem+2)^0,f,c
  3440   001AA0  3620               	rlcf	(___fldiv@rem+3)^0,f,c
  3441   001AA2  90D8               	bcf	status,0,c
  3442   001AA4  3611               	rlcf	___fldiv@b^0,f,c
  3443   001AA6  3612               	rlcf	(___fldiv@b+1)^0,f,c
  3444   001AA8  3613               	rlcf	(___fldiv@b+2)^0,f,c
  3445   001AAA  3614               	rlcf	(___fldiv@b+3)^0,f,c
  3446   001AAC  AE27               	btfss	(___fldiv@grs+3)^0,7,c
  3447   001AAE  EF5B  F00D         	goto	u3551
  3448   001AB2  EF5D  F00D         	goto	u3550
  3449   001AB6                     u3551:
  3450   001AB6  EF5E  F00D         	goto	l1305
  3451   001ABA                     u3550:
  3452   001ABA  8011               	bsf	___fldiv@b^0,0,c
  3453   001ABC                     l1305:
  3454   001ABC  90D8               	bcf	status,0,c
  3455   001ABE  3624               	rlcf	___fldiv@grs^0,f,c
  3456   001AC0  3625               	rlcf	(___fldiv@grs+1)^0,f,c
  3457   001AC2  3626               	rlcf	(___fldiv@grs+2)^0,f,c
  3458   001AC4  3627               	rlcf	(___fldiv@grs+3)^0,f,c
  3459   001AC6                     l4110:
  3460   001AC6  5015               	movf	___fldiv@a^0,w,c
  3461   001AC8  5C1D               	subwf	___fldiv@rem^0,w,c
  3462   001ACA  5016               	movf	(___fldiv@a+1)^0,w,c
  3463   001ACC  581E               	subwfb	(___fldiv@rem+1)^0,w,c
  3464   001ACE  5017               	movf	(___fldiv@a+2)^0,w,c
  3465   001AD0  581F               	subwfb	(___fldiv@rem+2)^0,w,c
  3466   001AD2  5018               	movf	(___fldiv@a+3)^0,w,c
  3467   001AD4  5820               	subwfb	(___fldiv@rem+3)^0,w,c
  3468   001AD6  A0D8               	btfss	status,0,c
  3469   001AD8  EF70  F00D         	goto	u3561
  3470   001ADC  EF72  F00D         	goto	u3560
  3471   001AE0                     u3561:
  3472   001AE0  EF7B  F00D         	goto	l4116
  3473   001AE4                     u3560:
  3474   001AE4  8C27               	bsf	(___fldiv@grs+3)^0,6,c
  3475   001AE6  5015               	movf	___fldiv@a^0,w,c
  3476   001AE8  5E1D               	subwf	___fldiv@rem^0,f,c
  3477   001AEA  5016               	movf	(___fldiv@a+1)^0,w,c
  3478   001AEC  5A1E               	subwfb	(___fldiv@rem+1)^0,f,c
  3479   001AEE  5017               	movf	(___fldiv@a+2)^0,w,c
  3480   001AF0  5A1F               	subwfb	(___fldiv@rem+2)^0,f,c
  3481   001AF2  5018               	movf	(___fldiv@a+3)^0,w,c
  3482   001AF4  5A20               	subwfb	(___fldiv@rem+3)^0,f,c
  3483   001AF6                     l4116:
  3484   001AF6  2A29               	incf	___fldiv@aexp^0,f,c
  3485   001AF8                     l1302:
  3486   001AF8  0E19               	movlw	25
  3487   001AFA  6429               	cpfsgt	___fldiv@aexp^0,c
  3488   001AFC  EF82  F00D         	goto	u3571
  3489   001B00  EF84  F00D         	goto	u3570
  3490   001B04                     u3571:
  3491   001B04  EF44  F00D         	goto	l4102
  3492   001B08                     u3570:
  3493   001B08  501D               	movf	___fldiv@rem^0,w,c
  3494   001B0A  101E               	iorwf	(___fldiv@rem+1)^0,w,c
  3495   001B0C  101F               	iorwf	(___fldiv@rem+2)^0,w,c
  3496   001B0E  1020               	iorwf	(___fldiv@rem+3)^0,w,c
  3497   001B10  B4D8               	btfsc	status,2,c
  3498   001B12  EF8D  F00D         	goto	u3581
  3499   001B16  EF8F  F00D         	goto	u3580
  3500   001B1A                     u3581:
  3501   001B1A  EFA7  F00D         	goto	l4128
  3502   001B1E                     u3580:
  3503   001B1E  8024               	bsf	___fldiv@grs^0,0,c
  3504   001B20  EFA7  F00D         	goto	l4128
  3505   001B24                     l4122:
  3506   001B24  90D8               	bcf	status,0,c
  3507   001B26  3611               	rlcf	___fldiv@b^0,f,c
  3508   001B28  3612               	rlcf	(___fldiv@b+1)^0,f,c
  3509   001B2A  3613               	rlcf	(___fldiv@b+2)^0,f,c
  3510   001B2C  3614               	rlcf	(___fldiv@b+3)^0,f,c
  3511   001B2E  AE27               	btfss	(___fldiv@grs+3)^0,7,c
  3512   001B30  EF9C  F00D         	goto	u3591
  3513   001B34  EF9E  F00D         	goto	u3590
  3514   001B38                     u3591:
  3515   001B38  EF9F  F00D         	goto	l1311
  3516   001B3C                     u3590:
  3517   001B3C  8011               	bsf	___fldiv@b^0,0,c
  3518   001B3E                     l1311:
  3519   001B3E  90D8               	bcf	status,0,c
  3520   001B40  3624               	rlcf	___fldiv@grs^0,f,c
  3521   001B42  3625               	rlcf	(___fldiv@grs+1)^0,f,c
  3522   001B44  3626               	rlcf	(___fldiv@grs+2)^0,f,c
  3523   001B46  3627               	rlcf	(___fldiv@grs+3)^0,f,c
  3524   001B48  0622               	decf	___fldiv@new_exp^0,f,c
  3525   001B4A  A0D8               	btfss	status,0,c
  3526   001B4C  0623               	decf	(___fldiv@new_exp+1)^0,f,c
  3527   001B4E                     l4128:
  3528   001B4E  AE13               	btfss	(___fldiv@b+2)^0,7,c
  3529   001B50  EFAC  F00D         	goto	u3601
  3530   001B54  EFAE  F00D         	goto	u3600
  3531   001B58                     u3601:
  3532   001B58  EF92  F00D         	goto	l4122
  3533   001B5C                     u3600:
  3534   001B5C  0E00               	movlw	0
  3535   001B5E  6E29               	movwf	___fldiv@aexp^0,c
  3536   001B60  AE27               	btfss	(___fldiv@grs+3)^0,7,c
  3537   001B62  EFB5  F00D         	goto	u3611
  3538   001B66  EFB7  F00D         	goto	u3610
  3539   001B6A                     u3611:
  3540   001B6A  EFDB  F00D         	goto	l1313
  3541   001B6E                     u3610:
  3542   001B6E  0EFF               	movlw	255
  3543   001B70  1424               	andwf	___fldiv@grs^0,w,c
  3544   001B72  6E19               	movwf	??___fldiv^0,c
  3545   001B74  0EFF               	movlw	255
  3546   001B76  1425               	andwf	(___fldiv@grs+1)^0,w,c
  3547   001B78  6E1A               	movwf	(??___fldiv+1)^0,c
  3548   001B7A  0EFF               	movlw	255
  3549   001B7C  1426               	andwf	(___fldiv@grs+2)^0,w,c
  3550   001B7E  6E1B               	movwf	(??___fldiv+2)^0,c
  3551   001B80  0E7F               	movlw	127
  3552   001B82  1427               	andwf	(___fldiv@grs+3)^0,w,c
  3553   001B84  6E1C               	movwf	(??___fldiv+3)^0,c
  3554   001B86  5019               	movf	??___fldiv^0,w,c
  3555   001B88  101A               	iorwf	(??___fldiv+1)^0,w,c
  3556   001B8A  101B               	iorwf	(??___fldiv+2)^0,w,c
  3557   001B8C  101C               	iorwf	(??___fldiv+3)^0,w,c
  3558   001B8E  B4D8               	btfsc	status,2,c
  3559   001B90  EFCC  F00D         	goto	u3621
  3560   001B94  EFCE  F00D         	goto	u3620
  3561   001B98                     u3621:
  3562   001B98  EFD2  F00D         	goto	l1314
  3563   001B9C                     u3620:
  3564   001B9C                     l4136:
  3565   001B9C  0E01               	movlw	1
  3566   001B9E  6E29               	movwf	___fldiv@aexp^0,c
  3567   001BA0  EFDB  F00D         	goto	l1313
  3568   001BA4                     l1314:
  3569   001BA4  A011               	btfss	___fldiv@b^0,0,c
  3570   001BA6  EFD7  F00D         	goto	u3631
  3571   001BAA  EFD9  F00D         	goto	u3630
  3572   001BAE                     u3631:
  3573   001BAE  EFDB  F00D         	goto	l1313
  3574   001BB2                     u3630:
  3575   001BB2  EFCE  F00D         	goto	l4136
  3576   001BB6                     l1313:
  3577   001BB6  5029               	movf	___fldiv@aexp^0,w,c
  3578   001BB8  B4D8               	btfsc	status,2,c
  3579   001BBA  EFE1  F00D         	goto	u3641
  3580   001BBE  EFE3  F00D         	goto	u3640
  3581   001BC2                     u3641:
  3582   001BC2  EF07  F00E         	goto	l4148
  3583   001BC6                     u3640:
  3584   001BC6  0E01               	movlw	1
  3585   001BC8  2611               	addwf	___fldiv@b^0,f,c
  3586   001BCA  0E00               	movlw	0
  3587   001BCC  2212               	addwfc	(___fldiv@b+1)^0,f,c
  3588   001BCE  2213               	addwfc	(___fldiv@b+2)^0,f,c
  3589   001BD0  2214               	addwfc	(___fldiv@b+3)^0,f,c
  3590   001BD2  A014               	btfss	(___fldiv@b+3)^0,0,c
  3591   001BD4  EFEE  F00D         	goto	u3651
  3592   001BD8  EFF0  F00D         	goto	u3650
  3593   001BDC                     u3651:
  3594   001BDC  EF07  F00E         	goto	l4148
  3595   001BE0                     u3650:
  3596   001BE0  C011  F019         	movff	___fldiv@b,??___fldiv
  3597   001BE4  C012  F01A         	movff	___fldiv@b+1,??___fldiv+1
  3598   001BE8  C013  F01B         	movff	___fldiv@b+2,??___fldiv+2
  3599   001BEC  C014  F01C         	movff	___fldiv@b+3,??___fldiv+3
  3600   001BF0  341C               	rlcf	(??___fldiv+3)^0,w,c
  3601   001BF2  321C               	rrcf	(??___fldiv+3)^0,f,c
  3602   001BF4  321B               	rrcf	(??___fldiv+2)^0,f,c
  3603   001BF6  321A               	rrcf	(??___fldiv+1)^0,f,c
  3604   001BF8  3219               	rrcf	??___fldiv^0,f,c
  3605   001BFA  C019  F011         	movff	??___fldiv,___fldiv@b
  3606   001BFE  C01A  F012         	movff	??___fldiv+1,___fldiv@b+1
  3607   001C02  C01B  F013         	movff	??___fldiv+2,___fldiv@b+2
  3608   001C06  C01C  F014         	movff	??___fldiv+3,___fldiv@b+3
  3609   001C0A  4A22               	infsnz	___fldiv@new_exp^0,f,c
  3610   001C0C  2A23               	incf	(___fldiv@new_exp+1)^0,f,c
  3611   001C0E                     l4148:
  3612   001C0E  BE23               	btfsc	(___fldiv@new_exp+1)^0,7,c
  3613   001C10  EF12  F00E         	goto	u3661
  3614   001C14  5023               	movf	(___fldiv@new_exp+1)^0,w,c
  3615   001C16  E108               	bnz	u3660
  3616   001C18  2822               	incf	___fldiv@new_exp^0,w,c
  3617   001C1A  A0D8               	btfss	status,0,c
  3618   001C1C  EF12  F00E         	goto	u3661
  3619   001C20  EF14  F00E         	goto	u3660
  3620   001C24                     u3661:
  3621   001C24  EF1F  F00E         	goto	l4152
  3622   001C28                     u3660:
  3623   001C28  0E00               	movlw	0
  3624   001C2A  6E23               	movwf	(___fldiv@new_exp+1)^0,c
  3625   001C2C  6822               	setf	___fldiv@new_exp^0,c
  3626   001C2E  0E00               	movlw	0
  3627   001C30  6E11               	movwf	___fldiv@b^0,c
  3628   001C32  0E00               	movlw	0
  3629   001C34  6E12               	movwf	(___fldiv@b+1)^0,c
  3630   001C36  0E00               	movlw	0
  3631   001C38  6E13               	movwf	(___fldiv@b+2)^0,c
  3632   001C3A  0E00               	movlw	0
  3633   001C3C  6E14               	movwf	(___fldiv@b+3)^0,c
  3634   001C3E                     l4152:
  3635   001C3E  BE23               	btfsc	(___fldiv@new_exp+1)^0,7,c
  3636   001C40  EF2C  F00E         	goto	u3670
  3637   001C44  5023               	movf	(___fldiv@new_exp+1)^0,w,c
  3638   001C46  E106               	bnz	u3671
  3639   001C48  0422               	decf	___fldiv@new_exp^0,w,c
  3640   001C4A  B0D8               	btfsc	status,0,c
  3641   001C4C  EF2A  F00E         	goto	u3671
  3642   001C50  EF2C  F00E         	goto	u3670
  3643   001C54                     u3671:
  3644   001C54  EF3A  F00E         	goto	l4156
  3645   001C58                     u3670:
  3646   001C58  0E00               	movlw	0
  3647   001C5A  6E23               	movwf	(___fldiv@new_exp+1)^0,c
  3648   001C5C  0E00               	movlw	0
  3649   001C5E  6E22               	movwf	___fldiv@new_exp^0,c
  3650   001C60  0E00               	movlw	0
  3651   001C62  6E11               	movwf	___fldiv@b^0,c
  3652   001C64  0E00               	movlw	0
  3653   001C66  6E12               	movwf	(___fldiv@b+1)^0,c
  3654   001C68  0E00               	movlw	0
  3655   001C6A  6E13               	movwf	(___fldiv@b+2)^0,c
  3656   001C6C  0E00               	movlw	0
  3657   001C6E  6E14               	movwf	(___fldiv@b+3)^0,c
  3658   001C70  0E00               	movlw	0
  3659   001C72  6E21               	movwf	___fldiv@sign^0,c
  3660   001C74                     l4156:
  3661   001C74  C022  F028         	movff	___fldiv@new_exp,___fldiv@bexp
  3662   001C78  A028               	btfss	___fldiv@bexp^0,0,c
  3663   001C7A  EF41  F00E         	goto	u3681
  3664   001C7E  EF43  F00E         	goto	u3680
  3665   001C82                     u3681:
  3666   001C82  EF46  F00E         	goto	l4162
  3667   001C86                     u3680:
  3668   001C86  8E13               	bsf	(___fldiv@b+2)^0,7,c
  3669   001C88  EF47  F00E         	goto	l4164
  3670   001C8C                     l4162:
  3671   001C8C  9E13               	bcf	(___fldiv@b+2)^0,7,c
  3672   001C8E                     l4164:
  3673   001C8E  90D8               	bcf	status,0,c
  3674   001C90  3028               	rrcf	___fldiv@bexp^0,w,c
  3675   001C92  6E14               	movwf	(___fldiv@b+3)^0,c
  3676   001C94  EFFD  F00C         	goto	l4078
  3677   001C98                     l1300:
  3678   001C98  0012               	return		;funcret
  3679   001C9A                     __end_of___fldiv:
  3680                           	callstack 0
  3681                           
  3682 ;; *************** function ___wmul *****************
  3683 ;; Defined at:
  3684 ;;		line 15 in file "C:\Program Files\Microchip\xc8\v2.40\pic\sources\c99\common\Umul16.c"
  3685 ;; Parameters:    Size  Location     Type
  3686 ;;  multiplier      2    2[COMRAM] unsigned int 
  3687 ;;  multiplicand    2    4[COMRAM] unsigned int 
  3688 ;; Auto vars:     Size  Location     Type
  3689 ;;  product         2    6[COMRAM] unsigned int 
  3690 ;; Return value:  Size  Location     Type
  3691 ;;                  2    2[COMRAM] unsigned int 
  3692 ;; Registers used:
  3693 ;;		wreg, status,2, status,0, prodl, prodh
  3694 ;; Tracked objects:
  3695 ;;		On entry : 0/0
  3696 ;;		On exit  : 0/0
  3697 ;;		Unchanged: 0/0
  3698 ;; Data sizes:     COMRAM   BANK0   BANK1   BANK2   BANK3   BANK4   BANK5   BANK6   BANK7   BANK8   BANK9  BANK10  BANK1
      +1  BANK12  BANK13  BANK14
  3699 ;;      Params:         4       0       0       0       0       0       0       0       0       0       0       0       
      +0       0       0       0
  3700 ;;      Locals:         2       0       0       0       0       0       0       0       0       0       0       0       
      +0       0       0       0
  3701 ;;      Temps:          0       0       0       0       0       0       0       0       0       0       0       0       
      +0       0       0       0
  3702 ;;      Totals:         6       0       0       0       0       0       0       0       0       0       0       0       
      +0       0       0       0
  3703 ;;Total ram usage:        6 bytes
  3704 ;; Hardware stack levels used: 1
  3705 ;; Hardware stack levels required when called: 4
  3706 ;; This function calls:
  3707 ;;		Nothing
  3708 ;; This function is called by:
  3709 ;;		_mesure
  3710 ;; This function uses a non-reentrant model
  3711 ;;
  3712                           
  3713                           	psect	text15
  3714   003162                     __ptext15:
  3715                           	callstack 0
  3716   003162                     ___wmul:
  3717                           	callstack 25
  3718   003162  5003               	movf	___wmul@multiplier^0,w,c
  3719   003164  0205               	mulwf	___wmul@multiplicand^0,c
  3720   003166  CFF3 F007          	movff	prodl,___wmul@product
  3721   00316A  CFF4 F008          	movff	prodh,___wmul@product+1
  3722   00316E  5003               	movf	___wmul@multiplier^0,w,c
  3723   003170  0206               	mulwf	(___wmul@multiplicand+1)^0,c
  3724   003172  50F3               	movf	243,w,c
  3725   003174  2608               	addwf	(___wmul@product+1)^0,f,c
  3726   003176  5004               	movf	(___wmul@multiplier+1)^0,w,c
  3727   003178  0205               	mulwf	___wmul@multiplicand^0,c
  3728   00317A  50F3               	movf	243,w,c
  3729   00317C  2608               	addwf	(___wmul@product+1)^0,f,c
  3730   00317E  C007  F003         	movff	___wmul@product,?___wmul
  3731   003182  C008  F004         	movff	___wmul@product+1,?___wmul+1
  3732   003186  0012               	return		;funcret
  3733   003188                     __end_of___wmul:
  3734                           	callstack 0
  3735                           
  3736 ;; *************** function ___fltol *****************
  3737 ;; Defined at:
  3738 ;;		line 43 in file "C:\Program Files\Microchip\xc8\v2.40\pic\sources\c99\common\fltol.c"
  3739 ;; Parameters:    Size  Location     Type
  3740 ;;  f1              4    2[COMRAM] unsigned int 
  3741 ;; Auto vars:     Size  Location     Type
  3742 ;;  exp1            1   11[COMRAM] unsigned char 
  3743 ;;  sign1           1   10[COMRAM] unsigned char 
  3744 ;; Return value:  Size  Location     Type
  3745 ;;                  4    2[COMRAM] long 
  3746 ;; Registers used:
  3747 ;;		wreg, status,2, status,0
  3748 ;; Tracked objects:
  3749 ;;		On entry : 0/0
  3750 ;;		On exit  : 0/0
  3751 ;;		Unchanged: 0/0
  3752 ;; Data sizes:     COMRAM   BANK0   BANK1   BANK2   BANK3   BANK4   BANK5   BANK6   BANK7   BANK8   BANK9  BANK10  BANK1
      +1  BANK12  BANK13  BANK14
  3753 ;;      Params:         4       0       0       0       0       0       0       0       0       0       0       0       
      +0       0       0       0
  3754 ;;      Locals:         2       0       0       0       0       0       0       0       0       0       0       0       
      +0       0       0       0
  3755 ;;      Temps:          4       0       0       0       0       0       0       0       0       0       0       0       
      +0       0       0       0
  3756 ;;      Totals:        10       0       0       0       0       0       0       0       0       0       0       0       
      +0       0       0       0
  3757 ;;Total ram usage:       10 bytes
  3758 ;; Hardware stack levels used: 1
  3759 ;; Hardware stack levels required when called: 4
  3760 ;; This function calls:
  3761 ;;		Nothing
  3762 ;; This function is called by:
  3763 ;;		_mesure
  3764 ;; This function uses a non-reentrant model
  3765 ;;
  3766                           
  3767                           	psect	text16
  3768   0028D4                     __ptext16:
  3769                           	callstack 0
  3770   0028D4                     ___fltol:
  3771                           	callstack 25
  3772   0028D4  3405               	rlcf	(___fltol@f1+2)^0,w,c
  3773   0028D6  3406               	rlcf	(___fltol@f1+3)^0,w,c
  3774   0028D8  6E0C               	movwf	___fltol@exp1^0,c
  3775   0028DA  500C               	movf	___fltol@exp1^0,w,c
  3776   0028DC  A4D8               	btfss	status,2,c
  3777   0028DE  EF73  F014         	goto	u2741
  3778   0028E2  EF75  F014         	goto	u2740
  3779   0028E6                     u2741:
  3780   0028E6  EF7F  F014         	goto	l3502
  3781   0028EA                     u2740:
  3782   0028EA                     l3498:
  3783   0028EA  0E00               	movlw	0
  3784   0028EC  6E03               	movwf	?___fltol^0,c
  3785   0028EE  0E00               	movlw	0
  3786   0028F0  6E04               	movwf	(?___fltol+1)^0,c
  3787   0028F2  0E00               	movlw	0
  3788   0028F4  6E05               	movwf	(?___fltol+2)^0,c
  3789   0028F6  0E00               	movlw	0
  3790   0028F8  6E06               	movwf	(?___fltol+3)^0,c
  3791   0028FA  EFEC  F014         	goto	l1015
  3792   0028FE                     l3502:
  3793   0028FE  C003  F007         	movff	___fltol@f1,??___fltol
  3794   002902  C004  F008         	movff	___fltol@f1+1,??___fltol+1
  3795   002906  C005  F009         	movff	___fltol@f1+2,??___fltol+2
  3796   00290A  C006  F00A         	movff	___fltol@f1+3,??___fltol+3
  3797   00290E  0E20               	movlw	32
  3798   002910  EF8F  F014         	goto	u2750
  3799   002914                     u2755:
  3800   002914  90D8               	bcf	status,0,c
  3801   002916  320A               	rrcf	(??___fltol+3)^0,f,c
  3802   002918  3209               	rrcf	(??___fltol+2)^0,f,c
  3803   00291A  3208               	rrcf	(??___fltol+1)^0,f,c
  3804   00291C  3207               	rrcf	??___fltol^0,f,c
  3805   00291E                     u2750:
  3806   00291E  2EE8               	decfsz	wreg,f,c
  3807   002920  EF8A  F014         	goto	u2755
  3808   002924  5007               	movf	??___fltol^0,w,c
  3809   002926  6E0B               	movwf	___fltol@sign1^0,c
  3810   002928  8E05               	bsf	(___fltol@f1+2)^0,7,c
  3811   00292A  0EFF               	movlw	255
  3812   00292C  1603               	andwf	___fltol@f1^0,f,c
  3813   00292E  0EFF               	movlw	255
  3814   002930  1604               	andwf	(___fltol@f1+1)^0,f,c
  3815   002932  0EFF               	movlw	255
  3816   002934  1605               	andwf	(___fltol@f1+2)^0,f,c
  3817   002936  0E00               	movlw	0
  3818   002938  1606               	andwf	(___fltol@f1+3)^0,f,c
  3819   00293A  0E96               	movlw	150
  3820   00293C  5E0C               	subwf	___fltol@exp1^0,f,c
  3821   00293E  BE0C               	btfsc	___fltol@exp1^0,7,c
  3822   002940  EFA6  F014         	goto	u2760
  3823   002944  EFA4  F014         	goto	u2761
  3824   002948                     u2761:
  3825   002948  EFBC  F014         	goto	l3522
  3826   00294C                     u2760:
  3827   00294C  500C               	movf	___fltol@exp1^0,w,c
  3828   00294E  0A80               	xorlw	128
  3829   002950  0F97               	addlw	151
  3830   002952  B0D8               	btfsc	status,0,c
  3831   002954  EFAE  F014         	goto	u2771
  3832   002958  EFB0  F014         	goto	u2770
  3833   00295C                     u2771:
  3834   00295C  EFB2  F014         	goto	l3518
  3835   002960                     u2770:
  3836   002960  EF75  F014         	goto	l3498
  3837   002964                     l3518:
  3838   002964  90D8               	bcf	status,0,c
  3839   002966  3206               	rrcf	(___fltol@f1+3)^0,f,c
  3840   002968  3205               	rrcf	(___fltol@f1+2)^0,f,c
  3841   00296A  3204               	rrcf	(___fltol@f1+1)^0,f,c
  3842   00296C  3203               	rrcf	___fltol@f1^0,f,c
  3843   00296E  3E0C               	incfsz	___fltol@exp1^0,f,c
  3844   002970  EFB2  F014         	goto	l3518
  3845   002974  EFD4  F014         	goto	l3532
  3846   002978                     l3522:
  3847   002978  0E1F               	movlw	31
  3848   00297A  640C               	cpfsgt	___fltol@exp1^0,c
  3849   00297C  EFC2  F014         	goto	u2781
  3850   002980  EFC4  F014         	goto	u2780
  3851   002984                     u2781:
  3852   002984  EFCC  F014         	goto	l3530
  3853   002988                     u2780:
  3854   002988  EF75  F014         	goto	l3498
  3855   00298C                     l3528:
  3856   00298C  90D8               	bcf	status,0,c
  3857   00298E  3603               	rlcf	___fltol@f1^0,f,c
  3858   002990  3604               	rlcf	(___fltol@f1+1)^0,f,c
  3859   002992  3605               	rlcf	(___fltol@f1+2)^0,f,c
  3860   002994  3606               	rlcf	(___fltol@f1+3)^0,f,c
  3861   002996  060C               	decf	___fltol@exp1^0,f,c
  3862   002998                     l3530:
  3863   002998  500C               	movf	___fltol@exp1^0,w,c
  3864   00299A  A4D8               	btfss	status,2,c
  3865   00299C  EFD2  F014         	goto	u2791
  3866   0029A0  EFD4  F014         	goto	u2790
  3867   0029A4                     u2791:
  3868   0029A4  EFC6  F014         	goto	l3528
  3869   0029A8                     u2790:
  3870   0029A8                     l3532:
  3871   0029A8  500B               	movf	___fltol@sign1^0,w,c
  3872   0029AA  B4D8               	btfsc	status,2,c
  3873   0029AC  EFDA  F014         	goto	u2801
  3874   0029B0  EFDC  F014         	goto	u2800
  3875   0029B4                     u2801:
  3876   0029B4  EFE4  F014         	goto	l3536
  3877   0029B8                     u2800:
  3878   0029B8  1E06               	comf	(___fltol@f1+3)^0,f,c
  3879   0029BA  1E05               	comf	(___fltol@f1+2)^0,f,c
  3880   0029BC  1E04               	comf	(___fltol@f1+1)^0,f,c
  3881   0029BE  6C03               	negf	___fltol@f1^0,c
  3882   0029C0  0E00               	movlw	0
  3883   0029C2  2204               	addwfc	(___fltol@f1+1)^0,f,c
  3884   0029C4  2205               	addwfc	(___fltol@f1+2)^0,f,c
  3885   0029C6  2206               	addwfc	(___fltol@f1+3)^0,f,c
  3886   0029C8                     l3536:
  3887   0029C8  C003  F003         	movff	___fltol@f1,?___fltol
  3888   0029CC  C004  F004         	movff	___fltol@f1+1,?___fltol+1
  3889   0029D0  C005  F005         	movff	___fltol@f1+2,?___fltol+2
  3890   0029D4  C006  F006         	movff	___fltol@f1+3,?___fltol+3
  3891   0029D8                     l1015:
  3892   0029D8  0012               	return		;funcret
  3893   0029DA                     __end_of___fltol:
  3894                           	callstack 0
  3895                           
  3896 ;; *************** function _ADC_GetConversion *****************
  3897 ;; Defined at:
  3898 ;;		line 108 in file "mcc_generated_files/adc.c"
  3899 ;; Parameters:    Size  Location     Type
  3900 ;;  channel         1    wreg     enum E12197
  3901 ;; Auto vars:     Size  Location     Type
  3902 ;;  channel         1    6[COMRAM] enum E12197
  3903 ;; Return value:  Size  Location     Type
  3904 ;;                  2    2[COMRAM] unsigned short 
  3905 ;; Registers used:
  3906 ;;		wreg, status,2, status,0
  3907 ;; Tracked objects:
  3908 ;;		On entry : 0/0
  3909 ;;		On exit  : 0/0
  3910 ;;		Unchanged: 0/0
  3911 ;; Data sizes:     COMRAM   BANK0   BANK1   BANK2   BANK3   BANK4   BANK5   BANK6   BANK7   BANK8   BANK9  BANK10  BANK1
      +1  BANK12  BANK13  BANK14
  3912 ;;      Params:         2       0       0       0       0       0       0       0       0       0       0       0       
      +0       0       0       0
  3913 ;;      Locals:         1       0       0       0       0       0       0       0       0       0       0       0       
      +0       0       0       0
  3914 ;;      Temps:          2       0       0       0       0       0       0       0       0       0       0       0       
      +0       0       0       0
  3915 ;;      Totals:         5       0       0       0       0       0       0       0       0       0       0       0       
      +0       0       0       0
  3916 ;;Total ram usage:        5 bytes
  3917 ;; Hardware stack levels used: 1
  3918 ;; Hardware stack levels required when called: 4
  3919 ;; This function calls:
  3920 ;;		Nothing
  3921 ;; This function is called by:
  3922 ;;		_mesure
  3923 ;; This function uses a non-reentrant model
  3924 ;;
  3925                           
  3926                           	psect	text17
  3927   002FFE                     __ptext17:
  3928                           	callstack 0
  3929   002FFE                     _ADC_GetConversion:
  3930                           	callstack 25
  3931                           
  3932                           ;incstack = 0
  3933                           ;ADC_GetConversion@channel stored from wreg
  3934   002FFE  6E07               	movwf	ADC_GetConversion@channel^0,c
  3935   003000                     
  3936                           ;mcc_generated_files/adc.c: 108: adc_result_t ADC_GetConversion(adc_channel_t channel);m
      +                          cc_generated_files/adc.c: 109: {;mcc_generated_files/adc.c: 111:     ADCON0bits.CHS = ch
      +                          annel;
  3937   003000  C007  F005         	movff	ADC_GetConversion@channel,??_ADC_GetConversion
  3938   003004  4605               	rlncf	??_ADC_GetConversion^0,f,c
  3939   003006  4605               	rlncf	??_ADC_GetConversion^0,f,c
  3940   003008  50C2               	movf	194,w,c	;volatile
  3941   00300A  1805               	xorwf	??_ADC_GetConversion^0,w,c
  3942   00300C  0B83               	andlw	-125
  3943   00300E  1805               	xorwf	??_ADC_GetConversion^0,w,c
  3944   003010  6EC2               	movwf	194,c	;volatile
  3945   003012                     
  3946                           ;mcc_generated_files/adc.c: 114:     ADCON0bits.ADON = 1;
  3947   003012  80C2               	bsf	194,0,c	;volatile
  3948   003014                     
  3949                           ;mcc_generated_files/adc.c: 118:     ADCON0bits.GO_nDONE = 1;
  3950   003014  82C2               	bsf	194,1,c	;volatile
  3951   003016                     l567:
  3952                           
  3953                           ;mcc_generated_files/adc.c: 121:     while (ADCON0bits.GO_nDONE)
  3954   003016  B2C2               	btfsc	194,1,c	;volatile
  3955   003018  EF10  F018         	goto	u2681
  3956   00301C  EF12  F018         	goto	u2680
  3957   003020                     u2681:
  3958   003020  EF0B  F018         	goto	l567
  3959   003024                     u2680:
  3960   003024                     
  3961                           ;mcc_generated_files/adc.c: 126:     return ((adc_result_t)((ADRESH << 8) + ADRESL));
  3962   003024  50C4               	movf	196,w,c	;volatile
  3963   003026  6E06               	movwf	(??_ADC_GetConversion+1)^0,c
  3964   003028  6A05               	clrf	??_ADC_GetConversion^0,c
  3965   00302A  50C3               	movf	195,w,c	;volatile
  3966   00302C  2405               	addwf	??_ADC_GetConversion^0,w,c
  3967   00302E  6E03               	movwf	?_ADC_GetConversion^0,c
  3968   003030  0E00               	movlw	0
  3969   003032  2006               	addwfc	(??_ADC_GetConversion+1)^0,w,c
  3970   003034  6E04               	movwf	(?_ADC_GetConversion+1)^0,c
  3971   003036  0012               	return		;funcret
  3972   003038                     __end_of_ADC_GetConversion:
  3973                           	callstack 0
  3974                           
  3975 ;; *************** function _controle_seuil *****************
  3976 ;; Defined at:
  3977 ;;		line 207 in file "main.c"
  3978 ;; Parameters:    Size  Location     Type
  3979 ;;		None
  3980 ;; Auto vars:     Size  Location     Type
  3981 ;;  statue          1    0        enum E12624
  3982 ;;  statue          1    0        enum E12624
  3983 ;;  statue          1    0        enum E12624
  3984 ;; Return value:  Size  Location     Type
  3985 ;;                  1    wreg      void 
  3986 ;; Registers used:
  3987 ;;		wreg, status,2, status,0, cstack
  3988 ;; Tracked objects:
  3989 ;;		On entry : 0/0
  3990 ;;		On exit  : 0/0
  3991 ;;		Unchanged: 0/0
  3992 ;; Data sizes:     COMRAM   BANK0   BANK1   BANK2   BANK3   BANK4   BANK5   BANK6   BANK7   BANK8   BANK9  BANK10  BANK1
      +1  BANK12  BANK13  BANK14
  3993 ;;      Params:         0       0       0       0       0       0       0       0       0       0       0       0       
      +0       0       0       0
  3994 ;;      Locals:         0       0       0       0       0       0       0       0       0       0       0       0       
      +0       0       0       0
  3995 ;;      Temps:          0       0       0       0       0       0       0       0       0       0       0       0       
      +0       0       0       0
  3996 ;;      Totals:         0       0       0       0       0       0       0       0       0       0       0       0       
      +0       0       0       0
  3997 ;;Total ram usage:        0 bytes
  3998 ;; Hardware stack levels used: 1
  3999 ;; Hardware stack levels required when called: 6
  4000 ;; This function calls:
  4001 ;;		___flge
  4002 ;;		___flsub
  4003 ;; This function is called by:
  4004 ;;		_main
  4005 ;; This function uses a non-reentrant model
  4006 ;;
  4007                           
  4008                           	psect	text18
  4009   0027C2                     __ptext18:
  4010                           	callstack 0
  4011   0027C2                     _controle_seuil:
  4012                           	callstack 24
  4013   0027C2                     
  4014                           ;main.c: 208:     fvariation = (fT_consigne - fT_vehicule);
  4015   0027C2  C088  F013         	movff	_fT_consigne,___flsub@b
  4016   0027C6  C089  F014         	movff	_fT_consigne+1,___flsub@b+1
  4017   0027CA  C08A  F015         	movff	_fT_consigne+2,___flsub@b+2
  4018   0027CE  C08B  F016         	movff	_fT_consigne+3,___flsub@b+3
  4019   0027D2  C08C  F017         	movff	_fT_vehicule,___flsub@a
  4020   0027D6  C08D  F018         	movff	_fT_vehicule+1,___flsub@a+1
  4021   0027DA  C08E  F019         	movff	_fT_vehicule+2,___flsub@a+2
  4022   0027DE  C08F  F01A         	movff	_fT_vehicule+3,___flsub@a+3
  4023   0027E2  ECBD  F017         	call	___flsub	;wreg free
  4024   0027E6  C013  F047         	movff	?___flsub,_fvariation
  4025   0027EA  C014  F048         	movff	?___flsub+1,_fvariation+1
  4026   0027EE  C015  F049         	movff	?___flsub+2,_fvariation+2
  4027   0027F2  C016  F04A         	movff	?___flsub+3,_fvariation+3
  4028                           
  4029                           ;main.c: 209:     if ((fvariation < 0.5) && (fvariation > -0.5))
  4030   0027F6  C047  F003         	movff	_fvariation,___flge@ff1
  4031   0027FA  C048  F004         	movff	_fvariation+1,___flge@ff1+1
  4032   0027FE  C049  F005         	movff	_fvariation+2,___flge@ff1+2
  4033   002802  C04A  F006         	movff	_fvariation+3,___flge@ff1+3
  4034   002806  0E00               	movlw	0
  4035   002808  6E07               	movwf	___flge@ff2^0,c
  4036   00280A  0E00               	movlw	0
  4037   00280C  6E08               	movwf	(___flge@ff2+1)^0,c
  4038   00280E  0E00               	movlw	0
  4039   002810  6E09               	movwf	(___flge@ff2+2)^0,c
  4040   002812  0E3F               	movlw	63
  4041   002814  6E0A               	movwf	(___flge@ff2+3)^0,c
  4042   002816  ECED  F014         	call	___flge	;wreg free
  4043   00281A  B0D8               	btfsc	status,0,c
  4044   00281C  EF12  F014         	goto	u3981
  4045   002820  EF14  F014         	goto	u3980
  4046   002824                     u3981:
  4047   002824  EF31  F014         	goto	l4384
  4048   002828                     u3980:
  4049   002828  0E00               	movlw	0
  4050   00282A  6E03               	movwf	___flge@ff1^0,c
  4051   00282C  0E00               	movlw	0
  4052   00282E  6E04               	movwf	(___flge@ff1+1)^0,c
  4053   002830  0E00               	movlw	0
  4054   002832  6E05               	movwf	(___flge@ff1+2)^0,c
  4055   002834  0EBF               	movlw	191
  4056   002836  6E06               	movwf	(___flge@ff1+3)^0,c
  4057   002838  C047  F007         	movff	_fvariation,___flge@ff2
  4058   00283C  C048  F008         	movff	_fvariation+1,___flge@ff2+1
  4059   002840  C049  F009         	movff	_fvariation+2,___flge@ff2+2
  4060   002844  C04A  F00A         	movff	_fvariation+3,___flge@ff2+3
  4061   002848  ECED  F014         	call	___flge	;wreg free
  4062   00284C  B0D8               	btfsc	status,0,c
  4063   00284E  EF2B  F014         	goto	u3991
  4064   002852  EF2D  F014         	goto	u3990
  4065   002856                     u3991:
  4066   002856  EF31  F014         	goto	l4384
  4067   00285A                     u3990:
  4068   00285A  9C8A               	bcf	138,6,c	;volatile
  4069   00285C  9E8A               	bcf	138,7,c	;volatile
  4070   00285E  EF69  F014         	goto	l715
  4071   002862                     l4384:
  4072   002862  0E00               	movlw	0
  4073   002864  6E03               	movwf	___flge@ff1^0,c
  4074   002866  0E00               	movlw	0
  4075   002868  6E04               	movwf	(___flge@ff1+1)^0,c
  4076   00286A  0E00               	movlw	0
  4077   00286C  6E05               	movwf	(___flge@ff1+2)^0,c
  4078   00286E  0E3F               	movlw	63
  4079   002870  6E06               	movwf	(___flge@ff1+3)^0,c
  4080   002872  C047  F007         	movff	_fvariation,___flge@ff2
  4081   002876  C048  F008         	movff	_fvariation+1,___flge@ff2+1
  4082   00287A  C049  F009         	movff	_fvariation+2,___flge@ff2+2
  4083   00287E  C04A  F00A         	movff	_fvariation+3,___flge@ff2+3
  4084   002882  ECED  F014         	call	___flge	;wreg free
  4085   002886  B0D8               	btfsc	status,0,c
  4086   002888  EF48  F014         	goto	u4001
  4087   00288C  EF4A  F014         	goto	u4000
  4088   002890                     u4001:
  4089   002890  EF4E  F014         	goto	l4390
  4090   002894                     u4000:
  4091   002894  9C8A               	bcf	138,6,c	;volatile
  4092   002896  8E8A               	bsf	138,7,c	;volatile
  4093   002898  EF69  F014         	goto	l715
  4094   00289C                     l4390:
  4095   00289C  C047  F003         	movff	_fvariation,___flge@ff1
  4096   0028A0  C048  F004         	movff	_fvariation+1,___flge@ff1+1
  4097   0028A4  C049  F005         	movff	_fvariation+2,___flge@ff1+2
  4098   0028A8  C04A  F006         	movff	_fvariation+3,___flge@ff1+3
  4099   0028AC  0E00               	movlw	0
  4100   0028AE  6E07               	movwf	___flge@ff2^0,c
  4101   0028B0  0E00               	movlw	0
  4102   0028B2  6E08               	movwf	(___flge@ff2+1)^0,c
  4103   0028B4  0E00               	movlw	0
  4104   0028B6  6E09               	movwf	(___flge@ff2+2)^0,c
  4105   0028B8  0EBF               	movlw	191
  4106   0028BA  6E0A               	movwf	(___flge@ff2+3)^0,c
  4107   0028BC  ECED  F014         	call	___flge	;wreg free
  4108   0028C0  B0D8               	btfsc	status,0,c
  4109   0028C2  EF65  F014         	goto	u4011
  4110   0028C6  EF67  F014         	goto	u4010
  4111   0028CA                     u4011:
  4112   0028CA  EF69  F014         	goto	l715
  4113   0028CE                     u4010:
  4114   0028CE  9E8A               	bcf	138,7,c	;volatile
  4115   0028D0  8C8A               	bsf	138,6,c	;volatile
  4116   0028D2                     l715:
  4117   0028D2  0012               	return		;funcret
  4118   0028D4                     __end_of_controle_seuil:
  4119                           	callstack 0
  4120                           
  4121 ;; *************** function ___flsub *****************
  4122 ;; Defined at:
  4123 ;;		line 245 in file "C:\Program Files\Microchip\xc8\v2.40\pic\sources\c99\common\sprcadd.c"
  4124 ;; Parameters:    Size  Location     Type
  4125 ;;  b               4   18[COMRAM] void 
  4126 ;;  a               4   22[COMRAM] void 
  4127 ;; Auto vars:     Size  Location     Type
  4128 ;;		None
  4129 ;; Return value:  Size  Location     Type
  4130 ;;                  4   18[COMRAM] void 
  4131 ;; Registers used:
  4132 ;;		wreg, status,2, status,0, cstack
  4133 ;; Tracked objects:
  4134 ;;		On entry : 0/0
  4135 ;;		On exit  : 0/0
  4136 ;;		Unchanged: 0/0
  4137 ;; Data sizes:     COMRAM   BANK0   BANK1   BANK2   BANK3   BANK4   BANK5   BANK6   BANK7   BANK8   BANK9  BANK10  BANK1
      +1  BANK12  BANK13  BANK14
  4138 ;;      Params:         8       0       0       0       0       0       0       0       0       0       0       0       
      +0       0       0       0
  4139 ;;      Locals:         0       0       0       0       0       0       0       0       0       0       0       0       
      +0       0       0       0
  4140 ;;      Temps:          0       0       0       0       0       0       0       0       0       0       0       0       
      +0       0       0       0
  4141 ;;      Totals:         8       0       0       0       0       0       0       0       0       0       0       0       
      +0       0       0       0
  4142 ;;Total ram usage:        8 bytes
  4143 ;; Hardware stack levels used: 1
  4144 ;; Hardware stack levels required when called: 5
  4145 ;; This function calls:
  4146 ;;		___fladd
  4147 ;; This function is called by:
  4148 ;;		_controle_seuil
  4149 ;; This function uses a non-reentrant model
  4150 ;;
  4151                           
  4152                           	psect	text19
  4153   002F7A                     __ptext19:
  4154                           	callstack 0
  4155   002F7A                     ___flsub:
  4156                           	callstack 24
  4157   002F7A  0E00               	movlw	0
  4158   002F7C  1A17               	xorwf	___flsub@a^0,f,c
  4159   002F7E  0E00               	movlw	0
  4160   002F80  1A18               	xorwf	(___flsub@a+1)^0,f,c
  4161   002F82  0E00               	movlw	0
  4162   002F84  1A19               	xorwf	(___flsub@a+2)^0,f,c
  4163   002F86  0E80               	movlw	128
  4164   002F88  1A1A               	xorwf	(___flsub@a+3)^0,f,c
  4165   002F8A  C013  F003         	movff	___flsub@b,___fladd@b
  4166   002F8E  C014  F004         	movff	___flsub@b+1,___fladd@b+1
  4167   002F92  C015  F005         	movff	___flsub@b+2,___fladd@b+2
  4168   002F96  C016  F006         	movff	___flsub@b+3,___fladd@b+3
  4169   002F9A  C017  F007         	movff	___flsub@a,___fladd@a
  4170   002F9E  C018  F008         	movff	___flsub@a+1,___fladd@a+1
  4171   002FA2  C019  F009         	movff	___flsub@a+2,___fladd@a+2
  4172   002FA6  C01A  F00A         	movff	___flsub@a+3,___fladd@a+3
  4173   002FAA  EC0B  F008         	call	___fladd	;wreg free
  4174   002FAE  C003  F013         	movff	?___fladd,?___flsub
  4175   002FB2  C004  F014         	movff	?___fladd+1,?___flsub+1
  4176   002FB6  C005  F015         	movff	?___fladd+2,?___flsub+2
  4177   002FBA  C006  F016         	movff	?___fladd+3,?___flsub+3
  4178   002FBE  0012               	return		;funcret
  4179   002FC0                     __end_of___flsub:
  4180                           	callstack 0
  4181                           
  4182 ;; *************** function ___fladd *****************
  4183 ;; Defined at:
  4184 ;;		line 10 in file "C:\Program Files\Microchip\xc8\v2.40\pic\sources\c99\common\sprcadd.c"
  4185 ;; Parameters:    Size  Location     Type
  4186 ;;  b               4    2[COMRAM] void 
  4187 ;;  a               4    6[COMRAM] void 
  4188 ;; Auto vars:     Size  Location     Type
  4189 ;;  grs             1   17[COMRAM] unsigned char 
  4190 ;;  bexp            1   16[COMRAM] unsigned char 
  4191 ;;  aexp            1   15[COMRAM] unsigned char 
  4192 ;;  signs           1   14[COMRAM] unsigned char 
  4193 ;; Return value:  Size  Location     Type
  4194 ;;                  4    2[COMRAM] unsigned char 
  4195 ;; Registers used:
  4196 ;;		wreg, status,2, status,0
  4197 ;; Tracked objects:
  4198 ;;		On entry : 0/0
  4199 ;;		On exit  : 0/0
  4200 ;;		Unchanged: 0/0
  4201 ;; Data sizes:     COMRAM   BANK0   BANK1   BANK2   BANK3   BANK4   BANK5   BANK6   BANK7   BANK8   BANK9  BANK10  BANK1
      +1  BANK12  BANK13  BANK14
  4202 ;;      Params:         8       0       0       0       0       0       0       0       0       0       0       0       
      +0       0       0       0
  4203 ;;      Locals:         4       0       0       0       0       0       0       0       0       0       0       0       
      +0       0       0       0
  4204 ;;      Temps:          4       0       0       0       0       0       0       0       0       0       0       0       
      +0       0       0       0
  4205 ;;      Totals:        16       0       0       0       0       0       0       0       0       0       0       0       
      +0       0       0       0
  4206 ;;Total ram usage:       16 bytes
  4207 ;; Hardware stack levels used: 1
  4208 ;; Hardware stack levels required when called: 4
  4209 ;; This function calls:
  4210 ;;		Nothing
  4211 ;; This function is called by:
  4212 ;;		_temperature
  4213 ;;		___flsub
  4214 ;; This function uses a non-reentrant model
  4215 ;;
  4216                           
  4217                           	psect	text20
  4218   001016                     __ptext20:
  4219                           	callstack 0
  4220   001016                     ___fladd:
  4221                           	callstack 24
  4222   001016  5006               	movf	(___fladd@b+3)^0,w,c
  4223   001018  0B80               	andlw	128
  4224   00101A  6E0F               	movwf	___fladd@signs^0,c
  4225   00101C  5006               	movf	(___fladd@b+3)^0,w,c
  4226   00101E  2406               	addwf	(___fladd@b+3)^0,w,c
  4227   001020  6E11               	movwf	___fladd@bexp^0,c
  4228   001022  AE05               	btfss	(___fladd@b+2)^0,7,c
  4229   001024  EF16  F008         	goto	u3071
  4230   001028  EF18  F008         	goto	u3070
  4231   00102C                     u3071:
  4232   00102C  EF19  F008         	goto	l3838
  4233   001030                     u3070:
  4234   001030  8011               	bsf	___fladd@bexp^0,0,c
  4235   001032                     l3838:
  4236   001032  5011               	movf	___fladd@bexp^0,w,c
  4237   001034  B4D8               	btfsc	status,2,c
  4238   001036  EF1F  F008         	goto	u3081
  4239   00103A  EF21  F008         	goto	u3080
  4240   00103E                     u3081:
  4241   00103E  EF36  F008         	goto	l3848
  4242   001042                     u3080:
  4243   001042  2811               	incf	___fladd@bexp^0,w,c
  4244   001044  A4D8               	btfss	status,2,c
  4245   001046  EF27  F008         	goto	u3091
  4246   00104A  EF29  F008         	goto	u3090
  4247   00104E                     u3091:
  4248   00104E  EF31  F008         	goto	l3844
  4249   001052                     u3090:
  4250   001052  0E00               	movlw	0
  4251   001054  6E03               	movwf	___fladd@b^0,c
  4252   001056  0E00               	movlw	0
  4253   001058  6E04               	movwf	(___fladd@b+1)^0,c
  4254   00105A  0E00               	movlw	0
  4255   00105C  6E05               	movwf	(___fladd@b+2)^0,c
  4256   00105E  0E00               	movlw	0
  4257   001060  6E06               	movwf	(___fladd@b+3)^0,c
  4258   001062                     l3844:
  4259   001062  8E05               	bsf	(___fladd@b+2)^0,7,c
  4260   001064  0E00               	movlw	0
  4261   001066  6E06               	movwf	(___fladd@b+3)^0,c
  4262   001068  EF3E  F008         	goto	l3850
  4263   00106C                     l3848:
  4264   00106C  0E00               	movlw	0
  4265   00106E  6E03               	movwf	___fladd@b^0,c
  4266   001070  0E00               	movlw	0
  4267   001072  6E04               	movwf	(___fladd@b+1)^0,c
  4268   001074  0E00               	movlw	0
  4269   001076  6E05               	movwf	(___fladd@b+2)^0,c
  4270   001078  0E00               	movlw	0
  4271   00107A  6E06               	movwf	(___fladd@b+3)^0,c
  4272   00107C                     l3850:
  4273   00107C  500A               	movf	(___fladd@a+3)^0,w,c
  4274   00107E  0B80               	andlw	128
  4275   001080  6E10               	movwf	___fladd@aexp^0,c
  4276   001082  500F               	movf	___fladd@signs^0,w,c
  4277   001084  1810               	xorwf	___fladd@aexp^0,w,c
  4278   001086  B4D8               	btfsc	status,2,c
  4279   001088  EF48  F008         	goto	u3101
  4280   00108C  EF4A  F008         	goto	u3100
  4281   001090                     u3101:
  4282   001090  EF4B  F008         	goto	l3856
  4283   001094                     u3100:
  4284   001094  8C0F               	bsf	___fladd@signs^0,6,c
  4285   001096                     l3856:
  4286   001096  500A               	movf	(___fladd@a+3)^0,w,c
  4287   001098  240A               	addwf	(___fladd@a+3)^0,w,c
  4288   00109A  6E10               	movwf	___fladd@aexp^0,c
  4289   00109C  AE09               	btfss	(___fladd@a+2)^0,7,c
  4290   00109E  EF53  F008         	goto	u3111
  4291   0010A2  EF55  F008         	goto	u3110
  4292   0010A6                     u3111:
  4293   0010A6  EF56  F008         	goto	l3862
  4294   0010AA                     u3110:
  4295   0010AA  8010               	bsf	___fladd@aexp^0,0,c
  4296   0010AC                     l3862:
  4297   0010AC  5010               	movf	___fladd@aexp^0,w,c
  4298   0010AE  B4D8               	btfsc	status,2,c
  4299   0010B0  EF5C  F008         	goto	u3121
  4300   0010B4  EF5E  F008         	goto	u3120
  4301   0010B8                     u3121:
  4302   0010B8  EF73  F008         	goto	l3872
  4303   0010BC                     u3120:
  4304   0010BC  2810               	incf	___fladd@aexp^0,w,c
  4305   0010BE  A4D8               	btfss	status,2,c
  4306   0010C0  EF64  F008         	goto	u3131
  4307   0010C4  EF66  F008         	goto	u3130
  4308   0010C8                     u3131:
  4309   0010C8  EF6E  F008         	goto	l3868
  4310   0010CC                     u3130:
  4311   0010CC  0E00               	movlw	0
  4312   0010CE  6E07               	movwf	___fladd@a^0,c
  4313   0010D0  0E00               	movlw	0
  4314   0010D2  6E08               	movwf	(___fladd@a+1)^0,c
  4315   0010D4  0E00               	movlw	0
  4316   0010D6  6E09               	movwf	(___fladd@a+2)^0,c
  4317   0010D8  0E00               	movlw	0
  4318   0010DA  6E0A               	movwf	(___fladd@a+3)^0,c
  4319   0010DC                     l3868:
  4320   0010DC  8E09               	bsf	(___fladd@a+2)^0,7,c
  4321   0010DE  0E00               	movlw	0
  4322   0010E0  6E0A               	movwf	(___fladd@a+3)^0,c
  4323   0010E2  EF7B  F008         	goto	l3874
  4324   0010E6                     l3872:
  4325   0010E6  0E00               	movlw	0
  4326   0010E8  6E07               	movwf	___fladd@a^0,c
  4327   0010EA  0E00               	movlw	0
  4328   0010EC  6E08               	movwf	(___fladd@a+1)^0,c
  4329   0010EE  0E00               	movlw	0
  4330   0010F0  6E09               	movwf	(___fladd@a+2)^0,c
  4331   0010F2  0E00               	movlw	0
  4332   0010F4  6E0A               	movwf	(___fladd@a+3)^0,c
  4333   0010F6                     l3874:
  4334   0010F6  5011               	movf	___fladd@bexp^0,w,c
  4335   0010F8  5C10               	subwf	___fladd@aexp^0,w,c
  4336   0010FA  B0D8               	btfsc	status,0,c
  4337   0010FC  EF82  F008         	goto	u3141
  4338   001100  EF84  F008         	goto	u3140
  4339   001104                     u3141:
  4340   001104  EFAB  F008         	goto	l3910
  4341   001108                     u3140:
  4342   001108  AC0F               	btfss	___fladd@signs^0,6,c
  4343   00110A  EF89  F008         	goto	u3151
  4344   00110E  EF8B  F008         	goto	u3150
  4345   001112                     u3151:
  4346   001112  EF8D  F008         	goto	l3880
  4347   001116                     u3150:
  4348   001116  0E80               	movlw	128
  4349   001118  1A0F               	xorwf	___fladd@signs^0,f,c
  4350   00111A                     l3880:
  4351   00111A  C011  F012         	movff	___fladd@bexp,___fladd@grs
  4352   00111E  C010  F011         	movff	___fladd@aexp,___fladd@bexp
  4353   001122  C012  F010         	movff	___fladd@grs,___fladd@aexp
  4354   001126  C003  F012         	movff	___fladd@b,___fladd@grs
  4355   00112A  C007  F003         	movff	___fladd@a,___fladd@b
  4356   00112E  C012  F007         	movff	___fladd@grs,___fladd@a
  4357   001132  C004  F012         	movff	___fladd@b+1,___fladd@grs
  4358   001136  C008  F004         	movff	___fladd@a+1,___fladd@b+1
  4359   00113A  C012  F008         	movff	___fladd@grs,___fladd@a+1
  4360   00113E  C005  F012         	movff	___fladd@b+2,___fladd@grs
  4361   001142  C009  F005         	movff	___fladd@a+2,___fladd@b+2
  4362   001146  C012  F009         	movff	___fladd@grs,___fladd@a+2
  4363   00114A  C006  F012         	movff	___fladd@b+3,___fladd@grs
  4364   00114E  C00A  F006         	movff	___fladd@a+3,___fladd@b+3
  4365   001152  C012  F00A         	movff	___fladd@grs,___fladd@a+3
  4366   001156                     l3910:
  4367   001156  0E00               	movlw	0
  4368   001158  6E12               	movwf	___fladd@grs^0,c
  4369   00115A  5011               	movf	___fladd@bexp^0,w,c
  4370   00115C  C010  F00B         	movff	___fladd@aexp,??___fladd
  4371   001160  6A0C               	clrf	(??___fladd+1)^0,c
  4372   001162  5E0B               	subwf	??___fladd^0,f,c
  4373   001164  0E00               	movlw	0
  4374   001166  5A0C               	subwfb	(??___fladd+1)^0,f,c
  4375   001168  BE0C               	btfsc	(??___fladd+1)^0,7,c
  4376   00116A  EFC0  F008         	goto	u3161
  4377   00116E  500C               	movf	(??___fladd+1)^0,w,c
  4378   001170  E109               	bnz	u3160
  4379   001172  0E1A               	movlw	26
  4380   001174  5C0B               	subwf	??___fladd^0,w,c
  4381   001176  A0D8               	btfss	status,0,c
  4382   001178  EFC0  F008         	goto	u3161
  4383   00117C  EFC2  F008         	goto	u3160
  4384   001180                     u3161:
  4385   001180  EFF9  F008         	goto	l1247
  4386   001184                     u3160:
  4387   001184  5003               	movf	___fladd@b^0,w,c
  4388   001186  1004               	iorwf	(___fladd@b+1)^0,w,c
  4389   001188  1005               	iorwf	(___fladd@b+2)^0,w,c
  4390   00118A  1006               	iorwf	(___fladd@b+3)^0,w,c
  4391   00118C  A4D8               	btfss	status,2,c
  4392   00118E  EFCB  F008         	goto	u3171
  4393   001192  EFCE  F008         	goto	u3170
  4394   001196                     u3171:
  4395   001196  0E01               	movlw	1
  4396   001198  EFCF  F008         	goto	u3180
  4397   00119C                     u3170:
  4398   00119C  0E00               	movlw	0
  4399   00119E                     u3180:
  4400   00119E  6E12               	movwf	___fladd@grs^0,c
  4401   0011A0  0E00               	movlw	0
  4402   0011A2  6E03               	movwf	___fladd@b^0,c
  4403   0011A4  0E00               	movlw	0
  4404   0011A6  6E04               	movwf	(___fladd@b+1)^0,c
  4405   0011A8  0E00               	movlw	0
  4406   0011AA  6E05               	movwf	(___fladd@b+2)^0,c
  4407   0011AC  0E00               	movlw	0
  4408   0011AE  6E06               	movwf	(___fladd@b+3)^0,c
  4409   0011B0  C010  F011         	movff	___fladd@aexp,___fladd@bexp
  4410   0011B4  EF02  F009         	goto	l1246
  4411   0011B8                     l1248:
  4412   0011B8  A012               	btfss	___fladd@grs^0,0,c
  4413   0011BA  EFE1  F008         	goto	u3191
  4414   0011BE  EFE3  F008         	goto	u3190
  4415   0011C2                     u3191:
  4416   0011C2  EFE9  F008         	goto	l3922
  4417   0011C6                     u3190:
  4418   0011C6  90D8               	bcf	status,0,c
  4419   0011C8  3012               	rrcf	___fladd@grs^0,w,c
  4420   0011CA  0901               	iorlw	1
  4421   0011CC  6E12               	movwf	___fladd@grs^0,c
  4422   0011CE  EFEB  F008         	goto	l3924
  4423   0011D2                     l3922:
  4424   0011D2  90D8               	bcf	status,0,c
  4425   0011D4  3212               	rrcf	___fladd@grs^0,f,c
  4426   0011D6                     l3924:
  4427   0011D6  A003               	btfss	___fladd@b^0,0,c
  4428   0011D8  EFF0  F008         	goto	u3201
  4429   0011DC  EFF2  F008         	goto	u3200
  4430   0011E0                     u3201:
  4431   0011E0  EFF3  F008         	goto	l3928
  4432   0011E4                     u3200:
  4433   0011E4  8E12               	bsf	___fladd@grs^0,7,c
  4434   0011E6                     l3928:
  4435   0011E6  3406               	rlcf	(___fladd@b+3)^0,w,c
  4436   0011E8  3206               	rrcf	(___fladd@b+3)^0,f,c
  4437   0011EA  3205               	rrcf	(___fladd@b+2)^0,f,c
  4438   0011EC  3204               	rrcf	(___fladd@b+1)^0,f,c
  4439   0011EE  3203               	rrcf	___fladd@b^0,f,c
  4440   0011F0  2A11               	incf	___fladd@bexp^0,f,c
  4441   0011F2                     l1247:
  4442   0011F2  5010               	movf	___fladd@aexp^0,w,c
  4443   0011F4  5C11               	subwf	___fladd@bexp^0,w,c
  4444   0011F6  A0D8               	btfss	status,0,c
  4445   0011F8  EF00  F009         	goto	u3211
  4446   0011FC  EF02  F009         	goto	u3210
  4447   001200                     u3211:
  4448   001200  EFDC  F008         	goto	l1248
  4449   001204                     u3210:
  4450   001204                     l1246:
  4451   001204  BC0F               	btfsc	___fladd@signs^0,6,c
  4452   001206  EF07  F009         	goto	u3221
  4453   00120A  EF09  F009         	goto	u3220
  4454   00120E                     u3221:
  4455   00120E  EF49  F009         	goto	l3956
  4456   001212                     u3220:
  4457   001212  5011               	movf	___fladd@bexp^0,w,c
  4458   001214  A4D8               	btfss	status,2,c
  4459   001216  EF0F  F009         	goto	u3231
  4460   00121A  EF11  F009         	goto	u3230
  4461   00121E                     u3231:
  4462   00121E  EF1B  F009         	goto	l3938
  4463   001222                     u3230:
  4464   001222  0E00               	movlw	0
  4465   001224  6E03               	movwf	?___fladd^0,c
  4466   001226  0E00               	movlw	0
  4467   001228  6E04               	movwf	(?___fladd+1)^0,c
  4468   00122A  0E00               	movlw	0
  4469   00122C  6E05               	movwf	(?___fladd+2)^0,c
  4470   00122E  0E00               	movlw	0
  4471   001230  6E06               	movwf	(?___fladd+3)^0,c
  4472   001232  EF6A  F00A         	goto	l1255
  4473   001236                     l3938:
  4474   001236  5007               	movf	___fladd@a^0,w,c
  4475   001238  2603               	addwf	___fladd@b^0,f,c
  4476   00123A  5008               	movf	(___fladd@a+1)^0,w,c
  4477   00123C  2204               	addwfc	(___fladd@b+1)^0,f,c
  4478   00123E  5009               	movf	(___fladd@a+2)^0,w,c
  4479   001240  2205               	addwfc	(___fladd@b+2)^0,f,c
  4480   001242  500A               	movf	(___fladd@a+3)^0,w,c
  4481   001244  2206               	addwfc	(___fladd@b+3)^0,f,c
  4482   001246  A006               	btfss	(___fladd@b+3)^0,0,c
  4483   001248  EF28  F009         	goto	u3241
  4484   00124C  EF2A  F009         	goto	u3240
  4485   001250                     u3241:
  4486   001250  EFD6  F009         	goto	l3992
  4487   001254                     u3240:
  4488   001254  A012               	btfss	___fladd@grs^0,0,c
  4489   001256  EF2F  F009         	goto	u3251
  4490   00125A  EF31  F009         	goto	u3250
  4491   00125E                     u3251:
  4492   00125E  EF37  F009         	goto	l3946
  4493   001262                     u3250:
  4494   001262  90D8               	bcf	status,0,c
  4495   001264  3012               	rrcf	___fladd@grs^0,w,c
  4496   001266  0901               	iorlw	1
  4497   001268  6E12               	movwf	___fladd@grs^0,c
  4498   00126A  EF39  F009         	goto	l3948
  4499   00126E                     l3946:
  4500   00126E  90D8               	bcf	status,0,c
  4501   001270  3212               	rrcf	___fladd@grs^0,f,c
  4502   001272                     l3948:
  4503   001272  A003               	btfss	___fladd@b^0,0,c
  4504   001274  EF3E  F009         	goto	u3261
  4505   001278  EF40  F009         	goto	u3260
  4506   00127C                     u3261:
  4507   00127C  EF41  F009         	goto	l3952
  4508   001280                     u3260:
  4509   001280  8E12               	bsf	___fladd@grs^0,7,c
  4510   001282                     l3952:
  4511   001282  3406               	rlcf	(___fladd@b+3)^0,w,c
  4512   001284  3206               	rrcf	(___fladd@b+3)^0,f,c
  4513   001286  3205               	rrcf	(___fladd@b+2)^0,f,c
  4514   001288  3204               	rrcf	(___fladd@b+1)^0,f,c
  4515   00128A  3203               	rrcf	___fladd@b^0,f,c
  4516   00128C  2A11               	incf	___fladd@bexp^0,f,c
  4517   00128E  EFD6  F009         	goto	l3992
  4518   001292                     l3956:
  4519   001292  5007               	movf	___fladd@a^0,w,c
  4520   001294  5C03               	subwf	___fladd@b^0,w,c
  4521   001296  5008               	movf	(___fladd@a+1)^0,w,c
  4522   001298  5804               	subwfb	(___fladd@b+1)^0,w,c
  4523   00129A  5009               	movf	(___fladd@a+2)^0,w,c
  4524   00129C  5805               	subwfb	(___fladd@b+2)^0,w,c
  4525   00129E  5006               	movf	(___fladd@b+3)^0,w,c
  4526   0012A0  0A80               	xorlw	128
  4527   0012A2  6E0B               	movwf	??___fladd^0,c
  4528   0012A4  500A               	movf	(___fladd@a+3)^0,w,c
  4529   0012A6  0A80               	xorlw	128
  4530   0012A8  580B               	subwfb	??___fladd^0,w,c
  4531   0012AA  B0D8               	btfsc	status,0,c
  4532   0012AC  EF5A  F009         	goto	u3271
  4533   0012B0  EF5C  F009         	goto	u3270
  4534   0012B4                     u3271:
  4535   0012B4  EF87  F009         	goto	l3966
  4536   0012B8                     u3270:
  4537   0012B8  5003               	movf	___fladd@b^0,w,c
  4538   0012BA  5C07               	subwf	___fladd@a^0,w,c
  4539   0012BC  6E0B               	movwf	??___fladd^0,c
  4540   0012BE  5004               	movf	(___fladd@b+1)^0,w,c
  4541   0012C0  5808               	subwfb	(___fladd@a+1)^0,w,c
  4542   0012C2  6E0C               	movwf	(??___fladd+1)^0,c
  4543   0012C4  5005               	movf	(___fladd@b+2)^0,w,c
  4544   0012C6  5809               	subwfb	(___fladd@a+2)^0,w,c
  4545   0012C8  6E0D               	movwf	(??___fladd+2)^0,c
  4546   0012CA  5006               	movf	(___fladd@b+3)^0,w,c
  4547   0012CC  580A               	subwfb	(___fladd@a+3)^0,w,c
  4548   0012CE  6E0E               	movwf	(??___fladd+3)^0,c
  4549   0012D0  0EFF               	movlw	255
  4550   0012D2  240B               	addwf	??___fladd^0,w,c
  4551   0012D4  6E03               	movwf	___fladd@b^0,c
  4552   0012D6  0EFF               	movlw	255
  4553   0012D8  200C               	addwfc	(??___fladd+1)^0,w,c
  4554   0012DA  6E04               	movwf	(___fladd@b+1)^0,c
  4555   0012DC  0EFF               	movlw	255
  4556   0012DE  200D               	addwfc	(??___fladd+2)^0,w,c
  4557   0012E0  6E05               	movwf	(___fladd@b+2)^0,c
  4558   0012E2  0EFF               	movlw	255
  4559   0012E4  200E               	addwfc	(??___fladd+3)^0,w,c
  4560   0012E6  6E06               	movwf	(___fladd@b+3)^0,c
  4561   0012E8  0E80               	movlw	128
  4562   0012EA  1A0F               	xorwf	___fladd@signs^0,f,c
  4563   0012EC  6C12               	negf	___fladd@grs^0,c
  4564   0012EE  5012               	movf	___fladd@grs^0,w,c
  4565   0012F0  A4D8               	btfss	status,2,c
  4566   0012F2  EF7D  F009         	goto	u3281
  4567   0012F6  EF7F  F009         	goto	u3280
  4568   0012FA                     u3281:
  4569   0012FA  EF8F  F009         	goto	l1263
  4570   0012FE                     u3280:
  4571   0012FE  0E01               	movlw	1
  4572   001300  2603               	addwf	___fladd@b^0,f,c
  4573   001302  0E00               	movlw	0
  4574   001304  2204               	addwfc	(___fladd@b+1)^0,f,c
  4575   001306  2205               	addwfc	(___fladd@b+2)^0,f,c
  4576   001308  2206               	addwfc	(___fladd@b+3)^0,f,c
  4577   00130A  EF8F  F009         	goto	l1263
  4578   00130E                     l3966:
  4579   00130E  5007               	movf	___fladd@a^0,w,c
  4580   001310  5E03               	subwf	___fladd@b^0,f,c
  4581   001312  5008               	movf	(___fladd@a+1)^0,w,c
  4582   001314  5A04               	subwfb	(___fladd@b+1)^0,f,c
  4583   001316  5009               	movf	(___fladd@a+2)^0,w,c
  4584   001318  5A05               	subwfb	(___fladd@b+2)^0,f,c
  4585   00131A  500A               	movf	(___fladd@a+3)^0,w,c
  4586   00131C  5A06               	subwfb	(___fladd@b+3)^0,f,c
  4587   00131E                     l1263:
  4588   00131E  5003               	movf	___fladd@b^0,w,c
  4589   001320  1004               	iorwf	(___fladd@b+1)^0,w,c
  4590   001322  1005               	iorwf	(___fladd@b+2)^0,w,c
  4591   001324  1006               	iorwf	(___fladd@b+3)^0,w,c
  4592   001326  A4D8               	btfss	status,2,c
  4593   001328  EF98  F009         	goto	u3291
  4594   00132C  EF9A  F009         	goto	u3290
  4595   001330                     u3291:
  4596   001330  EFCF  F009         	goto	l3990
  4597   001334                     u3290:
  4598   001334  5012               	movf	___fladd@grs^0,w,c
  4599   001336  A4D8               	btfss	status,2,c
  4600   001338  EFA0  F009         	goto	u3301
  4601   00133C  EFA2  F009         	goto	u3300
  4602   001340                     u3301:
  4603   001340  EFCF  F009         	goto	l3990
  4604   001344                     u3300:
  4605   001344  0E00               	movlw	0
  4606   001346  6E03               	movwf	?___fladd^0,c
  4607   001348  0E00               	movlw	0
  4608   00134A  6E04               	movwf	(?___fladd+1)^0,c
  4609   00134C  0E00               	movlw	0
  4610   00134E  6E05               	movwf	(?___fladd+2)^0,c
  4611   001350  0E00               	movlw	0
  4612   001352  6E06               	movwf	(?___fladd+3)^0,c
  4613   001354  EF6A  F00A         	goto	l1255
  4614   001358                     l3974:
  4615   001358  90D8               	bcf	status,0,c
  4616   00135A  3603               	rlcf	___fladd@b^0,f,c
  4617   00135C  3604               	rlcf	(___fladd@b+1)^0,f,c
  4618   00135E  3605               	rlcf	(___fladd@b+2)^0,f,c
  4619   001360  3606               	rlcf	(___fladd@b+3)^0,f,c
  4620   001362  AE12               	btfss	___fladd@grs^0,7,c
  4621   001364  EFB6  F009         	goto	u3311
  4622   001368  EFB8  F009         	goto	u3310
  4623   00136C                     u3311:
  4624   00136C  EFB9  F009         	goto	l3980
  4625   001370                     u3310:
  4626   001370  8003               	bsf	___fladd@b^0,0,c
  4627   001372                     l3980:
  4628   001372  A012               	btfss	___fladd@grs^0,0,c
  4629   001374  EFBE  F009         	goto	u3321
  4630   001378  EFC0  F009         	goto	u3320
  4631   00137C                     u3321:
  4632   00137C  EFC4  F009         	goto	l3984
  4633   001380                     u3320:
  4634   001380  80D8               	bsf	status,0,c
  4635   001382  3612               	rlcf	___fladd@grs^0,f,c
  4636   001384  EFC6  F009         	goto	l3986
  4637   001388                     l3984:
  4638   001388  90D8               	bcf	status,0,c
  4639   00138A  3612               	rlcf	___fladd@grs^0,f,c
  4640   00138C                     l3986:
  4641   00138C  5011               	movf	___fladd@bexp^0,w,c
  4642   00138E  B4D8               	btfsc	status,2,c
  4643   001390  EFCC  F009         	goto	u3331
  4644   001394  EFCE  F009         	goto	u3330
  4645   001398                     u3331:
  4646   001398  EFCF  F009         	goto	l3990
  4647   00139C                     u3330:
  4648   00139C  0611               	decf	___fladd@bexp^0,f,c
  4649   00139E                     l3990:
  4650   00139E  AE05               	btfss	(___fladd@b+2)^0,7,c
  4651   0013A0  EFD4  F009         	goto	u3341
  4652   0013A4  EFD6  F009         	goto	u3340
  4653   0013A8                     u3341:
  4654   0013A8  EFAC  F009         	goto	l3974
  4655   0013AC                     u3340:
  4656   0013AC                     l3992:
  4657   0013AC  0E00               	movlw	0
  4658   0013AE  6E10               	movwf	___fladd@aexp^0,c
  4659   0013B0  AE12               	btfss	___fladd@grs^0,7,c
  4660   0013B2  EFDD  F009         	goto	u3351
  4661   0013B6  EFDF  F009         	goto	u3350
  4662   0013BA                     u3351:
  4663   0013BA  EFF7  F009         	goto	l1272
  4664   0013BE                     u3350:
  4665   0013BE  C012  F00B         	movff	___fladd@grs,??___fladd
  4666   0013C2  0E7F               	movlw	127
  4667   0013C4  160B               	andwf	??___fladd^0,f,c
  4668   0013C6  B4D8               	btfsc	status,2,c
  4669   0013C8  EFE8  F009         	goto	u3361
  4670   0013CC  EFEA  F009         	goto	u3360
  4671   0013D0                     u3361:
  4672   0013D0  EFEE  F009         	goto	l1273
  4673   0013D4                     u3360:
  4674   0013D4                     l3998:
  4675   0013D4  0E01               	movlw	1
  4676   0013D6  6E10               	movwf	___fladd@aexp^0,c
  4677   0013D8  EFF7  F009         	goto	l1272
  4678   0013DC                     l1273:
  4679   0013DC  A003               	btfss	___fladd@b^0,0,c
  4680   0013DE  EFF3  F009         	goto	u3371
  4681   0013E2  EFF5  F009         	goto	u3370
  4682   0013E6                     u3371:
  4683   0013E6  EFF7  F009         	goto	l1272
  4684   0013EA                     u3370:
  4685   0013EA  EFEA  F009         	goto	l3998
  4686   0013EE                     l1272:
  4687   0013EE  5010               	movf	___fladd@aexp^0,w,c
  4688   0013F0  B4D8               	btfsc	status,2,c
  4689   0013F2  EFFD  F009         	goto	u3381
  4690   0013F6  EFFF  F009         	goto	u3380
  4691   0013FA                     u3381:
  4692   0013FA  EF2A  F00A         	goto	l4010
  4693   0013FE                     u3380:
  4694   0013FE  0E01               	movlw	1
  4695   001400  2603               	addwf	___fladd@b^0,f,c
  4696   001402  0E00               	movlw	0
  4697   001404  2204               	addwfc	(___fladd@b+1)^0,f,c
  4698   001406  2205               	addwfc	(___fladd@b+2)^0,f,c
  4699   001408  2206               	addwfc	(___fladd@b+3)^0,f,c
  4700   00140A  A006               	btfss	(___fladd@b+3)^0,0,c
  4701   00140C  EF0A  F00A         	goto	u3391
  4702   001410  EF0C  F00A         	goto	u3390
  4703   001414                     u3391:
  4704   001414  EF2A  F00A         	goto	l4010
  4705   001418                     u3390:
  4706   001418  C003  F00B         	movff	___fladd@b,??___fladd
  4707   00141C  C004  F00C         	movff	___fladd@b+1,??___fladd+1
  4708   001420  C005  F00D         	movff	___fladd@b+2,??___fladd+2
  4709   001424  C006  F00E         	movff	___fladd@b+3,??___fladd+3
  4710   001428  340E               	rlcf	(??___fladd+3)^0,w,c
  4711   00142A  320E               	rrcf	(??___fladd+3)^0,f,c
  4712   00142C  320D               	rrcf	(??___fladd+2)^0,f,c
  4713   00142E  320C               	rrcf	(??___fladd+1)^0,f,c
  4714   001430  320B               	rrcf	??___fladd^0,f,c
  4715   001432  C00B  F003         	movff	??___fladd,___fladd@b
  4716   001436  C00C  F004         	movff	??___fladd+1,___fladd@b+1
  4717   00143A  C00D  F005         	movff	??___fladd+2,___fladd@b+2
  4718   00143E  C00E  F006         	movff	??___fladd+3,___fladd@b+3
  4719   001442  2811               	incf	___fladd@bexp^0,w,c
  4720   001444  B4D8               	btfsc	status,2,c
  4721   001446  EF27  F00A         	goto	u3401
  4722   00144A  EF29  F00A         	goto	u3400
  4723   00144E                     u3401:
  4724   00144E  EF2A  F00A         	goto	l4010
  4725   001452                     u3400:
  4726   001452  2A11               	incf	___fladd@bexp^0,f,c
  4727   001454                     l4010:
  4728   001454  2811               	incf	___fladd@bexp^0,w,c
  4729   001456  B4D8               	btfsc	status,2,c
  4730   001458  EF30  F00A         	goto	u3411
  4731   00145C  EF32  F00A         	goto	u3410
  4732   001460                     u3411:
  4733   001460  EF3A  F00A         	goto	l4014
  4734   001464                     u3410:
  4735   001464  5011               	movf	___fladd@bexp^0,w,c
  4736   001466  A4D8               	btfss	status,2,c
  4737   001468  EF38  F00A         	goto	u3421
  4738   00146C  EF3A  F00A         	goto	u3420
  4739   001470                     u3421:
  4740   001470  EF4C  F00A         	goto	l4018
  4741   001474                     u3420:
  4742   001474                     l4014:
  4743   001474  0E00               	movlw	0
  4744   001476  6E03               	movwf	___fladd@b^0,c
  4745   001478  0E00               	movlw	0
  4746   00147A  6E04               	movwf	(___fladd@b+1)^0,c
  4747   00147C  0E00               	movlw	0
  4748   00147E  6E05               	movwf	(___fladd@b+2)^0,c
  4749   001480  0E00               	movlw	0
  4750   001482  6E06               	movwf	(___fladd@b+3)^0,c
  4751   001484  5011               	movf	___fladd@bexp^0,w,c
  4752   001486  A4D8               	btfss	status,2,c
  4753   001488  EF48  F00A         	goto	u3431
  4754   00148C  EF4A  F00A         	goto	u3430
  4755   001490                     u3431:
  4756   001490  EF4C  F00A         	goto	l4018
  4757   001494                     u3430:
  4758   001494  0E00               	movlw	0
  4759   001496  6E0F               	movwf	___fladd@signs^0,c
  4760   001498                     l4018:
  4761   001498  A011               	btfss	___fladd@bexp^0,0,c
  4762   00149A  EF51  F00A         	goto	u3441
  4763   00149E  EF53  F00A         	goto	u3440
  4764   0014A2                     u3441:
  4765   0014A2  EF56  F00A         	goto	l4022
  4766   0014A6                     u3440:
  4767   0014A6  8E05               	bsf	(___fladd@b+2)^0,7,c
  4768   0014A8  EF57  F00A         	goto	l4024
  4769   0014AC                     l4022:
  4770   0014AC  9E05               	bcf	(___fladd@b+2)^0,7,c
  4771   0014AE                     l4024:
  4772   0014AE  90D8               	bcf	status,0,c
  4773   0014B0  3011               	rrcf	___fladd@bexp^0,w,c
  4774   0014B2  6E06               	movwf	(___fladd@b+3)^0,c
  4775   0014B4  AE0F               	btfss	___fladd@signs^0,7,c
  4776   0014B6  EF5F  F00A         	goto	u3451
  4777   0014BA  EF61  F00A         	goto	u3450
  4778   0014BE                     u3451:
  4779   0014BE  EF62  F00A         	goto	l4030
  4780   0014C2                     u3450:
  4781   0014C2  8E06               	bsf	(___fladd@b+3)^0,7,c
  4782   0014C4                     l4030:
  4783   0014C4  C003  F003         	movff	___fladd@b,?___fladd
  4784   0014C8  C004  F004         	movff	___fladd@b+1,?___fladd+1
  4785   0014CC  C005  F005         	movff	___fladd@b+2,?___fladd+2
  4786   0014D0  C006  F006         	movff	___fladd@b+3,?___fladd+3
  4787   0014D4                     l1255:
  4788   0014D4  0012               	return		;funcret
  4789   0014D6                     __end_of___fladd:
  4790                           	callstack 0
  4791                           
  4792 ;; *************** function ___flge *****************
  4793 ;; Defined at:
  4794 ;;		line 4 in file "C:\Program Files\Microchip\xc8\v2.40\pic\sources\c99\common\flge.c"
  4795 ;; Parameters:    Size  Location     Type
  4796 ;;  ff1             4    2[COMRAM] unsigned char 
  4797 ;;  ff2             4    6[COMRAM] unsigned char 
  4798 ;; Auto vars:     Size  Location     Type
  4799 ;;		None
  4800 ;; Return value:  Size  Location     Type
  4801 ;;		None               void
  4802 ;; Registers used:
  4803 ;;		wreg, status,2, status,0
  4804 ;; Tracked objects:
  4805 ;;		On entry : 0/0
  4806 ;;		On exit  : 0/0
  4807 ;;		Unchanged: 0/0
  4808 ;; Data sizes:     COMRAM   BANK0   BANK1   BANK2   BANK3   BANK4   BANK5   BANK6   BANK7   BANK8   BANK9  BANK10  BANK1
      +1  BANK12  BANK13  BANK14
  4809 ;;      Params:         8       0       0       0       0       0       0       0       0       0       0       0       
      +0       0       0       0
  4810 ;;      Locals:         0       0       0       0       0       0       0       0       0       0       0       0       
      +0       0       0       0
  4811 ;;      Temps:          4       0       0       0       0       0       0       0       0       0       0       0       
      +0       0       0       0
  4812 ;;      Totals:        12       0       0       0       0       0       0       0       0       0       0       0       
      +0       0       0       0
  4813 ;;Total ram usage:       12 bytes
  4814 ;; Hardware stack levels used: 1
  4815 ;; Hardware stack levels required when called: 4
  4816 ;; This function calls:
  4817 ;;		Nothing
  4818 ;; This function is called by:
  4819 ;;		_controle_seuil
  4820 ;; This function uses a non-reentrant model
  4821 ;;
  4822                           
  4823                           	psect	text21
  4824   0029DA                     __ptext21:
  4825                           	callstack 0
  4826   0029DA                     ___flge:
  4827                           	callstack 25
  4828   0029DA  0E00               	movlw	0
  4829   0029DC  1403               	andwf	___flge@ff1^0,w,c
  4830   0029DE  6E0B               	movwf	??___flge^0,c
  4831   0029E0  0E00               	movlw	0
  4832   0029E2  1404               	andwf	(___flge@ff1+1)^0,w,c
  4833   0029E4  6E0C               	movwf	(??___flge+1)^0,c
  4834   0029E6  0E80               	movlw	128
  4835   0029E8  1405               	andwf	(___flge@ff1+2)^0,w,c
  4836   0029EA  6E0D               	movwf	(??___flge+2)^0,c
  4837   0029EC  0E7F               	movlw	127
  4838   0029EE  1406               	andwf	(___flge@ff1+3)^0,w,c
  4839   0029F0  6E0E               	movwf	(??___flge+3)^0,c
  4840   0029F2  500B               	movf	??___flge^0,w,c
  4841   0029F4  100C               	iorwf	(??___flge+1)^0,w,c
  4842   0029F6  100D               	iorwf	(??___flge+2)^0,w,c
  4843   0029F8  100E               	iorwf	(??___flge+3)^0,w,c
  4844   0029FA  A4D8               	btfss	status,2,c
  4845   0029FC  EF02  F015         	goto	u2691
  4846   002A00  EF04  F015         	goto	u2690
  4847   002A04                     u2691:
  4848   002A04  EF0C  F015         	goto	l3478
  4849   002A08                     u2690:
  4850   002A08  0E00               	movlw	0
  4851   002A0A  6E03               	movwf	___flge@ff1^0,c
  4852   002A0C  0E00               	movlw	0
  4853   002A0E  6E04               	movwf	(___flge@ff1+1)^0,c
  4854   002A10  0E00               	movlw	0
  4855   002A12  6E05               	movwf	(___flge@ff1+2)^0,c
  4856   002A14  0E00               	movlw	0
  4857   002A16  6E06               	movwf	(___flge@ff1+3)^0,c
  4858   002A18                     l3478:
  4859   002A18  0E00               	movlw	0
  4860   002A1A  1407               	andwf	___flge@ff2^0,w,c
  4861   002A1C  6E0B               	movwf	??___flge^0,c
  4862   002A1E  0E00               	movlw	0
  4863   002A20  1408               	andwf	(___flge@ff2+1)^0,w,c
  4864   002A22  6E0C               	movwf	(??___flge+1)^0,c
  4865   002A24  0E80               	movlw	128
  4866   002A26  1409               	andwf	(___flge@ff2+2)^0,w,c
  4867   002A28  6E0D               	movwf	(??___flge+2)^0,c
  4868   002A2A  0E7F               	movlw	127
  4869   002A2C  140A               	andwf	(___flge@ff2+3)^0,w,c
  4870   002A2E  6E0E               	movwf	(??___flge+3)^0,c
  4871   002A30  500B               	movf	??___flge^0,w,c
  4872   002A32  100C               	iorwf	(??___flge+1)^0,w,c
  4873   002A34  100D               	iorwf	(??___flge+2)^0,w,c
  4874   002A36  100E               	iorwf	(??___flge+3)^0,w,c
  4875   002A38  A4D8               	btfss	status,2,c
  4876   002A3A  EF21  F015         	goto	u2701
  4877   002A3E  EF23  F015         	goto	u2700
  4878   002A42                     u2701:
  4879   002A42  EF2B  F015         	goto	l3482
  4880   002A46                     u2700:
  4881   002A46  0E00               	movlw	0
  4882   002A48  6E07               	movwf	___flge@ff2^0,c
  4883   002A4A  0E00               	movlw	0
  4884   002A4C  6E08               	movwf	(___flge@ff2+1)^0,c
  4885   002A4E  0E00               	movlw	0
  4886   002A50  6E09               	movwf	(___flge@ff2+2)^0,c
  4887   002A52  0E00               	movlw	0
  4888   002A54  6E0A               	movwf	(___flge@ff2+3)^0,c
  4889   002A56                     l3482:
  4890   002A56  AE06               	btfss	(___flge@ff1+3)^0,7,c
  4891   002A58  EF30  F015         	goto	u2711
  4892   002A5C  EF32  F015         	goto	u2710
  4893   002A60                     u2711:
  4894   002A60  EF3B  F015         	goto	l3486
  4895   002A64                     u2710:
  4896   002A64  6C03               	negf	___flge@ff1^0,c
  4897   002A66  1E04               	comf	(___flge@ff1+1)^0,f,c
  4898   002A68  B0D8               	btfsc	status,0,c
  4899   002A6A  2A04               	incf	(___flge@ff1+1)^0,f,c
  4900   002A6C  1E05               	comf	(___flge@ff1+2)^0,f,c
  4901   002A6E  B0D8               	btfsc	status,0,c
  4902   002A70  2A05               	incf	(___flge@ff1+2)^0,f,c
  4903   002A72  0E80               	movlw	128
  4904   002A74  5606               	subfwb	(___flge@ff1+3)^0,f,c
  4905   002A76                     l3486:
  4906   002A76  AE0A               	btfss	(___flge@ff2+3)^0,7,c
  4907   002A78  EF40  F015         	goto	u2721
  4908   002A7C  EF42  F015         	goto	u2720
  4909   002A80                     u2721:
  4910   002A80  EF4B  F015         	goto	l983
  4911   002A84                     u2720:
  4912   002A84  6C07               	negf	___flge@ff2^0,c
  4913   002A86  1E08               	comf	(___flge@ff2+1)^0,f,c
  4914   002A88  B0D8               	btfsc	status,0,c
  4915   002A8A  2A08               	incf	(___flge@ff2+1)^0,f,c
  4916   002A8C  1E09               	comf	(___flge@ff2+2)^0,f,c
  4917   002A8E  B0D8               	btfsc	status,0,c
  4918   002A90  2A09               	incf	(___flge@ff2+2)^0,f,c
  4919   002A92  0E80               	movlw	128
  4920   002A94  560A               	subfwb	(___flge@ff2+3)^0,f,c
  4921   002A96                     l983:
  4922   002A96  0E00               	movlw	0
  4923   002A98  1A03               	xorwf	___flge@ff1^0,f,c
  4924   002A9A  0E00               	movlw	0
  4925   002A9C  1A04               	xorwf	(___flge@ff1+1)^0,f,c
  4926   002A9E  0E00               	movlw	0
  4927   002AA0  1A05               	xorwf	(___flge@ff1+2)^0,f,c
  4928   002AA2  0E80               	movlw	128
  4929   002AA4  1A06               	xorwf	(___flge@ff1+3)^0,f,c
  4930   002AA6  0E00               	movlw	0
  4931   002AA8  1A07               	xorwf	___flge@ff2^0,f,c
  4932   002AAA  0E00               	movlw	0
  4933   002AAC  1A08               	xorwf	(___flge@ff2+1)^0,f,c
  4934   002AAE  0E00               	movlw	0
  4935   002AB0  1A09               	xorwf	(___flge@ff2+2)^0,f,c
  4936   002AB2  0E80               	movlw	128
  4937   002AB4  1A0A               	xorwf	(___flge@ff2+3)^0,f,c
  4938   002AB6  5007               	movf	___flge@ff2^0,w,c
  4939   002AB8  5C03               	subwf	___flge@ff1^0,w,c
  4940   002ABA  5008               	movf	(___flge@ff2+1)^0,w,c
  4941   002ABC  5804               	subwfb	(___flge@ff1+1)^0,w,c
  4942   002ABE  5009               	movf	(___flge@ff2+2)^0,w,c
  4943   002AC0  5805               	subwfb	(___flge@ff1+2)^0,w,c
  4944   002AC2  500A               	movf	(___flge@ff2+3)^0,w,c
  4945   002AC4  5806               	subwfb	(___flge@ff1+3)^0,w,c
  4946   002AC6  B0D8               	btfsc	status,0,c
  4947   002AC8  EF68  F015         	goto	u2731
  4948   002ACC  EF6A  F015         	goto	u2730
  4949   002AD0                     u2731:
  4950   002AD0  EF6D  F015         	goto	l3492
  4951   002AD4                     u2730:
  4952   002AD4  90D8               	bcf	status,0,c
  4953   002AD6  EF6E  F015         	goto	l988
  4954   002ADA                     l3492:
  4955   002ADA  80D8               	bsf	status,0,c
  4956   002ADC                     l988:
  4957   002ADC  0012               	return		;funcret
  4958   002ADE                     __end_of___flge:
  4959                           	callstack 0
  4960                           
  4961 ;; *************** function _SYSTEM_Initialize *****************
  4962 ;; Defined at:
  4963 ;;		line 50 in file "mcc_generated_files/mcc.c"
  4964 ;; Parameters:    Size  Location     Type
  4965 ;;		None
  4966 ;; Auto vars:     Size  Location     Type
  4967 ;;		None
  4968 ;; Return value:  Size  Location     Type
  4969 ;;                  1    wreg      void 
  4970 ;; Registers used:
  4971 ;;		wreg, status,2, status,0, cstack
  4972 ;; Tracked objects:
  4973 ;;		On entry : 0/0
  4974 ;;		On exit  : 0/0
  4975 ;;		Unchanged: 0/0
  4976 ;; Data sizes:     COMRAM   BANK0   BANK1   BANK2   BANK3   BANK4   BANK5   BANK6   BANK7   BANK8   BANK9  BANK10  BANK1
      +1  BANK12  BANK13  BANK14
  4977 ;;      Params:         0       0       0       0       0       0       0       0       0       0       0       0       
      +0       0       0       0
  4978 ;;      Locals:         0       0       0       0       0       0       0       0       0       0       0       0       
      +0       0       0       0
  4979 ;;      Temps:          0       0       0       0       0       0       0       0       0       0       0       0       
      +0       0       0       0
  4980 ;;      Totals:         0       0       0       0       0       0       0       0       0       0       0       0       
      +0       0       0       0
  4981 ;;Total ram usage:        0 bytes
  4982 ;; Hardware stack levels used: 1
  4983 ;; Hardware stack levels required when called: 6
  4984 ;; This function calls:
  4985 ;;		_ADC_Initialize
  4986 ;;		_ECAN_Initialize
  4987 ;;		_ECCP1_Initialize
  4988 ;;		_EUSART1_Initialize
  4989 ;;		_INTERRUPT_Initialize
  4990 ;;		_OSCILLATOR_Initialize
  4991 ;;		_PIN_MANAGER_Initialize
  4992 ;;		_TMR0_Initialize
  4993 ;; This function is called by:
  4994 ;;		_main
  4995 ;; This function uses a non-reentrant model
  4996 ;;
  4997                           
  4998                           	psect	text22
  4999   003188                     __ptext22:
  5000                           	callstack 0
  5001   003188                     _SYSTEM_Initialize:
  5002                           	callstack 24
  5003   003188                     
  5004                           ;mcc_generated_files/mcc.c: 53:     INTERRUPT_Initialize();
  5005   003188  EC3D  F019         	call	_INTERRUPT_Initialize	;wreg free
  5006   00318C                     
  5007                           ;mcc_generated_files/mcc.c: 54:     PIN_MANAGER_Initialize();
  5008   00318C  EC61  F018         	call	_PIN_MANAGER_Initialize	;wreg free
  5009   003190                     
  5010                           ;mcc_generated_files/mcc.c: 55:     OSCILLATOR_Initialize();
  5011   003190  EC0C  F019         	call	_OSCILLATOR_Initialize	;wreg free
  5012   003194                     
  5013                           ;mcc_generated_files/mcc.c: 56:     ECCP1_Initialize();
  5014   003194  EC15  F019         	call	_ECCP1_Initialize	;wreg free
  5015   003198                     
  5016                           ;mcc_generated_files/mcc.c: 57:     ADC_Initialize();
  5017   003198  ECF6  F018         	call	_ADC_Initialize	;wreg free
  5018   00319C                     
  5019                           ;mcc_generated_files/mcc.c: 58:     TMR0_Initialize();
  5020   00319C  ECD5  F018         	call	_TMR0_Initialize	;wreg free
  5021   0031A0                     
  5022                           ;mcc_generated_files/mcc.c: 59:     EUSART1_Initialize();
  5023   0031A0  ECE0  F017         	call	_EUSART1_Initialize	;wreg free
  5024   0031A4                     
  5025                           ;mcc_generated_files/mcc.c: 60:     ECAN_Initialize();
  5026   0031A4  EC6F  F015         	call	_ECAN_Initialize	;wreg free
  5027   0031A8  0012               	return		;funcret
  5028   0031AA                     __end_of_SYSTEM_Initialize:
  5029                           	callstack 0
  5030                           
  5031 ;; *************** function _TMR0_Initialize *****************
  5032 ;; Defined at:
  5033 ;;		line 67 in file "mcc_generated_files/tmr0.c"
  5034 ;; Parameters:    Size  Location     Type
  5035 ;;		None
  5036 ;; Auto vars:     Size  Location     Type
  5037 ;;		None
  5038 ;; Return value:  Size  Location     Type
  5039 ;;                  1    wreg      void 
  5040 ;; Registers used:
  5041 ;;		wreg, status,2, status,0, cstack
  5042 ;; Tracked objects:
  5043 ;;		On entry : 0/0
  5044 ;;		On exit  : 0/0
  5045 ;;		Unchanged: 0/0
  5046 ;; Data sizes:     COMRAM   BANK0   BANK1   BANK2   BANK3   BANK4   BANK5   BANK6   BANK7   BANK8   BANK9  BANK10  BANK1
      +1  BANK12  BANK13  BANK14
  5047 ;;      Params:         0       0       0       0       0       0       0       0       0       0       0       0       
      +0       0       0       0
  5048 ;;      Locals:         0       0       0       0       0       0       0       0       0       0       0       0       
      +0       0       0       0
  5049 ;;      Temps:          0       0       0       0       0       0       0       0       0       0       0       0       
      +0       0       0       0
  5050 ;;      Totals:         0       0       0       0       0       0       0       0       0       0       0       0       
      +0       0       0       0
  5051 ;;Total ram usage:        0 bytes
  5052 ;; Hardware stack levels used: 1
  5053 ;; Hardware stack levels required when called: 5
  5054 ;; This function calls:
  5055 ;;		_TMR0_SetInterruptHandler
  5056 ;; This function is called by:
  5057 ;;		_SYSTEM_Initialize
  5058 ;;		_main
  5059 ;; This function uses a non-reentrant model
  5060 ;;
  5061                           
  5062                           	psect	text23
  5063   0031AA                     __ptext23:
  5064                           	callstack 0
  5065   0031AA                     _TMR0_Initialize:
  5066                           	callstack 25
  5067   0031AA                     
  5068                           ;mcc_generated_files/tmr0.c: 72:     TMR0H = 0x00;
  5069   0031AA  0E00               	movlw	0
  5070   0031AC  6ED7               	movwf	215,c	;volatile
  5071                           
  5072                           ;mcc_generated_files/tmr0.c: 75:     TMR0L = 0x3D;
  5073   0031AE  0E3D               	movlw	61
  5074   0031B0  6ED6               	movwf	214,c	;volatile
  5075                           
  5076                           ;mcc_generated_files/tmr0.c: 79:     timer0ReloadVal = 61;
  5077   0031B2  0E3D               	movlw	61
  5078   0031B4  6E56               	movwf	_timer0ReloadVal^0,c	;volatile
  5079   0031B6                     
  5080                           ;mcc_generated_files/tmr0.c: 82:     INTCONbits.TMR0IF = 0;
  5081   0031B6  94F2               	bcf	242,2,c	;volatile
  5082   0031B8                     
  5083                           ;mcc_generated_files/tmr0.c: 85:     INTCONbits.TMR0IE = 1;
  5084   0031B8  8AF2               	bsf	242,5,c	;volatile
  5085   0031BA                     
  5086                           ;mcc_generated_files/tmr0.c: 88:     TMR0_SetInterruptHandler(TMR0_DefaultInterruptHandl
      +                          er);
  5087   0031BA  0E7E               	movlw	low _TMR0_DefaultInterruptHandler
  5088   0031BC  6E03               	movwf	TMR0_SetInterruptHandler@InterruptHandler^0,c
  5089   0031BE  0E32               	movlw	high _TMR0_DefaultInterruptHandler
  5090   0031C0  6E04               	movwf	(TMR0_SetInterruptHandler@InterruptHandler+1)^0,c
  5091   0031C2  EC21  F019         	call	_TMR0_SetInterruptHandler	;wreg free
  5092   0031C6                     
  5093                           ;mcc_generated_files/tmr0.c: 91:     T0CON = 0xD7;
  5094   0031C6  0ED7               	movlw	215
  5095   0031C8  6ED5               	movwf	213,c	;volatile
  5096   0031CA  0012               	return		;funcret
  5097   0031CC                     __end_of_TMR0_Initialize:
  5098                           	callstack 0
  5099                           
  5100 ;; *************** function _TMR0_SetInterruptHandler *****************
  5101 ;; Defined at:
  5102 ;;		line 162 in file "mcc_generated_files/tmr0.c"
  5103 ;; Parameters:    Size  Location     Type
  5104 ;;  InterruptHan    2    2[COMRAM] PTR FTN()void 
  5105 ;;		 -> interruption(1), TMR0_DefaultInterruptHandler(1), 
  5106 ;; Auto vars:     Size  Location     Type
  5107 ;;		None
  5108 ;; Return value:  Size  Location     Type
  5109 ;;                  1    wreg      void 
  5110 ;; Registers used:
  5111 ;;		wreg, status,2, status,0
  5112 ;; Tracked objects:
  5113 ;;		On entry : 0/0
  5114 ;;		On exit  : 0/0
  5115 ;;		Unchanged: 0/0
  5116 ;; Data sizes:     COMRAM   BANK0   BANK1   BANK2   BANK3   BANK4   BANK5   BANK6   BANK7   BANK8   BANK9  BANK10  BANK1
      +1  BANK12  BANK13  BANK14
  5117 ;;      Params:         2       0       0       0       0       0       0       0       0       0       0       0       
      +0       0       0       0
  5118 ;;      Locals:         0       0       0       0       0       0       0       0       0       0       0       0       
      +0       0       0       0
  5119 ;;      Temps:          0       0       0       0       0       0       0       0       0       0       0       0       
      +0       0       0       0
  5120 ;;      Totals:         2       0       0       0       0       0       0       0       0       0       0       0       
      +0       0       0       0
  5121 ;;Total ram usage:        2 bytes
  5122 ;; Hardware stack levels used: 1
  5123 ;; Hardware stack levels required when called: 4
  5124 ;; This function calls:
  5125 ;;		Nothing
  5126 ;; This function is called by:
  5127 ;;		_TMR0_Initialize
  5128 ;;		_main
  5129 ;; This function uses a non-reentrant model
  5130 ;;
  5131                           
  5132                           	psect	text24
  5133   003242                     __ptext24:
  5134                           	callstack 0
  5135   003242                     _TMR0_SetInterruptHandler:
  5136                           	callstack 26
  5137   003242                     
  5138                           ;mcc_generated_files/tmr0.c: 163:     TMR0_InterruptHandler = InterruptHandler;
  5139   003242  C003  F0B8         	movff	TMR0_SetInterruptHandler@InterruptHandler,_TMR0_InterruptHandler
  5140   003246  C004  F0B9         	movff	TMR0_SetInterruptHandler@InterruptHandler+1,_TMR0_InterruptHandler+1
  5141   00324A  0012               	return		;funcret
  5142   00324C                     __end_of_TMR0_SetInterruptHandler:
  5143                           	callstack 0
  5144                           
  5145 ;; *************** function _PIN_MANAGER_Initialize *****************
  5146 ;; Defined at:
  5147 ;;		line 55 in file "mcc_generated_files/pin_manager.c"
  5148 ;; Parameters:    Size  Location     Type
  5149 ;;		None
  5150 ;; Auto vars:     Size  Location     Type
  5151 ;;		None
  5152 ;; Return value:  Size  Location     Type
  5153 ;;                  1    wreg      void 
  5154 ;; Registers used:
  5155 ;;		wreg, status,2
  5156 ;; Tracked objects:
  5157 ;;		On entry : 0/0
  5158 ;;		On exit  : 0/0
  5159 ;;		Unchanged: 0/0
  5160 ;; Data sizes:     COMRAM   BANK0   BANK1   BANK2   BANK3   BANK4   BANK5   BANK6   BANK7   BANK8   BANK9  BANK10  BANK1
      +1  BANK12  BANK13  BANK14
  5161 ;;      Params:         0       0       0       0       0       0       0       0       0       0       0       0       
      +0       0       0       0
  5162 ;;      Locals:         0       0       0       0       0       0       0       0       0       0       0       0       
      +0       0       0       0
  5163 ;;      Temps:          0       0       0       0       0       0       0       0       0       0       0       0       
      +0       0       0       0
  5164 ;;      Totals:         0       0       0       0       0       0       0       0       0       0       0       0       
      +0       0       0       0
  5165 ;;Total ram usage:        0 bytes
  5166 ;; Hardware stack levels used: 1
  5167 ;; Hardware stack levels required when called: 4
  5168 ;; This function calls:
  5169 ;;		Nothing
  5170 ;; This function is called by:
  5171 ;;		_SYSTEM_Initialize
  5172 ;; This function uses a non-reentrant model
  5173 ;;
  5174                           
  5175                           	psect	text25
  5176   0030C2                     __ptext25:
  5177                           	callstack 0
  5178   0030C2                     _PIN_MANAGER_Initialize:
  5179                           	callstack 25
  5180   0030C2                     
  5181                           ;mcc_generated_files/pin_manager.c: 60:     LATA = 0x00;
  5182   0030C2  0E00               	movlw	0
  5183   0030C4  6E89               	movwf	137,c	;volatile
  5184                           
  5185                           ;mcc_generated_files/pin_manager.c: 61:     LATB = 0x00;
  5186   0030C6  0E00               	movlw	0
  5187   0030C8  6E8A               	movwf	138,c	;volatile
  5188                           
  5189                           ;mcc_generated_files/pin_manager.c: 62:     LATC = 0x00;
  5190   0030CA  0E00               	movlw	0
  5191   0030CC  6E8B               	movwf	139,c	;volatile
  5192                           
  5193                           ;mcc_generated_files/pin_manager.c: 67:     TRISA = 0xCF;
  5194   0030CE  0ECF               	movlw	207
  5195   0030D0  6E92               	movwf	146,c	;volatile
  5196                           
  5197                           ;mcc_generated_files/pin_manager.c: 68:     TRISB = 0x3B;
  5198   0030D2  0E3B               	movlw	59
  5199   0030D4  6E93               	movwf	147,c	;volatile
  5200                           
  5201                           ;mcc_generated_files/pin_manager.c: 69:     TRISC = 0xBF;
  5202   0030D6  0EBF               	movlw	191
  5203   0030D8  6E94               	movwf	148,c	;volatile
  5204                           
  5205                           ;mcc_generated_files/pin_manager.c: 74:     ANCON0 = 0x1F;
  5206   0030DA  0E1F               	movlw	31
  5207   0030DC  010F               	movlb	15	; () banked
  5208   0030DE  6F5D               	movwf	93,b	;volatile
  5209                           
  5210                           ;mcc_generated_files/pin_manager.c: 75:     ANCON1 = 0x07;
  5211   0030E0  0E07               	movlw	7
  5212   0030E2  6F5C               	movwf	92,b	;volatile
  5213                           
  5214                           ;mcc_generated_files/pin_manager.c: 80:     WPUB = 0x00;
  5215   0030E4  0E00               	movlw	0
  5216   0030E6  6F5B               	movwf	91,b	;volatile
  5217   0030E8                     
  5218                           ; BSR set to: 15
  5219                           ;mcc_generated_files/pin_manager.c: 81:     INTCON2bits.nRBPU = 1;
  5220   0030E8  8EF1               	bsf	241,7,c	;volatile
  5221   0030EA                     
  5222                           ; BSR set to: 15
  5223   0030EA  0012               	return		;funcret
  5224   0030EC                     __end_of_PIN_MANAGER_Initialize:
  5225                           	callstack 0
  5226                           
  5227 ;; *************** function _OSCILLATOR_Initialize *****************
  5228 ;; Defined at:
  5229 ;;		line 63 in file "mcc_generated_files/mcc.c"
  5230 ;; Parameters:    Size  Location     Type
  5231 ;;		None
  5232 ;; Auto vars:     Size  Location     Type
  5233 ;;		None
  5234 ;; Return value:  Size  Location     Type
  5235 ;;                  1    wreg      void 
  5236 ;; Registers used:
  5237 ;;		wreg, status,2
  5238 ;; Tracked objects:
  5239 ;;		On entry : 0/0
  5240 ;;		On exit  : 0/0
  5241 ;;		Unchanged: 0/0
  5242 ;; Data sizes:     COMRAM   BANK0   BANK1   BANK2   BANK3   BANK4   BANK5   BANK6   BANK7   BANK8   BANK9  BANK10  BANK1
      +1  BANK12  BANK13  BANK14
  5243 ;;      Params:         0       0       0       0       0       0       0       0       0       0       0       0       
      +0       0       0       0
  5244 ;;      Locals:         0       0       0       0       0       0       0       0       0       0       0       0       
      +0       0       0       0
  5245 ;;      Temps:          0       0       0       0       0       0       0       0       0       0       0       0       
      +0       0       0       0
  5246 ;;      Totals:         0       0       0       0       0       0       0       0       0       0       0       0       
      +0       0       0       0
  5247 ;;Total ram usage:        0 bytes
  5248 ;; Hardware stack levels used: 1
  5249 ;; Hardware stack levels required when called: 4
  5250 ;; This function calls:
  5251 ;;		Nothing
  5252 ;; This function is called by:
  5253 ;;		_SYSTEM_Initialize
  5254 ;; This function uses a non-reentrant model
  5255 ;;
  5256                           
  5257                           	psect	text26
  5258   003218                     __ptext26:
  5259                           	callstack 0
  5260   003218                     _OSCILLATOR_Initialize:
  5261                           	callstack 25
  5262   003218                     
  5263                           ;mcc_generated_files/mcc.c: 66:     OSCCON = 0x60;
  5264   003218  0E60               	movlw	96
  5265   00321A  6ED3               	movwf	211,c	;volatile
  5266                           
  5267                           ;mcc_generated_files/mcc.c: 68:     OSCCON2 = 0x00;
  5268   00321C  0E00               	movlw	0
  5269   00321E  6ED2               	movwf	210,c	;volatile
  5270                           
  5271                           ;mcc_generated_files/mcc.c: 70:     OSCTUNE = 0x00;
  5272   003220  0E00               	movlw	0
  5273   003222  6E9B               	movwf	155,c	;volatile
  5274                           
  5275                           ;mcc_generated_files/mcc.c: 72:     REFOCON = 0x00;
  5276   003224  0E00               	movlw	0
  5277   003226  6E9A               	movwf	154,c	;volatile
  5278   003228  0012               	return		;funcret
  5279   00322A                     __end_of_OSCILLATOR_Initialize:
  5280                           	callstack 0
  5281                           
  5282 ;; *************** function _INTERRUPT_Initialize *****************
  5283 ;; Defined at:
  5284 ;;		line 52 in file "mcc_generated_files/interrupt_manager.c"
  5285 ;; Parameters:    Size  Location     Type
  5286 ;;		None
  5287 ;; Auto vars:     Size  Location     Type
  5288 ;;		None
  5289 ;; Return value:  Size  Location     Type
  5290 ;;                  1    wreg      void 
  5291 ;; Registers used:
  5292 ;;		None
  5293 ;; Tracked objects:
  5294 ;;		On entry : 0/0
  5295 ;;		On exit  : 0/0
  5296 ;;		Unchanged: 0/0
  5297 ;; Data sizes:     COMRAM   BANK0   BANK1   BANK2   BANK3   BANK4   BANK5   BANK6   BANK7   BANK8   BANK9  BANK10  BANK1
      +1  BANK12  BANK13  BANK14
  5298 ;;      Params:         0       0       0       0       0       0       0       0       0       0       0       0       
      +0       0       0       0
  5299 ;;      Locals:         0       0       0       0       0       0       0       0       0       0       0       0       
      +0       0       0       0
  5300 ;;      Temps:          0       0       0       0       0       0       0       0       0       0       0       0       
      +0       0       0       0
  5301 ;;      Totals:         0       0       0       0       0       0       0       0       0       0       0       0       
      +0       0       0       0
  5302 ;;Total ram usage:        0 bytes
  5303 ;; Hardware stack levels used: 1
  5304 ;; Hardware stack levels required when called: 4
  5305 ;; This function calls:
  5306 ;;		Nothing
  5307 ;; This function is called by:
  5308 ;;		_SYSTEM_Initialize
  5309 ;; This function uses a non-reentrant model
  5310 ;;
  5311                           
  5312                           	psect	text27
  5313   00327A                     __ptext27:
  5314                           	callstack 0
  5315   00327A                     _INTERRUPT_Initialize:
  5316                           	callstack 25
  5317   00327A                     
  5318                           ;mcc_generated_files/interrupt_manager.c: 55:     RCONbits.IPEN = 0;
  5319   00327A  9ED0               	bcf	208,7,c	;volatile
  5320   00327C  0012               	return		;funcret
  5321   00327E                     __end_of_INTERRUPT_Initialize:
  5322                           	callstack 0
  5323                           
  5324 ;; *************** function _EUSART1_Initialize *****************
  5325 ;; Defined at:
  5326 ;;		line 66 in file "mcc_generated_files/eusart1.c"
  5327 ;; Parameters:    Size  Location     Type
  5328 ;;		None
  5329 ;; Auto vars:     Size  Location     Type
  5330 ;;		None
  5331 ;; Return value:  Size  Location     Type
  5332 ;;                  1    wreg      void 
  5333 ;; Registers used:
  5334 ;;		wreg, status,2, status,0, cstack
  5335 ;; Tracked objects:
  5336 ;;		On entry : 0/0
  5337 ;;		On exit  : 0/0
  5338 ;;		Unchanged: 0/0
  5339 ;; Data sizes:     COMRAM   BANK0   BANK1   BANK2   BANK3   BANK4   BANK5   BANK6   BANK7   BANK8   BANK9  BANK10  BANK1
      +1  BANK12  BANK13  BANK14
  5340 ;;      Params:         0       0       0       0       0       0       0       0       0       0       0       0       
      +0       0       0       0
  5341 ;;      Locals:         0       0       0       0       0       0       0       0       0       0       0       0       
      +0       0       0       0
  5342 ;;      Temps:          0       0       0       0       0       0       0       0       0       0       0       0       
      +0       0       0       0
  5343 ;;      Totals:         0       0       0       0       0       0       0       0       0       0       0       0       
      +0       0       0       0
  5344 ;;Total ram usage:        0 bytes
  5345 ;; Hardware stack levels used: 1
  5346 ;; Hardware stack levels required when called: 5
  5347 ;; This function calls:
  5348 ;;		_EUSART1_SetErrorHandler
  5349 ;;		_EUSART1_SetFramingErrorHandler
  5350 ;;		_EUSART1_SetOverrunErrorHandler
  5351 ;; This function is called by:
  5352 ;;		_SYSTEM_Initialize
  5353 ;; This function uses a non-reentrant model
  5354 ;;
  5355                           
  5356                           	psect	text28
  5357   002FC0                     __ptext28:
  5358                           	callstack 0
  5359   002FC0                     _EUSART1_Initialize:
  5360                           	callstack 24
  5361   002FC0                     
  5362                           ;mcc_generated_files/eusart1.c: 71:     BAUDCON1 = 0x08;
  5363   002FC0  0E08               	movlw	8
  5364   002FC2  6EA7               	movwf	167,c	;volatile
  5365                           
  5366                           ;mcc_generated_files/eusart1.c: 74:     RCSTA1 = 0x90;
  5367   002FC4  0E90               	movlw	144
  5368   002FC6  6EAB               	movwf	171,c	;volatile
  5369                           
  5370                           ;mcc_generated_files/eusart1.c: 77:     TXSTA1 = 0x24;
  5371   002FC8  0E24               	movlw	36
  5372   002FCA  6EAC               	movwf	172,c	;volatile
  5373                           
  5374                           ;mcc_generated_files/eusart1.c: 80:     SPBRG1 = 0x08;
  5375   002FCC  0E08               	movlw	8
  5376   002FCE  6EAF               	movwf	175,c	;volatile
  5377                           
  5378                           ;mcc_generated_files/eusart1.c: 83:     SPBRGH1 = 0x02;
  5379   002FD0  0E02               	movlw	2
  5380   002FD2  6E7D               	movwf	125,c	;volatile
  5381   002FD4                     
  5382                           ;mcc_generated_files/eusart1.c: 86:     EUSART1_SetFramingErrorHandler(EUSART1_DefaultFr
      +                          amingErrorHandler);
  5383   002FD4  0E00               	movlw	0
  5384   002FD6  6E03               	movwf	EUSART1_SetFramingErrorHandler@interruptHandler^0,c
  5385   002FD8  0E00               	movlw	0
  5386   002FDA  6E04               	movwf	(EUSART1_SetFramingErrorHandler@interruptHandler+1)^0,c
  5387   002FDC  EC2B  F019         	call	_EUSART1_SetFramingErrorHandler	;wreg free
  5388   002FE0                     
  5389                           ;mcc_generated_files/eusart1.c: 87:     EUSART1_SetOverrunErrorHandler(EUSART1_DefaultOv
      +                          errunErrorHandler);
  5390   002FE0  0E00               	movlw	0
  5391   002FE2  6E03               	movwf	EUSART1_SetOverrunErrorHandler@interruptHandler^0,c
  5392   002FE4  0E00               	movlw	0
  5393   002FE6  6E04               	movwf	(EUSART1_SetOverrunErrorHandler@interruptHandler+1)^0,c
  5394   002FE8  EC26  F019         	call	_EUSART1_SetOverrunErrorHandler	;wreg free
  5395   002FEC                     
  5396                           ;mcc_generated_files/eusart1.c: 88:     EUSART1_SetErrorHandler(EUSART1_DefaultErrorHand
      +                          ler);
  5397   002FEC  0E00               	movlw	0
  5398   002FEE  6E03               	movwf	EUSART1_SetErrorHandler@interruptHandler^0,c
  5399   002FF0  0E00               	movlw	0
  5400   002FF2  6E04               	movwf	(EUSART1_SetErrorHandler@interruptHandler+1)^0,c
  5401   002FF4  EC30  F019         	call	_EUSART1_SetErrorHandler	;wreg free
  5402   002FF8                     
  5403                           ;mcc_generated_files/eusart1.c: 90:     eusart1RxLastError.status = 0;
  5404   002FF8  0E00               	movlw	0
  5405   002FFA  6E55               	movwf	_eusart1RxLastError^0,c	;volatile
  5406   002FFC  0012               	return		;funcret
  5407   002FFE                     __end_of_EUSART1_Initialize:
  5408                           	callstack 0
  5409                           
  5410 ;; *************** function _EUSART1_SetOverrunErrorHandler *****************
  5411 ;; Defined at:
  5412 ;;		line 170 in file "mcc_generated_files/eusart1.c"
  5413 ;; Parameters:    Size  Location     Type
  5414 ;;  interruptHan    2    2[COMRAM] PTR FTN()void 
  5415 ;;		 -> EUSART1_DefaultOverrunErrorHandler(1), 
  5416 ;; Auto vars:     Size  Location     Type
  5417 ;;		None
  5418 ;; Return value:  Size  Location     Type
  5419 ;;                  1    wreg      void 
  5420 ;; Registers used:
  5421 ;;		wreg, status,2, status,0
  5422 ;; Tracked objects:
  5423 ;;		On entry : 0/0
  5424 ;;		On exit  : 0/0
  5425 ;;		Unchanged: 0/0
  5426 ;; Data sizes:     COMRAM   BANK0   BANK1   BANK2   BANK3   BANK4   BANK5   BANK6   BANK7   BANK8   BANK9  BANK10  BANK1
      +1  BANK12  BANK13  BANK14
  5427 ;;      Params:         2       0       0       0       0       0       0       0       0       0       0       0       
      +0       0       0       0
  5428 ;;      Locals:         0       0       0       0       0       0       0       0       0       0       0       0       
      +0       0       0       0
  5429 ;;      Temps:          0       0       0       0       0       0       0       0       0       0       0       0       
      +0       0       0       0
  5430 ;;      Totals:         2       0       0       0       0       0       0       0       0       0       0       0       
      +0       0       0       0
  5431 ;;Total ram usage:        2 bytes
  5432 ;; Hardware stack levels used: 1
  5433 ;; Hardware stack levels required when called: 4
  5434 ;; This function calls:
  5435 ;;		Nothing
  5436 ;; This function is called by:
  5437 ;;		_EUSART1_Initialize
  5438 ;; This function uses a non-reentrant model
  5439 ;;
  5440                           
  5441                           	psect	text29
  5442   00324C                     __ptext29:
  5443                           	callstack 0
  5444   00324C                     _EUSART1_SetOverrunErrorHandler:
  5445                           	callstack 24
  5446   00324C                     
  5447                           ;mcc_generated_files/eusart1.c: 171:     EUSART1_OverrunErrorHandler = interruptHandler;
  5448   00324C  C003  F0BC         	movff	EUSART1_SetOverrunErrorHandler@interruptHandler,_EUSART1_OverrunErrorHandler
  5449   003250  C004  F0BD         	movff	EUSART1_SetOverrunErrorHandler@interruptHandler+1,_EUSART1_OverrunErrorHandler+1
  5450   003254  0012               	return		;funcret
  5451   003256                     __end_of_EUSART1_SetOverrunErrorHandler:
  5452                           	callstack 0
  5453                           
  5454 ;; *************** function _EUSART1_SetFramingErrorHandler *****************
  5455 ;; Defined at:
  5456 ;;		line 166 in file "mcc_generated_files/eusart1.c"
  5457 ;; Parameters:    Size  Location     Type
  5458 ;;  interruptHan    2    2[COMRAM] PTR FTN()void 
  5459 ;;		 -> EUSART1_DefaultFramingErrorHandler(1), 
  5460 ;; Auto vars:     Size  Location     Type
  5461 ;;		None
  5462 ;; Return value:  Size  Location     Type
  5463 ;;                  1    wreg      void 
  5464 ;; Registers used:
  5465 ;;		wreg, status,2, status,0
  5466 ;; Tracked objects:
  5467 ;;		On entry : 0/0
  5468 ;;		On exit  : 0/0
  5469 ;;		Unchanged: 0/0
  5470 ;; Data sizes:     COMRAM   BANK0   BANK1   BANK2   BANK3   BANK4   BANK5   BANK6   BANK7   BANK8   BANK9  BANK10  BANK1
      +1  BANK12  BANK13  BANK14
  5471 ;;      Params:         2       0       0       0       0       0       0       0       0       0       0       0       
      +0       0       0       0
  5472 ;;      Locals:         0       0       0       0       0       0       0       0       0       0       0       0       
      +0       0       0       0
  5473 ;;      Temps:          0       0       0       0       0       0       0       0       0       0       0       0       
      +0       0       0       0
  5474 ;;      Totals:         2       0       0       0       0       0       0       0       0       0       0       0       
      +0       0       0       0
  5475 ;;Total ram usage:        2 bytes
  5476 ;; Hardware stack levels used: 1
  5477 ;; Hardware stack levels required when called: 4
  5478 ;; This function calls:
  5479 ;;		Nothing
  5480 ;; This function is called by:
  5481 ;;		_EUSART1_Initialize
  5482 ;; This function uses a non-reentrant model
  5483 ;;
  5484                           
  5485                           	psect	text30
  5486   003256                     __ptext30:
  5487                           	callstack 0
  5488   003256                     _EUSART1_SetFramingErrorHandler:
  5489                           	callstack 24
  5490   003256                     
  5491                           ;mcc_generated_files/eusart1.c: 167:     EUSART1_FramingErrorHandler = interruptHandler;
  5492   003256  C003  F0BE         	movff	EUSART1_SetFramingErrorHandler@interruptHandler,_EUSART1_FramingErrorHandler
  5493   00325A  C004  F0BF         	movff	EUSART1_SetFramingErrorHandler@interruptHandler+1,_EUSART1_FramingErrorHandler+1
  5494   00325E  0012               	return		;funcret
  5495   003260                     __end_of_EUSART1_SetFramingErrorHandler:
  5496                           	callstack 0
  5497                           
  5498 ;; *************** function _EUSART1_SetErrorHandler *****************
  5499 ;; Defined at:
  5500 ;;		line 174 in file "mcc_generated_files/eusart1.c"
  5501 ;; Parameters:    Size  Location     Type
  5502 ;;  interruptHan    2    2[COMRAM] PTR FTN()void 
  5503 ;;		 -> EUSART1_DefaultErrorHandler(1), 
  5504 ;; Auto vars:     Size  Location     Type
  5505 ;;		None
  5506 ;; Return value:  Size  Location     Type
  5507 ;;                  1    wreg      void 
  5508 ;; Registers used:
  5509 ;;		wreg, status,2, status,0
  5510 ;; Tracked objects:
  5511 ;;		On entry : 0/0
  5512 ;;		On exit  : 0/0
  5513 ;;		Unchanged: 0/0
  5514 ;; Data sizes:     COMRAM   BANK0   BANK1   BANK2   BANK3   BANK4   BANK5   BANK6   BANK7   BANK8   BANK9  BANK10  BANK1
      +1  BANK12  BANK13  BANK14
  5515 ;;      Params:         2       0       0       0       0       0       0       0       0       0       0       0       
      +0       0       0       0
  5516 ;;      Locals:         0       0       0       0       0       0       0       0       0       0       0       0       
      +0       0       0       0
  5517 ;;      Temps:          0       0       0       0       0       0       0       0       0       0       0       0       
      +0       0       0       0
  5518 ;;      Totals:         2       0       0       0       0       0       0       0       0       0       0       0       
      +0       0       0       0
  5519 ;;Total ram usage:        2 bytes
  5520 ;; Hardware stack levels used: 1
  5521 ;; Hardware stack levels required when called: 4
  5522 ;; This function calls:
  5523 ;;		Nothing
  5524 ;; This function is called by:
  5525 ;;		_EUSART1_Initialize
  5526 ;; This function uses a non-reentrant model
  5527 ;;
  5528                           
  5529                           	psect	text31
  5530   003260                     __ptext31:
  5531                           	callstack 0
  5532   003260                     _EUSART1_SetErrorHandler:
  5533                           	callstack 24
  5534   003260                     
  5535                           ;mcc_generated_files/eusart1.c: 175:     EUSART1_ErrorHandler = interruptHandler;
  5536   003260  C003  F0BA         	movff	EUSART1_SetErrorHandler@interruptHandler,_EUSART1_ErrorHandler
  5537   003264  C004  F0BB         	movff	EUSART1_SetErrorHandler@interruptHandler+1,_EUSART1_ErrorHandler+1
  5538   003268  0012               	return		;funcret
  5539   00326A                     __end_of_EUSART1_SetErrorHandler:
  5540                           	callstack 0
  5541                           
  5542 ;; *************** function _ECCP1_Initialize *****************
  5543 ;; Defined at:
  5544 ;;		line 49 in file "mcc_generated_files/eccp1.c"
  5545 ;; Parameters:    Size  Location     Type
  5546 ;;		None
  5547 ;; Auto vars:     Size  Location     Type
  5548 ;;		None
  5549 ;; Return value:  Size  Location     Type
  5550 ;;                  1    wreg      void 
  5551 ;; Registers used:
  5552 ;;		wreg, status,2
  5553 ;; Tracked objects:
  5554 ;;		On entry : 0/0
  5555 ;;		On exit  : 0/0
  5556 ;;		Unchanged: 0/0
  5557 ;; Data sizes:     COMRAM   BANK0   BANK1   BANK2   BANK3   BANK4   BANK5   BANK6   BANK7   BANK8   BANK9  BANK10  BANK1
      +1  BANK12  BANK13  BANK14
  5558 ;;      Params:         0       0       0       0       0       0       0       0       0       0       0       0       
      +0       0       0       0
  5559 ;;      Locals:         0       0       0       0       0       0       0       0       0       0       0       0       
      +0       0       0       0
  5560 ;;      Temps:          0       0       0       0       0       0       0       0       0       0       0       0       
      +0       0       0       0
  5561 ;;      Totals:         0       0       0       0       0       0       0       0       0       0       0       0       
      +0       0       0       0
  5562 ;;Total ram usage:        0 bytes
  5563 ;; Hardware stack levels used: 1
  5564 ;; Hardware stack levels required when called: 4
  5565 ;; This function calls:
  5566 ;;		Nothing
  5567 ;; This function is called by:
  5568 ;;		_SYSTEM_Initialize
  5569 ;; This function uses a non-reentrant model
  5570 ;;
  5571                           
  5572                           	psect	text32
  5573   00322A                     __ptext32:
  5574                           	callstack 0
  5575   00322A                     _ECCP1_Initialize:
  5576                           	callstack 25
  5577   00322A                     
  5578                           ;mcc_generated_files/eccp1.c: 53:  CCP1CON = 0x00;
  5579   00322A  0E00               	movlw	0
  5580   00322C  6EBB               	movwf	187,c	;volatile
  5581                           
  5582                           ;mcc_generated_files/eccp1.c: 56:  CCPR1H = 0x00;
  5583   00322E  0E00               	movlw	0
  5584   003230  6EBD               	movwf	189,c	;volatile
  5585                           
  5586                           ;mcc_generated_files/eccp1.c: 59:  CCPR1L = 0x00;
  5587   003232  0E00               	movlw	0
  5588   003234  6EBC               	movwf	188,c	;volatile
  5589   003236  0012               	return		;funcret
  5590   003238                     __end_of_ECCP1_Initialize:
  5591                           	callstack 0
  5592                           
  5593 ;; *************** function _ECAN_Initialize *****************
  5594 ;; Defined at:
  5595 ;;		line 65 in file "mcc_generated_files/ecan.c"
  5596 ;; Parameters:    Size  Location     Type
  5597 ;;		None
  5598 ;; Auto vars:     Size  Location     Type
  5599 ;;		None
  5600 ;; Return value:  Size  Location     Type
  5601 ;;                  1    wreg      void 
  5602 ;; Registers used:
  5603 ;;		wreg, status,2, status,0, cstack
  5604 ;; Tracked objects:
  5605 ;;		On entry : 0/0
  5606 ;;		On exit  : 0/0
  5607 ;;		Unchanged: 0/0
  5608 ;; Data sizes:     COMRAM   BANK0   BANK1   BANK2   BANK3   BANK4   BANK5   BANK6   BANK7   BANK8   BANK9  BANK10  BANK1
      +1  BANK12  BANK13  BANK14
  5609 ;;      Params:         0       0       0       0       0       0       0       0       0       0       0       0       
      +0       0       0       0
  5610 ;;      Locals:         0       0       0       0       0       0       0       0       0       0       0       0       
      +0       0       0       0
  5611 ;;      Temps:          1       0       0       0       0       0       0       0       0       0       0       0       
      +0       0       0       0
  5612 ;;      Totals:         1       0       0       0       0       0       0       0       0       0       0       0       
      +0       0       0       0
  5613 ;;Total ram usage:        1 bytes
  5614 ;; Hardware stack levels used: 1
  5615 ;; Hardware stack levels required when called: 5
  5616 ;; This function calls:
  5617 ;;		_ECAN_SetWakeUpInterruptHandler
  5618 ;; This function is called by:
  5619 ;;		_SYSTEM_Initialize
  5620 ;; This function uses a non-reentrant model
  5621 ;;
  5622                           
  5623                           	psect	text33
  5624   002ADE                     __ptext33:
  5625                           	callstack 0
  5626   002ADE                     _ECAN_Initialize:
  5627                           	callstack 24
  5628   002ADE                     
  5629                           ;mcc_generated_files/ecan.c: 67:     CANCON = 0x80;
  5630   002ADE  0E80               	movlw	128
  5631   002AE0  6E6F               	movwf	111,c	;volatile
  5632   002AE2                     l3290:
  5633   002AE2  506E               	movf	110,w,c	;volatile
  5634   002AE4  0BE0               	andlw	224
  5635   002AE6  0A80               	xorlw	128
  5636   002AE8  A4D8               	btfss	status,2,c
  5637   002AEA  EF79  F015         	goto	u2571
  5638   002AEE  EF7B  F015         	goto	u2570
  5639   002AF2                     u2571:
  5640   002AF2  EF71  F015         	goto	l3290
  5641   002AF6                     u2570:
  5642   002AF6                     
  5643                           ;mcc_generated_files/ecan.c: 73:     ECANCON = 0x00;
  5644   002AF6  0E00               	movlw	0
  5645   002AF8  6E72               	movwf	114,c	;volatile
  5646                           
  5647                           ;mcc_generated_files/ecan.c: 78:     CIOCON = 0x20;
  5648   002AFA  0E20               	movlw	32
  5649   002AFC  6E70               	movwf	112,c	;volatile
  5650                           
  5651                           ;mcc_generated_files/ecan.c: 91:     RXM0EIDH = 0x00;
  5652   002AFE  0E00               	movlw	0
  5653   002B00  010E               	movlb	14	; () banked
  5654   002B02  6FFA               	movwf	250,b	;volatile
  5655                           
  5656                           ;mcc_generated_files/ecan.c: 92:     RXM0EIDL = 0x00;
  5657   002B04  0E00               	movlw	0
  5658   002B06  6FFB               	movwf	251,b	;volatile
  5659                           
  5660                           ;mcc_generated_files/ecan.c: 93:     RXM0SIDH = 0x00;
  5661   002B08  0E00               	movlw	0
  5662   002B0A  6FF8               	movwf	248,b	;volatile
  5663                           
  5664                           ;mcc_generated_files/ecan.c: 94:     RXM0SIDL = 0x00;
  5665   002B0C  0E00               	movlw	0
  5666   002B0E  6FF9               	movwf	249,b	;volatile
  5667                           
  5668                           ;mcc_generated_files/ecan.c: 95:     RXM1EIDH = 0x00;
  5669   002B10  0E00               	movlw	0
  5670   002B12  6FFE               	movwf	254,b	;volatile
  5671                           
  5672                           ;mcc_generated_files/ecan.c: 96:     RXM1EIDL = 0x00;
  5673   002B14  0E00               	movlw	0
  5674   002B16  6FFF               	movwf	255,b	;volatile
  5675                           
  5676                           ;mcc_generated_files/ecan.c: 97:     RXM1SIDH = 0x00;
  5677   002B18  0E00               	movlw	0
  5678   002B1A  6FFC               	movwf	252,b	;volatile
  5679                           
  5680                           ;mcc_generated_files/ecan.c: 98:     RXM1SIDL = 0x00;
  5681   002B1C  0E00               	movlw	0
  5682   002B1E  6FFD               	movwf	253,b	;volatile
  5683                           
  5684                           ;mcc_generated_files/ecan.c: 103:     RXF0EIDH = 0x00;
  5685   002B20  0E00               	movlw	0
  5686   002B22  6FE2               	movwf	226,b	;volatile
  5687                           
  5688                           ;mcc_generated_files/ecan.c: 104:     RXF0EIDL = 0x00;
  5689   002B24  0E00               	movlw	0
  5690   002B26  6FE3               	movwf	227,b	;volatile
  5691                           
  5692                           ;mcc_generated_files/ecan.c: 105:     RXF0SIDH = 0x00;
  5693   002B28  0E00               	movlw	0
  5694   002B2A  6FE0               	movwf	224,b	;volatile
  5695                           
  5696                           ;mcc_generated_files/ecan.c: 106:     RXF0SIDL = 0x00;
  5697   002B2C  0E00               	movlw	0
  5698   002B2E  6FE1               	movwf	225,b	;volatile
  5699                           
  5700                           ;mcc_generated_files/ecan.c: 107:     RXF1EIDH = 0x00;
  5701   002B30  0E00               	movlw	0
  5702   002B32  6FE6               	movwf	230,b	;volatile
  5703                           
  5704                           ;mcc_generated_files/ecan.c: 108:     RXF1EIDL = 0x00;
  5705   002B34  0E00               	movlw	0
  5706   002B36  6FE7               	movwf	231,b	;volatile
  5707                           
  5708                           ;mcc_generated_files/ecan.c: 109:     RXF1SIDH = 0x00;
  5709   002B38  0E00               	movlw	0
  5710   002B3A  6FE4               	movwf	228,b	;volatile
  5711                           
  5712                           ;mcc_generated_files/ecan.c: 110:     RXF1SIDL = 0x00;
  5713   002B3C  0E00               	movlw	0
  5714   002B3E  6FE5               	movwf	229,b	;volatile
  5715                           
  5716                           ;mcc_generated_files/ecan.c: 111:     RXF2EIDH = 0x00;
  5717   002B40  0E00               	movlw	0
  5718   002B42  6FEA               	movwf	234,b	;volatile
  5719                           
  5720                           ;mcc_generated_files/ecan.c: 112:     RXF2EIDL = 0x00;
  5721   002B44  0E00               	movlw	0
  5722   002B46  6FEB               	movwf	235,b	;volatile
  5723                           
  5724                           ;mcc_generated_files/ecan.c: 113:     RXF2SIDH = 0x00;
  5725   002B48  0E00               	movlw	0
  5726   002B4A  6FE8               	movwf	232,b	;volatile
  5727                           
  5728                           ;mcc_generated_files/ecan.c: 114:     RXF2SIDL = 0x00;
  5729   002B4C  0E00               	movlw	0
  5730   002B4E  6FE9               	movwf	233,b	;volatile
  5731                           
  5732                           ;mcc_generated_files/ecan.c: 115:     RXF3EIDH = 0x00;
  5733   002B50  0E00               	movlw	0
  5734   002B52  6FEE               	movwf	238,b	;volatile
  5735                           
  5736                           ;mcc_generated_files/ecan.c: 116:     RXF3EIDL = 0x00;
  5737   002B54  0E00               	movlw	0
  5738   002B56  6FEF               	movwf	239,b	;volatile
  5739                           
  5740                           ;mcc_generated_files/ecan.c: 117:     RXF3SIDH = 0x00;
  5741   002B58  0E00               	movlw	0
  5742   002B5A  6FEC               	movwf	236,b	;volatile
  5743                           
  5744                           ;mcc_generated_files/ecan.c: 118:     RXF3SIDL = 0x00;
  5745   002B5C  0E00               	movlw	0
  5746   002B5E  6FED               	movwf	237,b	;volatile
  5747                           
  5748                           ;mcc_generated_files/ecan.c: 119:     RXF4EIDH = 0x00;
  5749   002B60  0E00               	movlw	0
  5750   002B62  6FF2               	movwf	242,b	;volatile
  5751                           
  5752                           ;mcc_generated_files/ecan.c: 120:     RXF4EIDL = 0x00;
  5753   002B64  0E00               	movlw	0
  5754   002B66  6FF3               	movwf	243,b	;volatile
  5755                           
  5756                           ;mcc_generated_files/ecan.c: 121:     RXF4SIDH = 0x00;
  5757   002B68  0E00               	movlw	0
  5758   002B6A  6FF0               	movwf	240,b	;volatile
  5759                           
  5760                           ;mcc_generated_files/ecan.c: 122:     RXF4SIDL = 0x00;
  5761   002B6C  0E00               	movlw	0
  5762   002B6E  6FF1               	movwf	241,b	;volatile
  5763                           
  5764                           ;mcc_generated_files/ecan.c: 123:     RXF5EIDH = 0x00;
  5765   002B70  0E00               	movlw	0
  5766   002B72  6FF6               	movwf	246,b	;volatile
  5767                           
  5768                           ;mcc_generated_files/ecan.c: 124:     RXF5EIDL = 0x00;
  5769   002B74  0E00               	movlw	0
  5770   002B76  6FF7               	movwf	247,b	;volatile
  5771                           
  5772                           ;mcc_generated_files/ecan.c: 125:     RXF5SIDH = 0x00;
  5773   002B78  0E00               	movlw	0
  5774   002B7A  6FF4               	movwf	244,b	;volatile
  5775                           
  5776                           ;mcc_generated_files/ecan.c: 126:     RXF5SIDL = 0x00;
  5777   002B7C  0E00               	movlw	0
  5778   002B7E  6FF5               	movwf	245,b	;volatile
  5779                           
  5780                           ;mcc_generated_files/ecan.c: 141:     BRGCON1 = 0x13;
  5781   002B80  0E13               	movlw	19
  5782   002B82  6F43               	movwf	67,b	;volatile
  5783                           
  5784                           ;mcc_generated_files/ecan.c: 142:     BRGCON2 = 0xBF;
  5785   002B84  0EBF               	movlw	191
  5786   002B86  6F44               	movwf	68,b	;volatile
  5787                           
  5788                           ;mcc_generated_files/ecan.c: 143:     BRGCON3 = 0x07;
  5789   002B88  0E07               	movlw	7
  5790   002B8A  6F45               	movwf	69,b	;volatile
  5791   002B8C                     
  5792                           ; BSR set to: 14
  5793                           ;mcc_generated_files/ecan.c: 145:     ECAN_SetWakeUpInterruptHandler(WakeUpDefaultInterr
      +                          uptHandler);
  5794   002B8C  0E80               	movlw	low _WakeUpDefaultInterruptHandler
  5795   002B8E  6E03               	movwf	ECAN_SetWakeUpInterruptHandler@handler^0,c
  5796   002B90  0E32               	movlw	high _WakeUpDefaultInterruptHandler
  5797   002B92  6E04               	movwf	(ECAN_SetWakeUpInterruptHandler@handler+1)^0,c
  5798   002B94  EC35  F019         	call	_ECAN_SetWakeUpInterruptHandler	;wreg free
  5799   002B98                     
  5800                           ;mcc_generated_files/ecan.c: 146:     PIR5bits.WAKIF = 0;
  5801   002B98  9C77               	bcf	119,6,c	;volatile
  5802   002B9A                     
  5803                           ;mcc_generated_files/ecan.c: 147:     PIE5bits.WAKIE = 1;
  5804   002B9A  8C76               	bsf	118,6,c	;volatile
  5805   002B9C                     
  5806                           ;mcc_generated_files/ecan.c: 149:     CANCON = 0x00;
  5807   002B9C  0E00               	movlw	0
  5808   002B9E  6E6F               	movwf	111,c	;volatile
  5809   002BA0                     l3302:
  5810   002BA0  CF6E F005          	movff	3950,??_ECAN_Initialize	;volatile
  5811   002BA4  0EE0               	movlw	224
  5812   002BA6  1605               	andwf	??_ECAN_Initialize^0,f,c
  5813   002BA8  A4D8               	btfss	status,2,c
  5814   002BAA  EFD9  F015         	goto	u2581
  5815   002BAE  EFDB  F015         	goto	u2580
  5816   002BB2                     u2581:
  5817   002BB2  EFD0  F015         	goto	l3302
  5818   002BB6                     u2580:
  5819   002BB6  0012               	return		;funcret
  5820   002BB8                     __end_of_ECAN_Initialize:
  5821                           	callstack 0
  5822                           
  5823 ;; *************** function _ECAN_SetWakeUpInterruptHandler *****************
  5824 ;; Defined at:
  5825 ;;		line 439 in file "mcc_generated_files/ecan.c"
  5826 ;; Parameters:    Size  Location     Type
  5827 ;;  handler         2    2[COMRAM] PTR FTN()void 
  5828 ;;		 -> WakeUpDefaultInterruptHandler(1), 
  5829 ;; Auto vars:     Size  Location     Type
  5830 ;;		None
  5831 ;; Return value:  Size  Location     Type
  5832 ;;                  1    wreg      void 
  5833 ;; Registers used:
  5834 ;;		wreg, status,2, status,0
  5835 ;; Tracked objects:
  5836 ;;		On entry : 0/0
  5837 ;;		On exit  : 0/0
  5838 ;;		Unchanged: 0/0
  5839 ;; Data sizes:     COMRAM   BANK0   BANK1   BANK2   BANK3   BANK4   BANK5   BANK6   BANK7   BANK8   BANK9  BANK10  BANK1
      +1  BANK12  BANK13  BANK14
  5840 ;;      Params:         2       0       0       0       0       0       0       0       0       0       0       0       
      +0       0       0       0
  5841 ;;      Locals:         0       0       0       0       0       0       0       0       0       0       0       0       
      +0       0       0       0
  5842 ;;      Temps:          0       0       0       0       0       0       0       0       0       0       0       0       
      +0       0       0       0
  5843 ;;      Totals:         2       0       0       0       0       0       0       0       0       0       0       0       
      +0       0       0       0
  5844 ;;Total ram usage:        2 bytes
  5845 ;; Hardware stack levels used: 1
  5846 ;; Hardware stack levels required when called: 4
  5847 ;; This function calls:
  5848 ;;		Nothing
  5849 ;; This function is called by:
  5850 ;;		_ECAN_Initialize
  5851 ;; This function uses a non-reentrant model
  5852 ;;
  5853                           
  5854                           	psect	text34
  5855   00326A                     __ptext34:
  5856                           	callstack 0
  5857   00326A                     _ECAN_SetWakeUpInterruptHandler:
  5858                           	callstack 24
  5859   00326A                     
  5860                           ;mcc_generated_files/ecan.c: 439: void ECAN_SetWakeUpInterruptHandler(void (*handler)(vo
      +                          id));mcc_generated_files/ecan.c: 440: {;mcc_generated_files/ecan.c: 441:     WakeUpInter
      +                          ruptHandler = handler;
  5861   00326A  C003  F09A         	movff	ECAN_SetWakeUpInterruptHandler@handler,_WakeUpInterruptHandler
  5862   00326E  C004  F09B         	movff	ECAN_SetWakeUpInterruptHandler@handler+1,_WakeUpInterruptHandler+1
  5863   003272  0012               	return		;funcret
  5864   003274                     __end_of_ECAN_SetWakeUpInterruptHandler:
  5865                           	callstack 0
  5866                           
  5867 ;; *************** function _ADC_Initialize *****************
  5868 ;; Defined at:
  5869 ;;		line 62 in file "mcc_generated_files/adc.c"
  5870 ;; Parameters:    Size  Location     Type
  5871 ;;		None
  5872 ;; Auto vars:     Size  Location     Type
  5873 ;;		None
  5874 ;; Return value:  Size  Location     Type
  5875 ;;                  1    wreg      void 
  5876 ;; Registers used:
  5877 ;;		wreg, status,2
  5878 ;; Tracked objects:
  5879 ;;		On entry : 0/0
  5880 ;;		On exit  : 0/0
  5881 ;;		Unchanged: 0/0
  5882 ;; Data sizes:     COMRAM   BANK0   BANK1   BANK2   BANK3   BANK4   BANK5   BANK6   BANK7   BANK8   BANK9  BANK10  BANK1
      +1  BANK12  BANK13  BANK14
  5883 ;;      Params:         0       0       0       0       0       0       0       0       0       0       0       0       
      +0       0       0       0
  5884 ;;      Locals:         0       0       0       0       0       0       0       0       0       0       0       0       
      +0       0       0       0
  5885 ;;      Temps:          0       0       0       0       0       0       0       0       0       0       0       0       
      +0       0       0       0
  5886 ;;      Totals:         0       0       0       0       0       0       0       0       0       0       0       0       
      +0       0       0       0
  5887 ;;Total ram usage:        0 bytes
  5888 ;; Hardware stack levels used: 1
  5889 ;; Hardware stack levels required when called: 4
  5890 ;; This function calls:
  5891 ;;		Nothing
  5892 ;; This function is called by:
  5893 ;;		_SYSTEM_Initialize
  5894 ;; This function uses a non-reentrant model
  5895 ;;
  5896                           
  5897                           	psect	text35
  5898   0031EC                     __ptext35:
  5899                           	callstack 0
  5900   0031EC                     _ADC_Initialize:
  5901                           	callstack 25
  5902   0031EC                     
  5903                           ;mcc_generated_files/adc.c: 67:     ADCON0 = 0x01;
  5904   0031EC  0E01               	movlw	1
  5905   0031EE  6EC2               	movwf	194,c	;volatile
  5906                           
  5907                           ;mcc_generated_files/adc.c: 70:     ADCON1 = 0x30;
  5908   0031F0  0E30               	movlw	48
  5909   0031F2  6EC1               	movwf	193,c	;volatile
  5910                           
  5911                           ;mcc_generated_files/adc.c: 73:     ADCON2 = 0xBE;
  5912   0031F4  0EBE               	movlw	190
  5913   0031F6  6EC0               	movwf	192,c	;volatile
  5914                           
  5915                           ;mcc_generated_files/adc.c: 76:     ADRESH = 0x00;
  5916   0031F8  0E00               	movlw	0
  5917   0031FA  6EC4               	movwf	196,c	;volatile
  5918                           
  5919                           ;mcc_generated_files/adc.c: 79:     ADRESL = 0x00;
  5920   0031FC  0E00               	movlw	0
  5921   0031FE  6EC3               	movwf	195,c	;volatile
  5922   003200  0012               	return		;funcret
  5923   003202                     __end_of_ADC_Initialize:
  5924                           	callstack 0
  5925                           
  5926 ;; *************** function _LCD *****************
  5927 ;; Defined at:
  5928 ;;		line 122 in file "main.c"
  5929 ;; Parameters:    Size  Location     Type
  5930 ;;		None
  5931 ;; Auto vars:     Size  Location     Type
  5932 ;;		None
  5933 ;; Return value:  Size  Location     Type
  5934 ;;                  1    wreg      void 
  5935 ;; Registers used:
  5936 ;;		wreg, cstack
  5937 ;; Tracked objects:
  5938 ;;		On entry : 0/0
  5939 ;;		On exit  : 0/0
  5940 ;;		Unchanged: 0/0
  5941 ;; Data sizes:     COMRAM   BANK0   BANK1   BANK2   BANK3   BANK4   BANK5   BANK6   BANK7   BANK8   BANK9  BANK10  BANK1
      +1  BANK12  BANK13  BANK14
  5942 ;;      Params:         0       0       0       0       0       0       0       0       0       0       0       0       
      +0       0       0       0
  5943 ;;      Locals:         0       0       0       0       0       0       0       0       0       0       0       0       
      +0       0       0       0
  5944 ;;      Temps:          0       0       0       0       0       0       0       0       0       0       0       0       
      +0       0       0       0
  5945 ;;      Totals:         0       0       0       0       0       0       0       0       0       0       0       0       
      +0       0       0       0
  5946 ;;Total ram usage:        0 bytes
  5947 ;; Hardware stack levels used: 1
  5948 ;; Hardware stack levels required when called: 5
  5949 ;; This function calls:
  5950 ;;		_EUSART1_Write
  5951 ;; This function is called by:
  5952 ;;		_main
  5953 ;; This function uses a non-reentrant model
  5954 ;;
  5955                           
  5956                           	psect	text36
  5957   003096                     __ptext36:
  5958                           	callstack 0
  5959   003096                     _LCD:
  5960                           	callstack 25
  5961   003096                     
  5962                           ;main.c: 123:     EUSART1_Write(0xFE);
  5963   003096  0EFE               	movlw	254
  5964   003098  EC01  F019         	call	_EUSART1_Write
  5965                           
  5966                           ;main.c: 124:     EUSART1_Write(0x41);
  5967   00309C  0E41               	movlw	65
  5968   00309E  EC01  F019         	call	_EUSART1_Write
  5969                           
  5970                           ;main.c: 125:     EUSART1_Write(0xFE);
  5971   0030A2  0EFE               	movlw	254
  5972   0030A4  EC01  F019         	call	_EUSART1_Write
  5973                           
  5974                           ;main.c: 126:     EUSART1_Write(0x51);
  5975   0030A8  0E51               	movlw	81
  5976   0030AA  EC01  F019         	call	_EUSART1_Write
  5977                           
  5978                           ;main.c: 127:     EUSART1_Write(0xFE);
  5979   0030AE  0EFE               	movlw	254
  5980   0030B0  EC01  F019         	call	_EUSART1_Write
  5981                           
  5982                           ;main.c: 128:     EUSART1_Write(0xFE);
  5983   0030B4  0EFE               	movlw	254
  5984   0030B6  EC01  F019         	call	_EUSART1_Write
  5985                           
  5986                           ;main.c: 129:     EUSART1_Write(0x46);
  5987   0030BA  0E46               	movlw	70
  5988   0030BC  EC01  F019         	call	_EUSART1_Write
  5989   0030C0  0012               	return		;funcret
  5990   0030C2                     __end_of_LCD:
  5991                           	callstack 0
  5992                           
  5993 ;; *************** function _EUSART1_Write *****************
  5994 ;; Defined at:
  5995 ;;		line 132 in file "mcc_generated_files/eusart1.c"
  5996 ;; Parameters:    Size  Location     Type
  5997 ;;  txData          1    wreg     unsigned char 
  5998 ;; Auto vars:     Size  Location     Type
  5999 ;;  txData          1    2[COMRAM] unsigned char 
  6000 ;; Return value:  Size  Location     Type
  6001 ;;                  1    wreg      void 
  6002 ;; Registers used:
  6003 ;;		wreg
  6004 ;; Tracked objects:
  6005 ;;		On entry : 0/0
  6006 ;;		On exit  : 0/0
  6007 ;;		Unchanged: 0/0
  6008 ;; Data sizes:     COMRAM   BANK0   BANK1   BANK2   BANK3   BANK4   BANK5   BANK6   BANK7   BANK8   BANK9  BANK10  BANK1
      +1  BANK12  BANK13  BANK14
  6009 ;;      Params:         0       0       0       0       0       0       0       0       0       0       0       0       
      +0       0       0       0
  6010 ;;      Locals:         1       0       0       0       0       0       0       0       0       0       0       0       
      +0       0       0       0
  6011 ;;      Temps:          0       0       0       0       0       0       0       0       0       0       0       0       
      +0       0       0       0
  6012 ;;      Totals:         1       0       0       0       0       0       0       0       0       0       0       0       
      +0       0       0       0
  6013 ;;Total ram usage:        1 bytes
  6014 ;; Hardware stack levels used: 1
  6015 ;; Hardware stack levels required when called: 4
  6016 ;; This function calls:
  6017 ;;		Nothing
  6018 ;; This function is called by:
  6019 ;;		_putch
  6020 ;;		_LCD
  6021 ;; This function uses a non-reentrant model
  6022 ;;
  6023                           
  6024                           	psect	text37
  6025   003202                     __ptext37:
  6026                           	callstack 0
  6027   003202                     _EUSART1_Write:
  6028                           	callstack 21
  6029                           
  6030                           ;incstack = 0
  6031                           ;EUSART1_Write@txData stored from wreg
  6032   003202  6E03               	movwf	EUSART1_Write@txData^0,c
  6033   003204                     l401:
  6034                           
  6035                           ;mcc_generated_files/eusart1.c: 134:     while(0 == PIR1bits.TX1IF)
  6036   003204  A89E               	btfss	158,4,c	;volatile
  6037   003206  EF07  F019         	goto	u1581
  6038   00320A  EF09  F019         	goto	u1580
  6039   00320E                     u1581:
  6040   00320E  EF02  F019         	goto	l401
  6041   003212                     u1580:
  6042   003212                     
  6043                           ;mcc_generated_files/eusart1.c: 138:     TXREG1 = txData;
  6044   003212  C003  FFAD         	movff	EUSART1_Write@txData,4013	;volatile
  6045   003216  0012               	return		;funcret
  6046   003218                     __end_of_EUSART1_Write:
  6047                           	callstack 0
  6048                           
  6049 ;; *************** function _CAN_transmit *****************
  6050 ;; Defined at:
  6051 ;;		line 165 in file "mcc_generated_files/ecan.c"
  6052 ;; Parameters:    Size  Location     Type
  6053 ;;  tempCanMsg      2   20[COMRAM] PTR struct .
  6054 ;;		 -> txMessage(14), 
  6055 ;; Auto vars:     Size  Location     Type
  6056 ;;  tempSIDL        1   25[COMRAM] unsigned char 
  6057 ;;  tempSIDH        1   24[COMRAM] unsigned char 
  6058 ;;  tempEIDL        1   23[COMRAM] unsigned char 
  6059 ;;  tempEIDH        1   22[COMRAM] unsigned char 
  6060 ;;  returnValue     1    0        unsigned char 
  6061 ;; Return value:  Size  Location     Type
  6062 ;;                  1    wreg      unsigned char 
  6063 ;; Registers used:
  6064 ;;		wreg, fsr2l, fsr2h, status,2, status,0, cstack
  6065 ;; Tracked objects:
  6066 ;;		On entry : 0/0
  6067 ;;		On exit  : 0/0
  6068 ;;		Unchanged: 0/0
  6069 ;; Data sizes:     COMRAM   BANK0   BANK1   BANK2   BANK3   BANK4   BANK5   BANK6   BANK7   BANK8   BANK9  BANK10  BANK1
      +1  BANK12  BANK13  BANK14
  6070 ;;      Params:         2       0       0       0       0       0       0       0       0       0       0       0       
      +0       0       0       0
  6071 ;;      Locals:         4       0       0       0       0       0       0       0       0       0       0       0       
      +0       0       0       0
  6072 ;;      Temps:          0       0       0       0       0       0       0       0       0       0       0       0       
      +0       0       0       0
  6073 ;;      Totals:         6       0       0       0       0       0       0       0       0       0       0       0       
      +0       0       0       0
  6074 ;;Total ram usage:        6 bytes
  6075 ;; Hardware stack levels used: 1
  6076 ;; Hardware stack levels required when called: 5
  6077 ;; This function calls:
  6078 ;;		_convertCANid2Reg
  6079 ;; This function is called by:
  6080 ;;		_main
  6081 ;; This function uses a non-reentrant model
  6082 ;;
  6083                           
  6084                           	psect	text38
  6085   001C9A                     __ptext38:
  6086                           	callstack 0
  6087   001C9A                     _CAN_transmit:
  6088                           	callstack 25
  6089   001C9A                     
  6090                           ;mcc_generated_files/ecan.c: 166:     uint8_t tempEIDH = 0;
  6091   001C9A  0E00               	movlw	0
  6092   001C9C  6E17               	movwf	CAN_transmit@tempEIDH^0,c
  6093                           
  6094                           ;mcc_generated_files/ecan.c: 167:     uint8_t tempEIDL = 0;
  6095   001C9E  0E00               	movlw	0
  6096   001CA0  6E18               	movwf	CAN_transmit@tempEIDL^0,c
  6097                           
  6098                           ;mcc_generated_files/ecan.c: 168:     uint8_t tempSIDH = 0;
  6099   001CA2  0E00               	movlw	0
  6100   001CA4  6E19               	movwf	CAN_transmit@tempSIDH^0,c
  6101                           
  6102                           ;mcc_generated_files/ecan.c: 169:     uint8_t tempSIDL = 0;
  6103   001CA6  0E00               	movlw	0
  6104   001CA8  6E1A               	movwf	CAN_transmit@tempSIDL^0,c
  6105   001CAA                     
  6106                           ;mcc_generated_files/ecan.c: 173:     if (TXB0CONbits.TXREQ != 1)
  6107   001CAA  010F               	movlb	15	; () banked
  6108   001CAC  B720               	btfsc	32,3,b	;volatile
  6109   001CAE  EF5B  F00E         	goto	u2821
  6110   001CB2  EF5D  F00E         	goto	u2820
  6111   001CB6                     u2821:
  6112   001CB6  EFD7  F00E         	goto	l255
  6113   001CBA                     u2820:
  6114   001CBA                     
  6115                           ; BSR set to: 15
  6116                           ;mcc_generated_files/ecan.c: 174:     {;mcc_generated_files/ecan.c: 175:         convert
      +                          CANid2Reg(tempCanMsg->frame.id, tempCanMsg->frame.idType, &tempEIDH, &tempEIDL, &tempSID
      +                          H, &tempSIDL);
  6117   001CBA  EE20 F001          	lfsr	2,1
  6118   001CBE  5015               	movf	CAN_transmit@tempCanMsg^0,w,c
  6119   001CC0  26D9               	addwf	fsr2l,f,c
  6120   001CC2  5016               	movf	(CAN_transmit@tempCanMsg+1)^0,w,c
  6121   001CC4  22DA               	addwfc	fsr2h,f,c
  6122   001CC6  CFDE F003          	movff	postinc2,convertCANid2Reg@tempPassedInID
  6123   001CCA  CFDE F004          	movff	postinc2,convertCANid2Reg@tempPassedInID+1
  6124   001CCE  CFDE F005          	movff	postinc2,convertCANid2Reg@tempPassedInID+2
  6125   001CD2  CFDE F006          	movff	postinc2,convertCANid2Reg@tempPassedInID+3
  6126   001CD6  C015  FFD9         	movff	CAN_transmit@tempCanMsg,fsr2l
  6127   001CDA  C016  FFDA         	movff	CAN_transmit@tempCanMsg+1,fsr2h
  6128   001CDE  50DF               	movf	indf2,w,c
  6129   001CE0  6E07               	movwf	convertCANid2Reg@canIdType^0,c
  6130   001CE2  0E17               	movlw	low CAN_transmit@tempEIDH
  6131   001CE4  6E08               	movwf	convertCANid2Reg@passedInEIDH^0,c
  6132   001CE6  0E00               	movlw	high CAN_transmit@tempEIDH
  6133   001CE8  6E09               	movwf	(convertCANid2Reg@passedInEIDH+1)^0,c
  6134   001CEA  0E18               	movlw	low CAN_transmit@tempEIDL
  6135   001CEC  6E0A               	movwf	convertCANid2Reg@passedInEIDL^0,c
  6136   001CEE  0E00               	movlw	high CAN_transmit@tempEIDL
  6137   001CF0  6E0B               	movwf	(convertCANid2Reg@passedInEIDL+1)^0,c
  6138   001CF2  0E19               	movlw	low CAN_transmit@tempSIDH
  6139   001CF4  6E0C               	movwf	convertCANid2Reg@passedInSIDH^0,c
  6140   001CF6  0E00               	movlw	high CAN_transmit@tempSIDH
  6141   001CF8  6E0D               	movwf	(convertCANid2Reg@passedInSIDH+1)^0,c
  6142   001CFA  0E1A               	movlw	low CAN_transmit@tempSIDL
  6143   001CFC  6E0E               	movwf	convertCANid2Reg@passedInSIDL^0,c
  6144   001CFE  0E00               	movlw	high CAN_transmit@tempSIDL
  6145   001D00  6E0F               	movwf	(convertCANid2Reg@passedInSIDL+1)^0,c
  6146   001D02  ECD9  F011         	call	_convertCANid2Reg	;wreg free
  6147   001D06                     
  6148                           ;mcc_generated_files/ecan.c: 177:         TXB0EIDH = tempEIDH;
  6149   001D06  C017  FF23         	movff	CAN_transmit@tempEIDH,3875	;volatile
  6150   001D0A                     
  6151                           ;mcc_generated_files/ecan.c: 178:         TXB0EIDL = tempEIDL;
  6152   001D0A  C018  FF24         	movff	CAN_transmit@tempEIDL,3876	;volatile
  6153   001D0E                     
  6154                           ;mcc_generated_files/ecan.c: 179:         TXB0SIDH = tempSIDH;
  6155   001D0E  C019  FF21         	movff	CAN_transmit@tempSIDH,3873	;volatile
  6156   001D12                     
  6157                           ;mcc_generated_files/ecan.c: 180:         TXB0SIDL = tempSIDL;
  6158   001D12  C01A  FF22         	movff	CAN_transmit@tempSIDL,3874	;volatile
  6159   001D16                     
  6160                           ;mcc_generated_files/ecan.c: 181:         TXB0DLC = tempCanMsg->frame.dlc;
  6161   001D16  EE20 F005          	lfsr	2,5
  6162   001D1A  5015               	movf	CAN_transmit@tempCanMsg^0,w,c
  6163   001D1C  26D9               	addwf	fsr2l,f,c
  6164   001D1E  5016               	movf	(CAN_transmit@tempCanMsg+1)^0,w,c
  6165   001D20  22DA               	addwfc	fsr2h,f,c
  6166   001D22  50DF               	movf	indf2,w,c
  6167   001D24  010F               	movlb	15	; () banked
  6168   001D26  6F25               	movwf	37,b	;volatile
  6169   001D28                     
  6170                           ; BSR set to: 15
  6171                           ;mcc_generated_files/ecan.c: 182:         TXB0D0 = tempCanMsg->frame.data0;
  6172   001D28  EE20 F006          	lfsr	2,6
  6173   001D2C  5015               	movf	CAN_transmit@tempCanMsg^0,w,c
  6174   001D2E  26D9               	addwf	fsr2l,f,c
  6175   001D30  5016               	movf	(CAN_transmit@tempCanMsg+1)^0,w,c
  6176   001D32  22DA               	addwfc	fsr2h,f,c
  6177   001D34  50DF               	movf	indf2,w,c
  6178   001D36  6F26               	movwf	38,b	;volatile
  6179   001D38                     
  6180                           ; BSR set to: 15
  6181                           ;mcc_generated_files/ecan.c: 183:         TXB0D1 = tempCanMsg->frame.data1;
  6182   001D38  EE20 F007          	lfsr	2,7
  6183   001D3C  5015               	movf	CAN_transmit@tempCanMsg^0,w,c
  6184   001D3E  26D9               	addwf	fsr2l,f,c
  6185   001D40  5016               	movf	(CAN_transmit@tempCanMsg+1)^0,w,c
  6186   001D42  22DA               	addwfc	fsr2h,f,c
  6187   001D44  50DF               	movf	indf2,w,c
  6188   001D46  6F27               	movwf	39,b	;volatile
  6189   001D48                     
  6190                           ; BSR set to: 15
  6191                           ;mcc_generated_files/ecan.c: 184:         TXB0D2 = tempCanMsg->frame.data2;
  6192   001D48  EE20 F008          	lfsr	2,8
  6193   001D4C  5015               	movf	CAN_transmit@tempCanMsg^0,w,c
  6194   001D4E  26D9               	addwf	fsr2l,f,c
  6195   001D50  5016               	movf	(CAN_transmit@tempCanMsg+1)^0,w,c
  6196   001D52  22DA               	addwfc	fsr2h,f,c
  6197   001D54  50DF               	movf	indf2,w,c
  6198   001D56  6F28               	movwf	40,b	;volatile
  6199   001D58                     
  6200                           ; BSR set to: 15
  6201                           ;mcc_generated_files/ecan.c: 185:         TXB0D3 = tempCanMsg->frame.data3;
  6202   001D58  EE20 F009          	lfsr	2,9
  6203   001D5C  5015               	movf	CAN_transmit@tempCanMsg^0,w,c
  6204   001D5E  26D9               	addwf	fsr2l,f,c
  6205   001D60  5016               	movf	(CAN_transmit@tempCanMsg+1)^0,w,c
  6206   001D62  22DA               	addwfc	fsr2h,f,c
  6207   001D64  50DF               	movf	indf2,w,c
  6208   001D66  6F29               	movwf	41,b	;volatile
  6209   001D68                     
  6210                           ; BSR set to: 15
  6211                           ;mcc_generated_files/ecan.c: 186:         TXB0D4 = tempCanMsg->frame.data4;
  6212   001D68  EE20 F00A          	lfsr	2,10
  6213   001D6C  5015               	movf	CAN_transmit@tempCanMsg^0,w,c
  6214   001D6E  26D9               	addwf	fsr2l,f,c
  6215   001D70  5016               	movf	(CAN_transmit@tempCanMsg+1)^0,w,c
  6216   001D72  22DA               	addwfc	fsr2h,f,c
  6217   001D74  50DF               	movf	indf2,w,c
  6218   001D76  6F2A               	movwf	42,b	;volatile
  6219   001D78                     
  6220                           ; BSR set to: 15
  6221                           ;mcc_generated_files/ecan.c: 187:         TXB0D5 = tempCanMsg->frame.data5;
  6222   001D78  EE20 F00B          	lfsr	2,11
  6223   001D7C  5015               	movf	CAN_transmit@tempCanMsg^0,w,c
  6224   001D7E  26D9               	addwf	fsr2l,f,c
  6225   001D80  5016               	movf	(CAN_transmit@tempCanMsg+1)^0,w,c
  6226   001D82  22DA               	addwfc	fsr2h,f,c
  6227   001D84  50DF               	movf	indf2,w,c
  6228   001D86  6F2B               	movwf	43,b	;volatile
  6229   001D88                     
  6230                           ; BSR set to: 15
  6231                           ;mcc_generated_files/ecan.c: 188:         TXB0D6 = tempCanMsg->frame.data6;
  6232   001D88  EE20 F00C          	lfsr	2,12
  6233   001D8C  5015               	movf	CAN_transmit@tempCanMsg^0,w,c
  6234   001D8E  26D9               	addwf	fsr2l,f,c
  6235   001D90  5016               	movf	(CAN_transmit@tempCanMsg+1)^0,w,c
  6236   001D92  22DA               	addwfc	fsr2h,f,c
  6237   001D94  50DF               	movf	indf2,w,c
  6238   001D96  6F2C               	movwf	44,b	;volatile
  6239   001D98                     
  6240                           ; BSR set to: 15
  6241                           ;mcc_generated_files/ecan.c: 189:         TXB0D7 = tempCanMsg->frame.data7;
  6242   001D98  EE20 F00D          	lfsr	2,13
  6243   001D9C  5015               	movf	CAN_transmit@tempCanMsg^0,w,c
  6244   001D9E  26D9               	addwf	fsr2l,f,c
  6245   001DA0  5016               	movf	(CAN_transmit@tempCanMsg+1)^0,w,c
  6246   001DA2  22DA               	addwfc	fsr2h,f,c
  6247   001DA4  50DF               	movf	indf2,w,c
  6248   001DA6  6F2D               	movwf	45,b	;volatile
  6249   001DA8                     
  6250                           ; BSR set to: 15
  6251                           ;mcc_generated_files/ecan.c: 191:         TXB0CONbits.TXREQ = 1;
  6252   001DA8  8720               	bsf	32,3,b	;volatile
  6253   001DAA                     l3584:
  6254                           
  6255                           ; BSR set to: 15
  6256                           ;mcc_generated_files/ecan.c: 194:     }
  6257   001DAA  EFD9  F00F         	goto	l260
  6258   001DAE                     l255:
  6259                           
  6260                           ; BSR set to: 15
  6261   001DAE  B710               	btfsc	16,3,b	;volatile
  6262   001DB0  EFDC  F00E         	goto	u2831
  6263   001DB4  EFDE  F00E         	goto	u2830
  6264   001DB8                     u2831:
  6265   001DB8  EF58  F00F         	goto	l257
  6266   001DBC                     u2830:
  6267   001DBC                     
  6268                           ; BSR set to: 15
  6269                           ;mcc_generated_files/ecan.c: 196:     {;mcc_generated_files/ecan.c: 198:         convert
      +                          CANid2Reg(tempCanMsg->frame.id, tempCanMsg->frame.idType, &tempEIDH, &tempEIDL, &tempSID
      +                          H, &tempSIDL);
  6270   001DBC  EE20 F001          	lfsr	2,1
  6271   001DC0  5015               	movf	CAN_transmit@tempCanMsg^0,w,c
  6272   001DC2  26D9               	addwf	fsr2l,f,c
  6273   001DC4  5016               	movf	(CAN_transmit@tempCanMsg+1)^0,w,c
  6274   001DC6  22DA               	addwfc	fsr2h,f,c
  6275   001DC8  CFDE F003          	movff	postinc2,convertCANid2Reg@tempPassedInID
  6276   001DCC  CFDE F004          	movff	postinc2,convertCANid2Reg@tempPassedInID+1
  6277   001DD0  CFDE F005          	movff	postinc2,convertCANid2Reg@tempPassedInID+2
  6278   001DD4  CFDE F006          	movff	postinc2,convertCANid2Reg@tempPassedInID+3
  6279   001DD8  C015  FFD9         	movff	CAN_transmit@tempCanMsg,fsr2l
  6280   001DDC  C016  FFDA         	movff	CAN_transmit@tempCanMsg+1,fsr2h
  6281   001DE0  50DF               	movf	indf2,w,c
  6282   001DE2  6E07               	movwf	convertCANid2Reg@canIdType^0,c
  6283   001DE4  0E17               	movlw	low CAN_transmit@tempEIDH
  6284   001DE6  6E08               	movwf	convertCANid2Reg@passedInEIDH^0,c
  6285   001DE8  0E00               	movlw	high CAN_transmit@tempEIDH
  6286   001DEA  6E09               	movwf	(convertCANid2Reg@passedInEIDH+1)^0,c
  6287   001DEC  0E18               	movlw	low CAN_transmit@tempEIDL
  6288   001DEE  6E0A               	movwf	convertCANid2Reg@passedInEIDL^0,c
  6289   001DF0  0E00               	movlw	high CAN_transmit@tempEIDL
  6290   001DF2  6E0B               	movwf	(convertCANid2Reg@passedInEIDL+1)^0,c
  6291   001DF4  0E19               	movlw	low CAN_transmit@tempSIDH
  6292   001DF6  6E0C               	movwf	convertCANid2Reg@passedInSIDH^0,c
  6293   001DF8  0E00               	movlw	high CAN_transmit@tempSIDH
  6294   001DFA  6E0D               	movwf	(convertCANid2Reg@passedInSIDH+1)^0,c
  6295   001DFC  0E1A               	movlw	low CAN_transmit@tempSIDL
  6296   001DFE  6E0E               	movwf	convertCANid2Reg@passedInSIDL^0,c
  6297   001E00  0E00               	movlw	high CAN_transmit@tempSIDL
  6298   001E02  6E0F               	movwf	(convertCANid2Reg@passedInSIDL+1)^0,c
  6299   001E04  ECD9  F011         	call	_convertCANid2Reg	;wreg free
  6300   001E08                     
  6301                           ;mcc_generated_files/ecan.c: 200:         TXB1EIDH = tempEIDH;
  6302   001E08  C017  FF13         	movff	CAN_transmit@tempEIDH,3859	;volatile
  6303   001E0C                     
  6304                           ;mcc_generated_files/ecan.c: 201:         TXB1EIDL = tempEIDL;
  6305   001E0C  C018  FF14         	movff	CAN_transmit@tempEIDL,3860	;volatile
  6306   001E10                     
  6307                           ;mcc_generated_files/ecan.c: 202:         TXB1SIDH = tempSIDH;
  6308   001E10  C019  FF11         	movff	CAN_transmit@tempSIDH,3857	;volatile
  6309   001E14                     
  6310                           ;mcc_generated_files/ecan.c: 203:         TXB1SIDL = tempSIDL;
  6311   001E14  C01A  FF12         	movff	CAN_transmit@tempSIDL,3858	;volatile
  6312   001E18                     
  6313                           ;mcc_generated_files/ecan.c: 204:         TXB1DLC = tempCanMsg->frame.dlc;
  6314   001E18  EE20 F005          	lfsr	2,5
  6315   001E1C  5015               	movf	CAN_transmit@tempCanMsg^0,w,c
  6316   001E1E  26D9               	addwf	fsr2l,f,c
  6317   001E20  5016               	movf	(CAN_transmit@tempCanMsg+1)^0,w,c
  6318   001E22  22DA               	addwfc	fsr2h,f,c
  6319   001E24  50DF               	movf	indf2,w,c
  6320   001E26  010F               	movlb	15	; () banked
  6321   001E28  6F15               	movwf	21,b	;volatile
  6322   001E2A                     
  6323                           ; BSR set to: 15
  6324                           ;mcc_generated_files/ecan.c: 205:         TXB1D0 = tempCanMsg->frame.data0;
  6325   001E2A  EE20 F006          	lfsr	2,6
  6326   001E2E  5015               	movf	CAN_transmit@tempCanMsg^0,w,c
  6327   001E30  26D9               	addwf	fsr2l,f,c
  6328   001E32  5016               	movf	(CAN_transmit@tempCanMsg+1)^0,w,c
  6329   001E34  22DA               	addwfc	fsr2h,f,c
  6330   001E36  50DF               	movf	indf2,w,c
  6331   001E38  6F16               	movwf	22,b	;volatile
  6332   001E3A                     
  6333                           ; BSR set to: 15
  6334                           ;mcc_generated_files/ecan.c: 206:         TXB1D1 = tempCanMsg->frame.data1;
  6335   001E3A  EE20 F007          	lfsr	2,7
  6336   001E3E  5015               	movf	CAN_transmit@tempCanMsg^0,w,c
  6337   001E40  26D9               	addwf	fsr2l,f,c
  6338   001E42  5016               	movf	(CAN_transmit@tempCanMsg+1)^0,w,c
  6339   001E44  22DA               	addwfc	fsr2h,f,c
  6340   001E46  50DF               	movf	indf2,w,c
  6341   001E48  6F17               	movwf	23,b	;volatile
  6342   001E4A                     
  6343                           ; BSR set to: 15
  6344                           ;mcc_generated_files/ecan.c: 207:         TXB1D2 = tempCanMsg->frame.data2;
  6345   001E4A  EE20 F008          	lfsr	2,8
  6346   001E4E  5015               	movf	CAN_transmit@tempCanMsg^0,w,c
  6347   001E50  26D9               	addwf	fsr2l,f,c
  6348   001E52  5016               	movf	(CAN_transmit@tempCanMsg+1)^0,w,c
  6349   001E54  22DA               	addwfc	fsr2h,f,c
  6350   001E56  50DF               	movf	indf2,w,c
  6351   001E58  6F18               	movwf	24,b	;volatile
  6352   001E5A                     
  6353                           ; BSR set to: 15
  6354                           ;mcc_generated_files/ecan.c: 208:         TXB1D3 = tempCanMsg->frame.data3;
  6355   001E5A  EE20 F009          	lfsr	2,9
  6356   001E5E  5015               	movf	CAN_transmit@tempCanMsg^0,w,c
  6357   001E60  26D9               	addwf	fsr2l,f,c
  6358   001E62  5016               	movf	(CAN_transmit@tempCanMsg+1)^0,w,c
  6359   001E64  22DA               	addwfc	fsr2h,f,c
  6360   001E66  50DF               	movf	indf2,w,c
  6361   001E68  6F19               	movwf	25,b	;volatile
  6362   001E6A                     
  6363                           ; BSR set to: 15
  6364                           ;mcc_generated_files/ecan.c: 209:         TXB1D4 = tempCanMsg->frame.data4;
  6365   001E6A  EE20 F00A          	lfsr	2,10
  6366   001E6E  5015               	movf	CAN_transmit@tempCanMsg^0,w,c
  6367   001E70  26D9               	addwf	fsr2l,f,c
  6368   001E72  5016               	movf	(CAN_transmit@tempCanMsg+1)^0,w,c
  6369   001E74  22DA               	addwfc	fsr2h,f,c
  6370   001E76  50DF               	movf	indf2,w,c
  6371   001E78  6F1A               	movwf	26,b	;volatile
  6372   001E7A                     
  6373                           ; BSR set to: 15
  6374                           ;mcc_generated_files/ecan.c: 210:         TXB1D5 = tempCanMsg->frame.data5;
  6375   001E7A  EE20 F00B          	lfsr	2,11
  6376   001E7E  5015               	movf	CAN_transmit@tempCanMsg^0,w,c
  6377   001E80  26D9               	addwf	fsr2l,f,c
  6378   001E82  5016               	movf	(CAN_transmit@tempCanMsg+1)^0,w,c
  6379   001E84  22DA               	addwfc	fsr2h,f,c
  6380   001E86  50DF               	movf	indf2,w,c
  6381   001E88  6F1B               	movwf	27,b	;volatile
  6382   001E8A                     
  6383                           ; BSR set to: 15
  6384                           ;mcc_generated_files/ecan.c: 211:         TXB1D6 = tempCanMsg->frame.data6;
  6385   001E8A  EE20 F00C          	lfsr	2,12
  6386   001E8E  5015               	movf	CAN_transmit@tempCanMsg^0,w,c
  6387   001E90  26D9               	addwf	fsr2l,f,c
  6388   001E92  5016               	movf	(CAN_transmit@tempCanMsg+1)^0,w,c
  6389   001E94  22DA               	addwfc	fsr2h,f,c
  6390   001E96  50DF               	movf	indf2,w,c
  6391   001E98  6F1C               	movwf	28,b	;volatile
  6392   001E9A                     
  6393                           ; BSR set to: 15
  6394                           ;mcc_generated_files/ecan.c: 212:         TXB1D7 = tempCanMsg->frame.data7;
  6395   001E9A  EE20 F00D          	lfsr	2,13
  6396   001E9E  5015               	movf	CAN_transmit@tempCanMsg^0,w,c
  6397   001EA0  26D9               	addwf	fsr2l,f,c
  6398   001EA2  5016               	movf	(CAN_transmit@tempCanMsg+1)^0,w,c
  6399   001EA4  22DA               	addwfc	fsr2h,f,c
  6400   001EA6  50DF               	movf	indf2,w,c
  6401   001EA8  6F1D               	movwf	29,b	;volatile
  6402   001EAA                     
  6403                           ; BSR set to: 15
  6404                           ;mcc_generated_files/ecan.c: 214:         TXB1CONbits.TXREQ = 1;
  6405   001EAA  8710               	bsf	16,3,b	;volatile
  6406   001EAC  EFD5  F00E         	goto	l3584
  6407   001EB0                     l257:
  6408                           
  6409                           ; BSR set to: 15
  6410   001EB0  B700               	btfsc	0,3,b	;volatile
  6411   001EB2  EF5D  F00F         	goto	u2841
  6412   001EB6  EF5F  F00F         	goto	u2840
  6413   001EBA                     u2841:
  6414   001EBA  EFD9  F00F         	goto	l256
  6415   001EBE                     u2840:
  6416   001EBE                     
  6417                           ; BSR set to: 15
  6418                           ;mcc_generated_files/ecan.c: 218:     {;mcc_generated_files/ecan.c: 220:         convert
      +                          CANid2Reg(tempCanMsg->frame.id, tempCanMsg->frame.idType, &tempEIDH, &tempEIDL, &tempSID
      +                          H, &tempSIDL);
  6419   001EBE  EE20 F001          	lfsr	2,1
  6420   001EC2  5015               	movf	CAN_transmit@tempCanMsg^0,w,c
  6421   001EC4  26D9               	addwf	fsr2l,f,c
  6422   001EC6  5016               	movf	(CAN_transmit@tempCanMsg+1)^0,w,c
  6423   001EC8  22DA               	addwfc	fsr2h,f,c
  6424   001ECA  CFDE F003          	movff	postinc2,convertCANid2Reg@tempPassedInID
  6425   001ECE  CFDE F004          	movff	postinc2,convertCANid2Reg@tempPassedInID+1
  6426   001ED2  CFDE F005          	movff	postinc2,convertCANid2Reg@tempPassedInID+2
  6427   001ED6  CFDE F006          	movff	postinc2,convertCANid2Reg@tempPassedInID+3
  6428   001EDA  C015  FFD9         	movff	CAN_transmit@tempCanMsg,fsr2l
  6429   001EDE  C016  FFDA         	movff	CAN_transmit@tempCanMsg+1,fsr2h
  6430   001EE2  50DF               	movf	indf2,w,c
  6431   001EE4  6E07               	movwf	convertCANid2Reg@canIdType^0,c
  6432   001EE6  0E17               	movlw	low CAN_transmit@tempEIDH
  6433   001EE8  6E08               	movwf	convertCANid2Reg@passedInEIDH^0,c
  6434   001EEA  0E00               	movlw	high CAN_transmit@tempEIDH
  6435   001EEC  6E09               	movwf	(convertCANid2Reg@passedInEIDH+1)^0,c
  6436   001EEE  0E18               	movlw	low CAN_transmit@tempEIDL
  6437   001EF0  6E0A               	movwf	convertCANid2Reg@passedInEIDL^0,c
  6438   001EF2  0E00               	movlw	high CAN_transmit@tempEIDL
  6439   001EF4  6E0B               	movwf	(convertCANid2Reg@passedInEIDL+1)^0,c
  6440   001EF6  0E19               	movlw	low CAN_transmit@tempSIDH
  6441   001EF8  6E0C               	movwf	convertCANid2Reg@passedInSIDH^0,c
  6442   001EFA  0E00               	movlw	high CAN_transmit@tempSIDH
  6443   001EFC  6E0D               	movwf	(convertCANid2Reg@passedInSIDH+1)^0,c
  6444   001EFE  0E1A               	movlw	low CAN_transmit@tempSIDL
  6445   001F00  6E0E               	movwf	convertCANid2Reg@passedInSIDL^0,c
  6446   001F02  0E00               	movlw	high CAN_transmit@tempSIDL
  6447   001F04  6E0F               	movwf	(convertCANid2Reg@passedInSIDL+1)^0,c
  6448   001F06  ECD9  F011         	call	_convertCANid2Reg	;wreg free
  6449   001F0A                     
  6450                           ;mcc_generated_files/ecan.c: 222:         TXB2EIDH = tempEIDH;
  6451   001F0A  C017  FF03         	movff	CAN_transmit@tempEIDH,3843	;volatile
  6452   001F0E                     
  6453                           ;mcc_generated_files/ecan.c: 223:         TXB2EIDL = tempEIDL;
  6454   001F0E  C018  FF04         	movff	CAN_transmit@tempEIDL,3844	;volatile
  6455   001F12                     
  6456                           ;mcc_generated_files/ecan.c: 224:         TXB2SIDH = tempSIDH;
  6457   001F12  C019  FF01         	movff	CAN_transmit@tempSIDH,3841	;volatile
  6458   001F16                     
  6459                           ;mcc_generated_files/ecan.c: 225:         TXB2SIDL = tempSIDL;
  6460   001F16  C01A  FF02         	movff	CAN_transmit@tempSIDL,3842	;volatile
  6461   001F1A                     
  6462                           ;mcc_generated_files/ecan.c: 226:         TXB2DLC = tempCanMsg->frame.dlc;
  6463   001F1A  EE20 F005          	lfsr	2,5
  6464   001F1E  5015               	movf	CAN_transmit@tempCanMsg^0,w,c
  6465   001F20  26D9               	addwf	fsr2l,f,c
  6466   001F22  5016               	movf	(CAN_transmit@tempCanMsg+1)^0,w,c
  6467   001F24  22DA               	addwfc	fsr2h,f,c
  6468   001F26  50DF               	movf	indf2,w,c
  6469   001F28  010F               	movlb	15	; () banked
  6470   001F2A  6F05               	movwf	5,b	;volatile
  6471   001F2C                     
  6472                           ; BSR set to: 15
  6473                           ;mcc_generated_files/ecan.c: 227:         TXB2D0 = tempCanMsg->frame.data0;
  6474   001F2C  EE20 F006          	lfsr	2,6
  6475   001F30  5015               	movf	CAN_transmit@tempCanMsg^0,w,c
  6476   001F32  26D9               	addwf	fsr2l,f,c
  6477   001F34  5016               	movf	(CAN_transmit@tempCanMsg+1)^0,w,c
  6478   001F36  22DA               	addwfc	fsr2h,f,c
  6479   001F38  50DF               	movf	indf2,w,c
  6480   001F3A  6F06               	movwf	6,b	;volatile
  6481   001F3C                     
  6482                           ; BSR set to: 15
  6483                           ;mcc_generated_files/ecan.c: 228:         TXB2D1 = tempCanMsg->frame.data1;
  6484   001F3C  EE20 F007          	lfsr	2,7
  6485   001F40  5015               	movf	CAN_transmit@tempCanMsg^0,w,c
  6486   001F42  26D9               	addwf	fsr2l,f,c
  6487   001F44  5016               	movf	(CAN_transmit@tempCanMsg+1)^0,w,c
  6488   001F46  22DA               	addwfc	fsr2h,f,c
  6489   001F48  50DF               	movf	indf2,w,c
  6490   001F4A  6F07               	movwf	7,b	;volatile
  6491   001F4C                     
  6492                           ; BSR set to: 15
  6493                           ;mcc_generated_files/ecan.c: 229:         TXB2D2 = tempCanMsg->frame.data2;
  6494   001F4C  EE20 F008          	lfsr	2,8
  6495   001F50  5015               	movf	CAN_transmit@tempCanMsg^0,w,c
  6496   001F52  26D9               	addwf	fsr2l,f,c
  6497   001F54  5016               	movf	(CAN_transmit@tempCanMsg+1)^0,w,c
  6498   001F56  22DA               	addwfc	fsr2h,f,c
  6499   001F58  50DF               	movf	indf2,w,c
  6500   001F5A  6F08               	movwf	8,b	;volatile
  6501   001F5C                     
  6502                           ; BSR set to: 15
  6503                           ;mcc_generated_files/ecan.c: 230:         TXB2D3 = tempCanMsg->frame.data3;
  6504   001F5C  EE20 F009          	lfsr	2,9
  6505   001F60  5015               	movf	CAN_transmit@tempCanMsg^0,w,c
  6506   001F62  26D9               	addwf	fsr2l,f,c
  6507   001F64  5016               	movf	(CAN_transmit@tempCanMsg+1)^0,w,c
  6508   001F66  22DA               	addwfc	fsr2h,f,c
  6509   001F68  50DF               	movf	indf2,w,c
  6510   001F6A  6F09               	movwf	9,b	;volatile
  6511   001F6C                     
  6512                           ; BSR set to: 15
  6513                           ;mcc_generated_files/ecan.c: 231:         TXB2D4 = tempCanMsg->frame.data4;
  6514   001F6C  EE20 F00A          	lfsr	2,10
  6515   001F70  5015               	movf	CAN_transmit@tempCanMsg^0,w,c
  6516   001F72  26D9               	addwf	fsr2l,f,c
  6517   001F74  5016               	movf	(CAN_transmit@tempCanMsg+1)^0,w,c
  6518   001F76  22DA               	addwfc	fsr2h,f,c
  6519   001F78  50DF               	movf	indf2,w,c
  6520   001F7A  6F0A               	movwf	10,b	;volatile
  6521   001F7C                     
  6522                           ; BSR set to: 15
  6523                           ;mcc_generated_files/ecan.c: 232:         TXB2D5 = tempCanMsg->frame.data5;
  6524   001F7C  EE20 F00B          	lfsr	2,11
  6525   001F80  5015               	movf	CAN_transmit@tempCanMsg^0,w,c
  6526   001F82  26D9               	addwf	fsr2l,f,c
  6527   001F84  5016               	movf	(CAN_transmit@tempCanMsg+1)^0,w,c
  6528   001F86  22DA               	addwfc	fsr2h,f,c
  6529   001F88  50DF               	movf	indf2,w,c
  6530   001F8A  6F0B               	movwf	11,b	;volatile
  6531   001F8C                     
  6532                           ; BSR set to: 15
  6533                           ;mcc_generated_files/ecan.c: 233:         TXB2D6 = tempCanMsg->frame.data6;
  6534   001F8C  EE20 F00C          	lfsr	2,12
  6535   001F90  5015               	movf	CAN_transmit@tempCanMsg^0,w,c
  6536   001F92  26D9               	addwf	fsr2l,f,c
  6537   001F94  5016               	movf	(CAN_transmit@tempCanMsg+1)^0,w,c
  6538   001F96  22DA               	addwfc	fsr2h,f,c
  6539   001F98  50DF               	movf	indf2,w,c
  6540   001F9A  6F0C               	movwf	12,b	;volatile
  6541   001F9C                     
  6542                           ; BSR set to: 15
  6543                           ;mcc_generated_files/ecan.c: 234:         TXB2D7 = tempCanMsg->frame.data7;
  6544   001F9C  EE20 F00D          	lfsr	2,13
  6545   001FA0  5015               	movf	CAN_transmit@tempCanMsg^0,w,c
  6546   001FA2  26D9               	addwf	fsr2l,f,c
  6547   001FA4  5016               	movf	(CAN_transmit@tempCanMsg+1)^0,w,c
  6548   001FA6  22DA               	addwfc	fsr2h,f,c
  6549   001FA8  50DF               	movf	indf2,w,c
  6550   001FAA  6F0D               	movwf	13,b	;volatile
  6551   001FAC                     
  6552                           ; BSR set to: 15
  6553                           ;mcc_generated_files/ecan.c: 236:         TXB2CONbits.TXREQ = 1;
  6554   001FAC  8700               	bsf	0,3,b	;volatile
  6555   001FAE  EFD5  F00E         	goto	l3584
  6556   001FB2                     l256:
  6557   001FB2                     l260:
  6558                           
  6559                           ; BSR set to: 15
  6560   001FB2  0012               	return		;funcret
  6561   001FB4                     __end_of_CAN_transmit:
  6562                           	callstack 0
  6563                           
  6564 ;; *************** function _convertCANid2Reg *****************
  6565 ;; Defined at:
  6566 ;;		line 402 in file "mcc_generated_files/ecan.c"
  6567 ;; Parameters:    Size  Location     Type
  6568 ;;  tempPassedIn    4    2[COMRAM] unsigned long 
  6569 ;;  canIdType       1    6[COMRAM] unsigned char 
  6570 ;;  passedInEIDH    2    7[COMRAM] PTR unsigned char 
  6571 ;;		 -> CAN_transmit@tempEIDH(1), 
  6572 ;;  passedInEIDL    2    9[COMRAM] PTR unsigned char 
  6573 ;;		 -> CAN_transmit@tempEIDL(1), 
  6574 ;;  passedInSIDH    2   11[COMRAM] PTR unsigned char 
  6575 ;;		 -> CAN_transmit@tempSIDH(1), 
  6576 ;;  passedInSIDL    2   13[COMRAM] PTR unsigned char 
  6577 ;;		 -> CAN_transmit@tempSIDL(1), 
  6578 ;; Auto vars:     Size  Location     Type
  6579 ;;  wipSIDL         1   19[COMRAM] unsigned char 
  6580 ;; Return value:  Size  Location     Type
  6581 ;;                  1    wreg      void 
  6582 ;; Registers used:
  6583 ;;		wreg, fsr2l, fsr2h, status,2, status,0
  6584 ;; Tracked objects:
  6585 ;;		On entry : 0/0
  6586 ;;		On exit  : 0/0
  6587 ;;		Unchanged: 0/0
  6588 ;; Data sizes:     COMRAM   BANK0   BANK1   BANK2   BANK3   BANK4   BANK5   BANK6   BANK7   BANK8   BANK9  BANK10  BANK1
      +1  BANK12  BANK13  BANK14
  6589 ;;      Params:        13       0       0       0       0       0       0       0       0       0       0       0       
      +0       0       0       0
  6590 ;;      Locals:         1       0       0       0       0       0       0       0       0       0       0       0       
      +0       0       0       0
  6591 ;;      Temps:          4       0       0       0       0       0       0       0       0       0       0       0       
      +0       0       0       0
  6592 ;;      Totals:        18       0       0       0       0       0       0       0       0       0       0       0       
      +0       0       0       0
  6593 ;;Total ram usage:       18 bytes
  6594 ;; Hardware stack levels used: 1
  6595 ;; Hardware stack levels required when called: 4
  6596 ;; This function calls:
  6597 ;;		Nothing
  6598 ;; This function is called by:
  6599 ;;		_CAN_transmit
  6600 ;; This function uses a non-reentrant model
  6601 ;;
  6602                           
  6603                           	psect	text39
  6604   0023B2                     __ptext39:
  6605                           	callstack 0
  6606   0023B2                     _convertCANid2Reg:
  6607                           	callstack 25
  6608   0023B2                     
  6609                           ;mcc_generated_files/ecan.c: 406:     if (canIdType == 2) {
  6610   0023B2  0E02               	movlw	2
  6611   0023B4  1807               	xorwf	convertCANid2Reg@canIdType^0,w,c
  6612   0023B6  A4D8               	btfss	status,2,c
  6613   0023B8  EFE0  F011         	goto	u2591
  6614   0023BC  EFE2  F011         	goto	u2590
  6615   0023C0                     u2591:
  6616   0023C0  EF65  F012         	goto	l3328
  6617   0023C4                     u2590:
  6618   0023C4                     
  6619                           ;mcc_generated_files/ecan.c: 409:         *passedInEIDL = 0xFF & tempPassedInID;
  6620   0023C4  C00A  FFD9         	movff	convertCANid2Reg@passedInEIDL,fsr2l
  6621   0023C8  C00B  FFDA         	movff	convertCANid2Reg@passedInEIDL+1,fsr2h
  6622   0023CC  C003  FFDF         	movff	convertCANid2Reg@tempPassedInID,indf2
  6623   0023D0                     
  6624                           ;mcc_generated_files/ecan.c: 410:         tempPassedInID = tempPassedInID >> 8;
  6625   0023D0  C003  F010         	movff	convertCANid2Reg@tempPassedInID,??_convertCANid2Reg
  6626   0023D4  C004  F011         	movff	convertCANid2Reg@tempPassedInID+1,??_convertCANid2Reg+1
  6627   0023D8  C005  F012         	movff	convertCANid2Reg@tempPassedInID+2,??_convertCANid2Reg+2
  6628   0023DC  C006  F013         	movff	convertCANid2Reg@tempPassedInID+3,??_convertCANid2Reg+3
  6629   0023E0  C011  F010         	movff	??_convertCANid2Reg+1,??_convertCANid2Reg
  6630   0023E4  C012  F011         	movff	??_convertCANid2Reg+2,??_convertCANid2Reg+1
  6631   0023E8  C013  F012         	movff	??_convertCANid2Reg+3,??_convertCANid2Reg+2
  6632   0023EC  6A13               	clrf	(??_convertCANid2Reg+3)^0,c
  6633   0023EE  C010  F003         	movff	??_convertCANid2Reg,convertCANid2Reg@tempPassedInID
  6634   0023F2  C011  F004         	movff	??_convertCANid2Reg+1,convertCANid2Reg@tempPassedInID+1
  6635   0023F6  C012  F005         	movff	??_convertCANid2Reg+2,convertCANid2Reg@tempPassedInID+2
  6636   0023FA  C013  F006         	movff	??_convertCANid2Reg+3,convertCANid2Reg@tempPassedInID+3
  6637   0023FE                     
  6638                           ;mcc_generated_files/ecan.c: 413:         *passedInEIDH = 0xFF & tempPassedInID;
  6639   0023FE  C008  FFD9         	movff	convertCANid2Reg@passedInEIDH,fsr2l
  6640   002402  C009  FFDA         	movff	convertCANid2Reg@passedInEIDH+1,fsr2h
  6641   002406  C003  FFDF         	movff	convertCANid2Reg@tempPassedInID,indf2
  6642                           
  6643                           ;mcc_generated_files/ecan.c: 414:         tempPassedInID = tempPassedInID >> 8;
  6644   00240A  C003  F010         	movff	convertCANid2Reg@tempPassedInID,??_convertCANid2Reg
  6645   00240E  C004  F011         	movff	convertCANid2Reg@tempPassedInID+1,??_convertCANid2Reg+1
  6646   002412  C005  F012         	movff	convertCANid2Reg@tempPassedInID+2,??_convertCANid2Reg+2
  6647   002416  C006  F013         	movff	convertCANid2Reg@tempPassedInID+3,??_convertCANid2Reg+3
  6648   00241A  C011  F010         	movff	??_convertCANid2Reg+1,??_convertCANid2Reg
  6649   00241E  C012  F011         	movff	??_convertCANid2Reg+2,??_convertCANid2Reg+1
  6650   002422  C013  F012         	movff	??_convertCANid2Reg+3,??_convertCANid2Reg+2
  6651   002426  6A13               	clrf	(??_convertCANid2Reg+3)^0,c
  6652   002428  C010  F003         	movff	??_convertCANid2Reg,convertCANid2Reg@tempPassedInID
  6653   00242C  C011  F004         	movff	??_convertCANid2Reg+1,convertCANid2Reg@tempPassedInID+1
  6654   002430  C012  F005         	movff	??_convertCANid2Reg+2,convertCANid2Reg@tempPassedInID+2
  6655   002434  C013  F006         	movff	??_convertCANid2Reg+3,convertCANid2Reg@tempPassedInID+3
  6656   002438                     
  6657                           ;mcc_generated_files/ecan.c: 418:         wipSIDL = 0x03 & tempPassedInID;
  6658   002438  5003               	movf	convertCANid2Reg@tempPassedInID^0,w,c
  6659   00243A  0B03               	andlw	3
  6660   00243C  6E14               	movwf	convertCANid2Reg@wipSIDL^0,c
  6661   00243E                     
  6662                           ;mcc_generated_files/ecan.c: 419:         tempPassedInID = tempPassedInID << 3;
  6663   00243E  C003  F010         	movff	convertCANid2Reg@tempPassedInID,??_convertCANid2Reg
  6664   002442  C004  F011         	movff	convertCANid2Reg@tempPassedInID+1,??_convertCANid2Reg+1
  6665   002446  C005  F012         	movff	convertCANid2Reg@tempPassedInID+2,??_convertCANid2Reg+2
  6666   00244A  C006  F013         	movff	convertCANid2Reg@tempPassedInID+3,??_convertCANid2Reg+3
  6667   00244E  0E03               	movlw	3
  6668   002450                     u2605:
  6669   002450  90D8               	bcf	status,0,c
  6670   002452  3610               	rlcf	??_convertCANid2Reg^0,f,c
  6671   002454  3611               	rlcf	(??_convertCANid2Reg+1)^0,f,c
  6672   002456  3612               	rlcf	(??_convertCANid2Reg+2)^0,f,c
  6673   002458  3613               	rlcf	(??_convertCANid2Reg+3)^0,f,c
  6674   00245A  2EE8               	decfsz	wreg,f,c
  6675   00245C  EF28  F012         	goto	u2605
  6676   002460  C010  F003         	movff	??_convertCANid2Reg,convertCANid2Reg@tempPassedInID
  6677   002464  C011  F004         	movff	??_convertCANid2Reg+1,convertCANid2Reg@tempPassedInID+1
  6678   002468  C012  F005         	movff	??_convertCANid2Reg+2,convertCANid2Reg@tempPassedInID+2
  6679   00246C  C013  F006         	movff	??_convertCANid2Reg+3,convertCANid2Reg@tempPassedInID+3
  6680   002470                     
  6681                           ;mcc_generated_files/ecan.c: 420:         wipSIDL = (0xE0 & tempPassedInID) + wipSIDL;
  6682   002470  5003               	movf	convertCANid2Reg@tempPassedInID^0,w,c
  6683   002472  0BE0               	andlw	224
  6684   002474  2414               	addwf	convertCANid2Reg@wipSIDL^0,w,c
  6685   002476  6E14               	movwf	convertCANid2Reg@wipSIDL^0,c
  6686   002478                     
  6687                           ;mcc_generated_files/ecan.c: 421:         wipSIDL = (uint8_t)(wipSIDL + 0x08);
  6688   002478  5014               	movf	convertCANid2Reg@wipSIDL^0,w,c
  6689   00247A  0F08               	addlw	8
  6690   00247C  6E14               	movwf	convertCANid2Reg@wipSIDL^0,c
  6691   00247E                     
  6692                           ;mcc_generated_files/ecan.c: 422:         *passedInSIDL = (uint8_t)(0xEB & wipSIDL);
  6693   00247E  5014               	movf	convertCANid2Reg@wipSIDL^0,w,c
  6694   002480  0BEB               	andlw	235
  6695   002482  C00E  FFD9         	movff	convertCANid2Reg@passedInSIDL,fsr2l
  6696   002486  C00F  FFDA         	movff	convertCANid2Reg@passedInSIDL+1,fsr2h
  6697   00248A  6EDF               	movwf	indf2,c
  6698   00248C                     l3324:
  6699                           
  6700                           ;mcc_generated_files/ecan.c: 425:         tempPassedInID = tempPassedInID >> 8;
  6701   00248C  C003  F010         	movff	convertCANid2Reg@tempPassedInID,??_convertCANid2Reg
  6702   002490  C004  F011         	movff	convertCANid2Reg@tempPassedInID+1,??_convertCANid2Reg+1
  6703   002494  C005  F012         	movff	convertCANid2Reg@tempPassedInID+2,??_convertCANid2Reg+2
  6704   002498  C006  F013         	movff	convertCANid2Reg@tempPassedInID+3,??_convertCANid2Reg+3
  6705   00249C  C011  F010         	movff	??_convertCANid2Reg+1,??_convertCANid2Reg
  6706   0024A0  C012  F011         	movff	??_convertCANid2Reg+2,??_convertCANid2Reg+1
  6707   0024A4  C013  F012         	movff	??_convertCANid2Reg+3,??_convertCANid2Reg+2
  6708   0024A8  6A13               	clrf	(??_convertCANid2Reg+3)^0,c
  6709   0024AA  C010  F003         	movff	??_convertCANid2Reg,convertCANid2Reg@tempPassedInID
  6710   0024AE  C011  F004         	movff	??_convertCANid2Reg+1,convertCANid2Reg@tempPassedInID+1
  6711   0024B2  C012  F005         	movff	??_convertCANid2Reg+2,convertCANid2Reg@tempPassedInID+2
  6712   0024B6  C013  F006         	movff	??_convertCANid2Reg+3,convertCANid2Reg@tempPassedInID+3
  6713   0024BA                     
  6714                           ;mcc_generated_files/ecan.c: 426:         *passedInSIDH = 0xFF & tempPassedInID;
  6715   0024BA  C00C  FFD9         	movff	convertCANid2Reg@passedInSIDH,fsr2l
  6716   0024BE  C00D  FFDA         	movff	convertCANid2Reg@passedInSIDH+1,fsr2h
  6717   0024C2  C003  FFDF         	movff	convertCANid2Reg@tempPassedInID,indf2
  6718                           
  6719                           ;mcc_generated_files/ecan.c: 427:     }
  6720   0024C6  EF92  F012         	goto	l298
  6721   0024CA                     l3328:
  6722                           
  6723                           ;mcc_generated_files/ecan.c: 429:     {;mcc_generated_files/ecan.c: 430:         *passed
      +                          InEIDH = 0;
  6724   0024CA  C008  FFD9         	movff	convertCANid2Reg@passedInEIDH,fsr2l
  6725   0024CE  C009  FFDA         	movff	convertCANid2Reg@passedInEIDH+1,fsr2h
  6726   0024D2  0E00               	movlw	0
  6727   0024D4  6EDF               	movwf	indf2,c
  6728                           
  6729                           ;mcc_generated_files/ecan.c: 431:         *passedInEIDL = 0;
  6730   0024D6  C00A  FFD9         	movff	convertCANid2Reg@passedInEIDL,fsr2l
  6731   0024DA  C00B  FFDA         	movff	convertCANid2Reg@passedInEIDL+1,fsr2h
  6732   0024DE  0E00               	movlw	0
  6733   0024E0  6EDF               	movwf	indf2,c
  6734   0024E2                     
  6735                           ;mcc_generated_files/ecan.c: 432:         tempPassedInID = tempPassedInID << 5;
  6736   0024E2  C003  F010         	movff	convertCANid2Reg@tempPassedInID,??_convertCANid2Reg
  6737   0024E6  C004  F011         	movff	convertCANid2Reg@tempPassedInID+1,??_convertCANid2Reg+1
  6738   0024EA  C005  F012         	movff	convertCANid2Reg@tempPassedInID+2,??_convertCANid2Reg+2
  6739   0024EE  C006  F013         	movff	convertCANid2Reg@tempPassedInID+3,??_convertCANid2Reg+3
  6740   0024F2  0E05               	movlw	5
  6741   0024F4                     u2615:
  6742   0024F4  90D8               	bcf	status,0,c
  6743   0024F6  3610               	rlcf	??_convertCANid2Reg^0,f,c
  6744   0024F8  3611               	rlcf	(??_convertCANid2Reg+1)^0,f,c
  6745   0024FA  3612               	rlcf	(??_convertCANid2Reg+2)^0,f,c
  6746   0024FC  3613               	rlcf	(??_convertCANid2Reg+3)^0,f,c
  6747   0024FE  2EE8               	decfsz	wreg,f,c
  6748   002500  EF7A  F012         	goto	u2615
  6749   002504  C010  F003         	movff	??_convertCANid2Reg,convertCANid2Reg@tempPassedInID
  6750   002508  C011  F004         	movff	??_convertCANid2Reg+1,convertCANid2Reg@tempPassedInID+1
  6751   00250C  C012  F005         	movff	??_convertCANid2Reg+2,convertCANid2Reg@tempPassedInID+2
  6752   002510  C013  F006         	movff	??_convertCANid2Reg+3,convertCANid2Reg@tempPassedInID+3
  6753   002514                     
  6754                           ;mcc_generated_files/ecan.c: 433:         *passedInSIDL = 0xFF & tempPassedInID;
  6755   002514  C00E  FFD9         	movff	convertCANid2Reg@passedInSIDL,fsr2l
  6756   002518  C00F  FFDA         	movff	convertCANid2Reg@passedInSIDL+1,fsr2h
  6757   00251C  C003  FFDF         	movff	convertCANid2Reg@tempPassedInID,indf2
  6758   002520  EF46  F012         	goto	l3324
  6759   002524                     l298:
  6760   002524  0012               	return		;funcret
  6761   002526                     __end_of_convertCANid2Reg:
  6762                           	callstack 0
  6763                           
  6764 ;; *************** function _CAN_messagesInBuffer *****************
  6765 ;; Defined at:
  6766 ;;		line 305 in file "mcc_generated_files/ecan.c"
  6767 ;; Parameters:    Size  Location     Type
  6768 ;;		None
  6769 ;; Auto vars:     Size  Location     Type
  6770 ;;  messageCount    1    2[COMRAM] unsigned char 
  6771 ;; Return value:  Size  Location     Type
  6772 ;;                  1    wreg      unsigned char 
  6773 ;; Registers used:
  6774 ;;		wreg, status,2, status,0
  6775 ;; Tracked objects:
  6776 ;;		On entry : 0/0
  6777 ;;		On exit  : 0/0
  6778 ;;		Unchanged: 0/0
  6779 ;; Data sizes:     COMRAM   BANK0   BANK1   BANK2   BANK3   BANK4   BANK5   BANK6   BANK7   BANK8   BANK9  BANK10  BANK1
      +1  BANK12  BANK13  BANK14
  6780 ;;      Params:         0       0       0       0       0       0       0       0       0       0       0       0       
      +0       0       0       0
  6781 ;;      Locals:         1       0       0       0       0       0       0       0       0       0       0       0       
      +0       0       0       0
  6782 ;;      Temps:          0       0       0       0       0       0       0       0       0       0       0       0       
      +0       0       0       0
  6783 ;;      Totals:         1       0       0       0       0       0       0       0       0       0       0       0       
      +0       0       0       0
  6784 ;;Total ram usage:        1 bytes
  6785 ;; Hardware stack levels used: 1
  6786 ;; Hardware stack levels required when called: 4
  6787 ;; This function calls:
  6788 ;;		Nothing
  6789 ;; This function is called by:
  6790 ;;		_main
  6791 ;; This function uses a non-reentrant model
  6792 ;;
  6793                           
  6794                           	psect	text40
  6795   0030EC                     __ptext40:
  6796                           	callstack 0
  6797   0030EC                     _CAN_messagesInBuffer:
  6798                           	callstack 26
  6799   0030EC                     
  6800                           ;mcc_generated_files/ecan.c: 307:     uint8_t messageCount = 0;
  6801   0030EC  0E00               	movlw	0
  6802   0030EE  6E03               	movwf	CAN_messagesInBuffer@messageCount^0,c
  6803   0030F0                     
  6804                           ;mcc_generated_files/ecan.c: 308:     if (RXB0CONbits.RXFUL != 0)
  6805   0030F0  AE60               	btfss	96,7,c	;volatile
  6806   0030F2  EF7D  F018         	goto	u2851
  6807   0030F6  EF7F  F018         	goto	u2850
  6808   0030FA                     u2851:
  6809   0030FA  EF80  F018         	goto	l3658
  6810   0030FE                     u2850:
  6811   0030FE                     
  6812                           ;mcc_generated_files/ecan.c: 309:     {;mcc_generated_files/ecan.c: 310:         message
      +                          Count++;
  6813   0030FE  2A03               	incf	CAN_messagesInBuffer@messageCount^0,f,c
  6814   003100                     l3658:
  6815                           
  6816                           ;mcc_generated_files/ecan.c: 312:     if (RXB1CONbits.RXFUL != 0)
  6817   003100  010F               	movlb	15	; () banked
  6818   003102  AF30               	btfss	48,7,b	;volatile
  6819   003104  EF86  F018         	goto	u2861
  6820   003108  EF88  F018         	goto	u2860
  6821   00310C                     u2861:
  6822   00310C  EF89  F018         	goto	l3662
  6823   003110                     u2860:
  6824   003110                     
  6825                           ; BSR set to: 15
  6826                           ;mcc_generated_files/ecan.c: 313:     {;mcc_generated_files/ecan.c: 314:         message
      +                          Count++;
  6827   003110  2A03               	incf	CAN_messagesInBuffer@messageCount^0,f,c
  6828   003112                     l3662:
  6829                           
  6830                           ; BSR set to: 15
  6831                           ;mcc_generated_files/ecan.c: 317:     return (messageCount);
  6832   003112  5003               	movf	CAN_messagesInBuffer@messageCount^0,w,c
  6833   003114                     
  6834                           ; BSR set to: 15
  6835   003114  0012               	return		;funcret
  6836   003116                     __end_of_CAN_messagesInBuffer:
  6837                           	callstack 0
  6838                           
  6839 ;; *************** function _INTERRUPT_InterruptManager *****************
  6840 ;; Defined at:
  6841 ;;		line 58 in file "mcc_generated_files/interrupt_manager.c"
  6842 ;; Parameters:    Size  Location     Type
  6843 ;;		None
  6844 ;; Auto vars:     Size  Location     Type
  6845 ;;		None
  6846 ;; Return value:  Size  Location     Type
  6847 ;;                  1    wreg      void 
  6848 ;; Registers used:
  6849 ;;		wreg, status,2, status,0, pcl, pclath, pclatu, tosl, cstack
  6850 ;; Tracked objects:
  6851 ;;		On entry : 0/0
  6852 ;;		On exit  : 0/0
  6853 ;;		Unchanged: 0/0
  6854 ;; Data sizes:     COMRAM   BANK0   BANK1   BANK2   BANK3   BANK4   BANK5   BANK6   BANK7   BANK8   BANK9  BANK10  BANK1
      +1  BANK12  BANK13  BANK14
  6855 ;;      Params:         0       0       0       0       0       0       0       0       0       0       0       0       
      +0       0       0       0
  6856 ;;      Locals:         0       0       0       0       0       0       0       0       0       0       0       0       
      +0       0       0       0
  6857 ;;      Temps:          2       0       0       0       0       0       0       0       0       0       0       0       
      +0       0       0       0
  6858 ;;      Totals:         2       0       0       0       0       0       0       0       0       0       0       0       
      +0       0       0       0
  6859 ;;Total ram usage:        2 bytes
  6860 ;; Hardware stack levels used: 1
  6861 ;; Hardware stack levels required when called: 3
  6862 ;; This function calls:
  6863 ;;		_ECAN_WAKI_ISR
  6864 ;;		_TMR0_ISR
  6865 ;; This function is called by:
  6866 ;;		Interrupt level 2
  6867 ;; This function uses a non-reentrant model
  6868 ;;
  6869                           
  6870                           	psect	intcode
  6871   000008                     __pintcode:
  6872                           	callstack 0
  6873   000008                     _INTERRUPT_InterruptManager:
  6874                           	callstack 21
  6875                           
  6876                           ; BSR set to: 15
  6877                           ;incstack = 0
  6878   000008  8257               	bsf	int$flags,1,c	;set compiler interrupt flag (level 2)
  6879   00000A  CFFA F001          	movff	pclath,??_INTERRUPT_InterruptManager
  6880   00000E  CFFB F002          	movff	pclatu,??_INTERRUPT_InterruptManager+1
  6881   000012                     
  6882                           ;mcc_generated_files/interrupt_manager.c: 61:     if(INTCONbits.TMR0IE == 1 && INTCONbit
      +                          s.TMR0IF == 1)
  6883   000012  AAF2               	btfss	242,5,c	;volatile
  6884   000014  EF0E  F000         	goto	i2u295_41
  6885   000018  EF10  F000         	goto	i2u295_40
  6886   00001C                     i2u295_41:
  6887   00001C  EF1B  F000         	goto	i2l476
  6888   000020                     i2u295_40:
  6889   000020  A4F2               	btfss	242,2,c	;volatile
  6890   000022  EF15  F000         	goto	i2u296_41
  6891   000026  EF17  F000         	goto	i2u296_40
  6892   00002A                     i2u296_41:
  6893   00002A  EF1B  F000         	goto	i2l476
  6894   00002E                     i2u296_40:
  6895   00002E                     
  6896                           ;mcc_generated_files/interrupt_manager.c: 62:     {;mcc_generated_files/interrupt_manage
      +                          r.c: 63:         TMR0_ISR();
  6897   00002E  EC34  F018         	call	_TMR0_ISR	;wreg free
  6898                           
  6899                           ;mcc_generated_files/interrupt_manager.c: 64:     }
  6900   000032  EF34  F000         	goto	i2l482
  6901   000036                     i2l476:
  6902   000036  ACF2               	btfss	242,6,c	;volatile
  6903   000038  EF20  F000         	goto	i2u297_41
  6904   00003C  EF22  F000         	goto	i2u297_40
  6905   000040                     i2u297_41:
  6906   000040  EF34  F000         	goto	i2l482
  6907   000044                     i2u297_40:
  6908   000044                     
  6909                           ;mcc_generated_files/interrupt_manager.c: 66:     {;mcc_generated_files/interrupt_manage
      +                          r.c: 67:         if(PIE5bits.WAKIE == 1 && PIR5bits.WAKIF == 1)
  6910   000044  AC76               	btfss	118,6,c	;volatile
  6911   000046  EF27  F000         	goto	i2u298_41
  6912   00004A  EF29  F000         	goto	i2u298_40
  6913   00004E                     i2u298_41:
  6914   00004E  EF34  F000         	goto	i2l481
  6915   000052                     i2u298_40:
  6916   000052  AC77               	btfss	119,6,c	;volatile
  6917   000054  EF2E  F000         	goto	i2u299_41
  6918   000058  EF30  F000         	goto	i2u299_40
  6919   00005C                     i2u299_41:
  6920   00005C  EF34  F000         	goto	i2l481
  6921   000060                     i2u299_40:
  6922   000060                     
  6923                           ;mcc_generated_files/interrupt_manager.c: 68:         {;mcc_generated_files/interrupt_ma
      +                          nager.c: 69:             ECAN_WAKI_ISR();
  6924   000060  ECE6  F018         	call	_ECAN_WAKI_ISR	;wreg free
  6925                           
  6926                           ;mcc_generated_files/interrupt_manager.c: 70:         }
  6927   000064  EF34  F000         	goto	i2l482
  6928   000068                     i2l481:
  6929   000068                     i2l482:
  6930   000068  C002  FFFB         	movff	??_INTERRUPT_InterruptManager+1,pclatu
  6931   00006C  C001  FFFA         	movff	??_INTERRUPT_InterruptManager,pclath
  6932   000070  9257               	bcf	int$flags,1,c	;clear compiler interrupt flag (level 2)
  6933   000072  0011               	retfie		f
  6934   000074                     __end_of_INTERRUPT_InterruptManager:
  6935                           	callstack 0
  6936                           
  6937 ;; *************** function _TMR0_ISR *****************
  6938 ;; Defined at:
  6939 ;;		line 129 in file "mcc_generated_files/tmr0.c"
  6940 ;; Parameters:    Size  Location     Type
  6941 ;;		None
  6942 ;; Auto vars:     Size  Location     Type
  6943 ;;		None
  6944 ;; Return value:  Size  Location     Type
  6945 ;;                  1    wreg      void 
  6946 ;; Registers used:
  6947 ;;		wreg, status,2, status,0, pcl, pclath, pclatu, tosl, cstack
  6948 ;; Tracked objects:
  6949 ;;		On entry : 0/0
  6950 ;;		On exit  : 0/0
  6951 ;;		Unchanged: 0/0
  6952 ;; Data sizes:     COMRAM   BANK0   BANK1   BANK2   BANK3   BANK4   BANK5   BANK6   BANK7   BANK8   BANK9  BANK10  BANK1
      +1  BANK12  BANK13  BANK14
  6953 ;;      Params:         0       0       0       0       0       0       0       0       0       0       0       0       
      +0       0       0       0
  6954 ;;      Locals:         0       0       0       0       0       0       0       0       0       0       0       0       
      +0       0       0       0
  6955 ;;      Temps:          0       0       0       0       0       0       0       0       0       0       0       0       
      +0       0       0       0
  6956 ;;      Totals:         0       0       0       0       0       0       0       0       0       0       0       0       
      +0       0       0       0
  6957 ;;Total ram usage:        0 bytes
  6958 ;; Hardware stack levels used: 1
  6959 ;; Hardware stack levels required when called: 2
  6960 ;; This function calls:
  6961 ;;		_TMR0_CallBack
  6962 ;; This function is called by:
  6963 ;;		_INTERRUPT_InterruptManager
  6964 ;; This function uses a non-reentrant model
  6965 ;;
  6966                           
  6967                           	psect	text42
  6968   003068                     __ptext42:
  6969                           	callstack 0
  6970   003068                     _TMR0_ISR:
  6971                           	callstack 21
  6972   003068                     
  6973                           ;mcc_generated_files/tmr0.c: 131:     static volatile uint16_t CountCallBack = 0;;mcc_ge
      +                          nerated_files/tmr0.c: 134:     INTCONbits.TMR0IF = 0;
  6974   003068  94F2               	bcf	242,2,c	;volatile
  6975                           
  6976                           ;mcc_generated_files/tmr0.c: 137:     TMR0L = timer0ReloadVal;
  6977   00306A  C056  FFD6         	movff	_timer0ReloadVal,4054	;volatile
  6978   00306E                     
  6979                           ;mcc_generated_files/tmr0.c: 140:     if (++CountCallBack >= 24)
  6980   00306E  4A51               	infsnz	TMR0_ISR@CountCallBack^0,f,c	;volatile
  6981   003070  2A52               	incf	(TMR0_ISR@CountCallBack+1)^0,f,c	;volatile
  6982   003072  5052               	movf	(TMR0_ISR@CountCallBack+1)^0,w,c	;volatile
  6983   003074  E109               	bnz	i2u288_40
  6984   003076  0E18               	movlw	24
  6985   003078  5C51               	subwf	TMR0_ISR@CountCallBack^0,w,c	;volatile
  6986   00307A  A0D8               	btfss	status,0,c
  6987   00307C  EF42  F018         	goto	i2u288_41
  6988   003080  EF44  F018         	goto	i2u288_40
  6989   003084                     i2u288_41:
  6990   003084  EF4A  F018         	goto	i2l526
  6991   003088                     i2u288_40:
  6992   003088                     
  6993                           ;mcc_generated_files/tmr0.c: 141:     {;mcc_generated_files/tmr0.c: 143:         TMR0_Ca
      +                          llBack();
  6994   003088  EC1C  F018         	call	_TMR0_CallBack	;wreg free
  6995   00308C                     
  6996                           ;mcc_generated_files/tmr0.c: 146:         CountCallBack = 0;
  6997   00308C  0E00               	movlw	0
  6998   00308E  6E52               	movwf	(TMR0_ISR@CountCallBack+1)^0,c	;volatile
  6999   003090  0E00               	movlw	0
  7000   003092  6E51               	movwf	TMR0_ISR@CountCallBack^0,c	;volatile
  7001   003094                     i2l526:
  7002   003094  0012               	return		;funcret
  7003   003096                     __end_of_TMR0_ISR:
  7004                           	callstack 0
  7005                           
  7006 ;; *************** function _TMR0_CallBack *****************
  7007 ;; Defined at:
  7008 ;;		line 152 in file "mcc_generated_files/tmr0.c"
  7009 ;; Parameters:    Size  Location     Type
  7010 ;;		None
  7011 ;; Auto vars:     Size  Location     Type
  7012 ;;		None
  7013 ;; Return value:  Size  Location     Type
  7014 ;;                  1    wreg      void 
  7015 ;; Registers used:
  7016 ;;		wreg, status,2, status,0, pcl, pclath, pclatu, tosl, cstack
  7017 ;; Tracked objects:
  7018 ;;		On entry : 0/0
  7019 ;;		On exit  : 0/0
  7020 ;;		Unchanged: 0/0
  7021 ;; Data sizes:     COMRAM   BANK0   BANK1   BANK2   BANK3   BANK4   BANK5   BANK6   BANK7   BANK8   BANK9  BANK10  BANK1
      +1  BANK12  BANK13  BANK14
  7022 ;;      Params:         0       0       0       0       0       0       0       0       0       0       0       0       
      +0       0       0       0
  7023 ;;      Locals:         0       0       0       0       0       0       0       0       0       0       0       0       
      +0       0       0       0
  7024 ;;      Temps:          0       0       0       0       0       0       0       0       0       0       0       0       
      +0       0       0       0
  7025 ;;      Totals:         0       0       0       0       0       0       0       0       0       0       0       0       
      +0       0       0       0
  7026 ;;Total ram usage:        0 bytes
  7027 ;; Hardware stack levels used: 1
  7028 ;; Hardware stack levels required when called: 1
  7029 ;; This function calls:
  7030 ;;		Absolute function
  7031 ;;		_TMR0_DefaultInterruptHandler
  7032 ;;		_interruption
  7033 ;; This function is called by:
  7034 ;;		_TMR0_ISR
  7035 ;; This function uses a non-reentrant model
  7036 ;;
  7037                           
  7038                           	psect	text43
  7039   003038                     __ptext43:
  7040                           	callstack 0
  7041   003038                     _TMR0_CallBack:
  7042                           	callstack 21
  7043   003038                     
  7044                           ;mcc_generated_files/tmr0.c: 156:     if(TMR0_InterruptHandler)
  7045   003038  0100               	movlb	0	; () banked
  7046   00303A  51B8               	movf	_TMR0_InterruptHandler& (0+255),w,b
  7047   00303C  11B9               	iorwf	(_TMR0_InterruptHandler+1)& (0+255),w,b
  7048   00303E  B4D8               	btfsc	status,2,c
  7049   003040  EF24  F018         	goto	i2u266_41
  7050   003044  EF26  F018         	goto	i2u266_40
  7051   003048                     i2u266_41:
  7052   003048  EF33  F018         	goto	i2l530
  7053   00304C                     i2u266_40:
  7054   00304C                     
  7055                           ; BSR set to: 0
  7056                           ;mcc_generated_files/tmr0.c: 157:     {;mcc_generated_files/tmr0.c: 158:         TMR0_In
      +                          terruptHandler();
  7057   00304C  D802               	call	i2u267_48
  7058   00304E  EF33  F018         	goto	i2u267_49
  7059   003052                     i2u267_48:
  7060   003052  0005               	push	
  7061   003054  6EFA               	movwf	pclath,c
  7062   003056  51B8               	movf	_TMR0_InterruptHandler& (0+255),w,b
  7063   003058  6EFD               	movwf	tosl,c
  7064   00305A  51B9               	movf	(_TMR0_InterruptHandler+1)& (0+255),w,b
  7065   00305C  6EFE               	movwf	tosh,c
  7066   00305E  50F8               	movf	tblptru,w,c
  7067   003060  6EFF               	movwf	tosu,c
  7068   003062  50FA               	movf	pclath,w,c
  7069   003064  0012               	return		;indir
  7070   003066                     i2u267_49:
  7071   003066                     i2l530:
  7072   003066  0012               	return		;funcret
  7073   003068                     __end_of_TMR0_CallBack:
  7074                           	callstack 0
  7075                           
  7076 ;; *************** function _TMR0_DefaultInterruptHandler *****************
  7077 ;; Defined at:
  7078 ;;		line 166 in file "mcc_generated_files/tmr0.c"
  7079 ;; Parameters:    Size  Location     Type
  7080 ;;		None
  7081 ;; Auto vars:     Size  Location     Type
  7082 ;;		None
  7083 ;; Return value:  Size  Location     Type
  7084 ;;                  1    wreg      void 
  7085 ;; Registers used:
  7086 ;;		None
  7087 ;; Tracked objects:
  7088 ;;		On entry : 0/0
  7089 ;;		On exit  : 0/0
  7090 ;;		Unchanged: 0/0
  7091 ;; Data sizes:     COMRAM   BANK0   BANK1   BANK2   BANK3   BANK4   BANK5   BANK6   BANK7   BANK8   BANK9  BANK10  BANK1
      +1  BANK12  BANK13  BANK14
  7092 ;;      Params:         0       0       0       0       0       0       0       0       0       0       0       0       
      +0       0       0       0
  7093 ;;      Locals:         0       0       0       0       0       0       0       0       0       0       0       0       
      +0       0       0       0
  7094 ;;      Temps:          0       0       0       0       0       0       0       0       0       0       0       0       
      +0       0       0       0
  7095 ;;      Totals:         0       0       0       0       0       0       0       0       0       0       0       0       
      +0       0       0       0
  7096 ;;Total ram usage:        0 bytes
  7097 ;; Hardware stack levels used: 1
  7098 ;; This function calls:
  7099 ;;		Nothing
  7100 ;; This function is called by:
  7101 ;;		_TMR0_Initialize
  7102 ;;		_TMR0_CallBack
  7103 ;; This function uses a non-reentrant model
  7104 ;;
  7105                           
  7106                           	psect	text44
  7107   00327E                     __ptext44:
  7108                           	callstack 0
  7109   00327E                     _TMR0_DefaultInterruptHandler:
  7110                           	callstack 21
  7111   00327E  0012               	return		;funcret
  7112   003280                     __end_of_TMR0_DefaultInterruptHandler:
  7113                           	callstack 0
  7114                           
  7115 ;; *************** function _interruption *****************
  7116 ;; Defined at:
  7117 ;;		line 133 in file "main.c"
  7118 ;; Parameters:    Size  Location     Type
  7119 ;;		None
  7120 ;; Auto vars:     Size  Location     Type
  7121 ;;		None
  7122 ;; Return value:  Size  Location     Type
  7123 ;;                  1    wreg      void 
  7124 ;; Registers used:
  7125 ;;		status,2, status,0
  7126 ;; Tracked objects:
  7127 ;;		On entry : 0/0
  7128 ;;		On exit  : 0/0
  7129 ;;		Unchanged: 0/0
  7130 ;; Data sizes:     COMRAM   BANK0   BANK1   BANK2   BANK3   BANK4   BANK5   BANK6   BANK7   BANK8   BANK9  BANK10  BANK1
      +1  BANK12  BANK13  BANK14
  7131 ;;      Params:         0       0       0       0       0       0       0       0       0       0       0       0       
      +0       0       0       0
  7132 ;;      Locals:         0       0       0       0       0       0       0       0       0       0       0       0       
      +0       0       0       0
  7133 ;;      Temps:          0       0       0       0       0       0       0       0       0       0       0       0       
      +0       0       0       0
  7134 ;;      Totals:         0       0       0       0       0       0       0       0       0       0       0       0       
      +0       0       0       0
  7135 ;;Total ram usage:        0 bytes
  7136 ;; Hardware stack levels used: 1
  7137 ;; This function calls:
  7138 ;;		Nothing
  7139 ;; This function is called by:
  7140 ;;		_main
  7141 ;;		_TMR0_CallBack
  7142 ;; This function uses a non-reentrant model
  7143 ;;
  7144                           
  7145                           	psect	text45
  7146   003274                     __ptext45:
  7147                           	callstack 0
  7148   003274                     _interruption:
  7149                           	callstack 21
  7150   003274                     
  7151                           ;main.c: 134:     itemps++;
  7152   003274  4A4B               	infsnz	_itemps^0,f,c
  7153   003276  2A4C               	incf	(_itemps+1)^0,f,c
  7154   003278  0012               	return		;funcret
  7155   00327A                     __end_of_interruption:
  7156                           	callstack 0
  7157                           
  7158 ;; *************** function _ECAN_WAKI_ISR *****************
  7159 ;; Defined at:
  7160 ;;		line 444 in file "mcc_generated_files/ecan.c"
  7161 ;; Parameters:    Size  Location     Type
  7162 ;;		None
  7163 ;; Auto vars:     Size  Location     Type
  7164 ;;		None
  7165 ;; Return value:  Size  Location     Type
  7166 ;;                  1    wreg      void 
  7167 ;; Registers used:
  7168 ;;		wreg, pcl, pclath, pclatu, tosl, cstack
  7169 ;; Tracked objects:
  7170 ;;		On entry : 0/0
  7171 ;;		On exit  : 0/0
  7172 ;;		Unchanged: 0/0
  7173 ;; Data sizes:     COMRAM   BANK0   BANK1   BANK2   BANK3   BANK4   BANK5   BANK6   BANK7   BANK8   BANK9  BANK10  BANK1
      +1  BANK12  BANK13  BANK14
  7174 ;;      Params:         0       0       0       0       0       0       0       0       0       0       0       0       
      +0       0       0       0
  7175 ;;      Locals:         0       0       0       0       0       0       0       0       0       0       0       0       
      +0       0       0       0
  7176 ;;      Temps:          0       0       0       0       0       0       0       0       0       0       0       0       
      +0       0       0       0
  7177 ;;      Totals:         0       0       0       0       0       0       0       0       0       0       0       0       
      +0       0       0       0
  7178 ;;Total ram usage:        0 bytes
  7179 ;; Hardware stack levels used: 1
  7180 ;; Hardware stack levels required when called: 1
  7181 ;; This function calls:
  7182 ;;		Absolute function
  7183 ;;		_WakeUpDefaultInterruptHandler
  7184 ;; This function is called by:
  7185 ;;		_INTERRUPT_InterruptManager
  7186 ;; This function uses a non-reentrant model
  7187 ;;
  7188                           
  7189                           	psect	text46
  7190   0031CC                     __ptext46:
  7191                           	callstack 0
  7192   0031CC                     _ECAN_WAKI_ISR:
  7193                           	callstack 22
  7194   0031CC                     
  7195                           ;mcc_generated_files/ecan.c: 446:     WakeUpInterruptHandler();
  7196   0031CC  D802               	call	i2u287_48
  7197   0031CE  EFF4  F018         	goto	i2u287_49
  7198   0031D2                     i2u287_48:
  7199   0031D2  0005               	push	
  7200   0031D4  0100               	movlb	0	; () banked
  7201   0031D6  6EFA               	movwf	pclath,c
  7202   0031D8  519A               	movf	_WakeUpInterruptHandler& (0+255),w,b
  7203   0031DA  6EFD               	movwf	tosl,c
  7204   0031DC  519B               	movf	(_WakeUpInterruptHandler+1)& (0+255),w,b
  7205   0031DE  6EFE               	movwf	tosh,c
  7206   0031E0  50F8               	movf	tblptru,w,c
  7207   0031E2  6EFF               	movwf	tosu,c
  7208   0031E4  50FA               	movf	pclath,w,c
  7209   0031E6  0012               	return		;indir
  7210   0031E8                     i2u287_49:
  7211   0031E8                     
  7212                           ;mcc_generated_files/ecan.c: 447:     PIR5bits.WAKIF = 0;
  7213   0031E8  9C77               	bcf	119,6,c	;volatile
  7214   0031EA  0012               	return		;funcret
  7215   0031EC                     __end_of_ECAN_WAKI_ISR:
  7216                           	callstack 0
  7217                           
  7218 ;; *************** function _WakeUpDefaultInterruptHandler *****************
  7219 ;; Defined at:
  7220 ;;		line 63 in file "mcc_generated_files/ecan.c"
  7221 ;; Parameters:    Size  Location     Type
  7222 ;;		None
  7223 ;; Auto vars:     Size  Location     Type
  7224 ;;		None
  7225 ;; Return value:  Size  Location     Type
  7226 ;;                  1    wreg      void 
  7227 ;; Registers used:
  7228 ;;		None
  7229 ;; Tracked objects:
  7230 ;;		On entry : 0/0
  7231 ;;		On exit  : 0/0
  7232 ;;		Unchanged: 0/0
  7233 ;; Data sizes:     COMRAM   BANK0   BANK1   BANK2   BANK3   BANK4   BANK5   BANK6   BANK7   BANK8   BANK9  BANK10  BANK1
      +1  BANK12  BANK13  BANK14
  7234 ;;      Params:         0       0       0       0       0       0       0       0       0       0       0       0       
      +0       0       0       0
  7235 ;;      Locals:         0       0       0       0       0       0       0       0       0       0       0       0       
      +0       0       0       0
  7236 ;;      Temps:          0       0       0       0       0       0       0       0       0       0       0       0       
      +0       0       0       0
  7237 ;;      Totals:         0       0       0       0       0       0       0       0       0       0       0       0       
      +0       0       0       0
  7238 ;;Total ram usage:        0 bytes
  7239 ;; Hardware stack levels used: 1
  7240 ;; This function calls:
  7241 ;;		Nothing
  7242 ;; This function is called by:
  7243 ;;		_ECAN_Initialize
  7244 ;;		_ECAN_WAKI_ISR
  7245 ;; This function uses a non-reentrant model
  7246 ;;
  7247                           
  7248                           	psect	text47
  7249   003280                     __ptext47:
  7250                           	callstack 0
  7251   003280                     _WakeUpDefaultInterruptHandler:
  7252                           	callstack 22
  7253   003280  0012               	return		;funcret
  7254   003282                     __end_of_WakeUpDefaultInterruptHandler:
  7255                           	callstack 0
  7256                           
  7257                           	psect	text48
  7258   000000                     __ptext48:
  7259                           	callstack 0
  7260   000000                     
  7261                           	psect	rparam
  7262   000000                     
  7263                           	psect	temp
  7264   000057                     btemp:
  7265                           	callstack 0
  7266   000057                     	ds	1
  7267   000000                     int$flags	set	btemp
  7268   000000                     wtemp8	set	btemp+1
  7269   000000                     ttemp5	set	btemp+1
  7270   000000                     ttemp6	set	btemp+4
  7271   000000                     ttemp7	set	btemp+8
  7272                           
  7273                           	psect	idloc
  7274                           
  7275                           ;Config register IDLOC0 @ 0x200000
  7276                           ;	unspecified, using default values
  7277   200000                     	org	2097152
  7278   200000  FF                 	db	255
  7279                           
  7280                           ;Config register IDLOC1 @ 0x200001
  7281                           ;	unspecified, using default values
  7282   200001                     	org	2097153
  7283   200001  FF                 	db	255
  7284                           
  7285                           ;Config register IDLOC2 @ 0x200002
  7286                           ;	unspecified, using default values
  7287   200002                     	org	2097154
  7288   200002  FF                 	db	255
  7289                           
  7290                           ;Config register IDLOC3 @ 0x200003
  7291                           ;	unspecified, using default values
  7292   200003                     	org	2097155
  7293   200003  FF                 	db	255
  7294                           
  7295                           ;Config register IDLOC4 @ 0x200004
  7296                           ;	unspecified, using default values
  7297   200004                     	org	2097156
  7298   200004  FF                 	db	255
  7299                           
  7300                           ;Config register IDLOC5 @ 0x200005
  7301                           ;	unspecified, using default values
  7302   200005                     	org	2097157
  7303   200005  FF                 	db	255
  7304                           
  7305                           ;Config register IDLOC6 @ 0x200006
  7306                           ;	unspecified, using default values
  7307   200006                     	org	2097158
  7308   200006  FF                 	db	255
  7309                           
  7310                           ;Config register IDLOC7 @ 0x200007
  7311                           ;	unspecified, using default values
  7312   200007                     	org	2097159
  7313   200007  FF                 	db	255
  7314                           
  7315                           	psect	config
  7316                           
  7317                           ;Config register CONFIG1L @ 0x300000
  7318                           ;	VREG Sleep Enable bit
  7319                           ;	RETEN = OFF, Ultra low-power regulator is Disabled (Controlled by REGSLP bit)
  7320                           ;	LF-INTOSC Low-power Enable bit
  7321                           ;	INTOSCSEL = HIGH, LF-INTOSC in High-power mode during Sleep
  7322                           ;	SOSC Power Selection and mode Configuration bits
  7323                           ;	SOSCSEL = DIG, Digital (SCLKI) mode
  7324                           ;	Extended Instruction Set
  7325                           ;	XINST = OFF, Disabled
  7326   300000                     	org	3145728
  7327   300000  15                 	db	21
  7328                           
  7329                           ;Config register CONFIG1H @ 0x300001
  7330                           ;	Oscillator
  7331                           ;	FOSC = HS2, HS oscillator (High power, 16 MHz - 25 MHz)
  7332                           ;	PLL x4 Enable bit
  7333                           ;	PLLCFG = OFF, Disabled
  7334                           ;	Fail-Safe Clock Monitor
  7335                           ;	FCMEN = OFF, Disabled
  7336                           ;	Internal External Oscillator Switch Over Mode
  7337                           ;	IESO = OFF, Disabled
  7338   300001                     	org	3145729
  7339   300001  02                 	db	2
  7340                           
  7341                           ;Config register CONFIG2L @ 0x300002
  7342                           ;	Power Up Timer
  7343                           ;	PWRTEN = OFF, Disabled
  7344                           ;	Brown Out Detect
  7345                           ;	BOREN = SBORDIS, Enabled in hardware, SBOREN disabled
  7346                           ;	Brown-out Reset Voltage bits
  7347                           ;	BORV = 3, 1.8V
  7348                           ;	BORMV Power level
  7349                           ;	BORPWR = ZPBORMV, ZPBORMV instead of BORMV is selected
  7350   300002                     	org	3145730
  7351   300002  7F                 	db	127
  7352                           
  7353                           ;Config register CONFIG2H @ 0x300003
  7354                           ;	Watchdog Timer
  7355                           ;	WDTEN = OFF, WDT disabled in hardware; SWDTEN bit disabled
  7356                           ;	Watchdog Postscaler
  7357                           ;	WDTPS = 1048576, 1:1048576
  7358   300003                     	org	3145731
  7359   300003  7C                 	db	124
  7360                           
  7361                           ; Padding undefined space
  7362   300004                     	org	3145732
  7363   300004  FF                 	db	255
  7364                           
  7365                           ;Config register CONFIG3H @ 0x300005
  7366                           ;	ECAN Mux bit
  7367                           ;	CANMX = PORTB, ECAN TX and RX pins are located on RB2 and RB3, respectively
  7368                           ;	MSSP address masking
  7369                           ;	MSSPMSK = MSK7, 7 Bit address masking mode
  7370                           ;	Master Clear Enable
  7371                           ;	MCLRE = ON, MCLR Enabled, RE3 Disabled
  7372   300005                     	org	3145733
  7373   300005  89                 	db	137
  7374                           
  7375                           ;Config register CONFIG4L @ 0x300006
  7376                           ;	Stack Overflow Reset
  7377                           ;	STVREN = ON, Enabled
  7378                           ;	Boot Block Size
  7379                           ;	BBSIZ = BB2K, 2K word Boot Block size
  7380   300006                     	org	3145734
  7381   300006  91                 	db	145
  7382                           
  7383                           ; Padding undefined space
  7384   300007                     	org	3145735
  7385   300007  FF                 	db	255
  7386                           
  7387                           ;Config register CONFIG5L @ 0x300008
  7388                           ;	Code Protect 00800-01FFF
  7389                           ;	CP0 = OFF, Disabled
  7390                           ;	Code Protect 02000-03FFF
  7391                           ;	CP1 = OFF, Disabled
  7392                           ;	Code Protect 04000-05FFF
  7393                           ;	CP2 = OFF, Disabled
  7394                           ;	Code Protect 06000-07FFF
  7395                           ;	CP3 = OFF, Disabled
  7396   300008                     	org	3145736
  7397   300008  0F                 	db	15
  7398                           
  7399                           ;Config register CONFIG5H @ 0x300009
  7400                           ;	Code Protect Boot
  7401                           ;	CPB = OFF, Disabled
  7402                           ;	Data EE Read Protect
  7403                           ;	CPD = OFF, Disabled
  7404   300009                     	org	3145737
  7405   300009  C0                 	db	192
  7406                           
  7407                           ;Config register CONFIG6L @ 0x30000A
  7408                           ;	Table Write Protect 00800-01FFF
  7409                           ;	WRT0 = OFF, Disabled
  7410                           ;	Table Write Protect 02000-03FFF
  7411                           ;	WRT1 = OFF, Disabled
  7412                           ;	Table Write Protect 04000-05FFF
  7413                           ;	WRT2 = OFF, Disabled
  7414                           ;	Table Write Protect 06000-07FFF
  7415                           ;	WRT3 = OFF, Disabled
  7416   30000A                     	org	3145738
  7417   30000A  0F                 	db	15
  7418                           
  7419                           ;Config register CONFIG6H @ 0x30000B
  7420                           ;	Config. Write Protect
  7421                           ;	WRTC = OFF, Disabled
  7422                           ;	Table Write Protect Boot
  7423                           ;	WRTB = OFF, Disabled
  7424                           ;	Data EE Write Protect
  7425                           ;	WRTD = OFF, Disabled
  7426   30000B                     	org	3145739
  7427   30000B  E0                 	db	224
  7428                           
  7429                           ;Config register CONFIG7L @ 0x30000C
  7430                           ;	Table Read Protect 00800-01FFF
  7431                           ;	EBTR0 = OFF, Disabled
  7432                           ;	Table Read Protect 02000-03FFF
  7433                           ;	EBTR1 = OFF, Disabled
  7434                           ;	Table Read Protect 04000-05FFF
  7435                           ;	EBTR2 = OFF, Disabled
  7436                           ;	Table Read Protect 06000-07FFF
  7437                           ;	EBTR3 = OFF, Disabled
  7438   30000C                     	org	3145740
  7439   30000C  0F                 	db	15
  7440                           
  7441                           ;Config register CONFIG7H @ 0x30000D
  7442                           ;	Table Read Protect Boot
  7443                           ;	EBTRB = OFF, Disabled
  7444   30000D                     	org	3145741
  7445   30000D  40                 	db	64
  7446                           tosu	equ	0xFFF
  7447                           tosh	equ	0xFFE
  7448                           tosl	equ	0xFFD
  7449                           stkptr	equ	0xFFC
  7450                           pclatu	equ	0xFFB
  7451                           pclath	equ	0xFFA
  7452                           pcl	equ	0xFF9
  7453                           tblptru	equ	0xFF8
  7454                           tblptrh	equ	0xFF7
  7455                           tblptrl	equ	0xFF6
  7456                           tablat	equ	0xFF5
  7457                           prodh	equ	0xFF4
  7458                           prodl	equ	0xFF3
  7459                           indf0	equ	0xFEF
  7460                           postinc0	equ	0xFEE
  7461                           postdec0	equ	0xFED
  7462                           preinc0	equ	0xFEC
  7463                           plusw0	equ	0xFEB
  7464                           fsr0h	equ	0xFEA
  7465                           fsr0l	equ	0xFE9
  7466                           wreg	equ	0xFE8
  7467                           indf1	equ	0xFE7
  7468                           postinc1	equ	0xFE6
  7469                           postdec1	equ	0xFE5
  7470                           preinc1	equ	0xFE4
  7471                           plusw1	equ	0xFE3
  7472                           fsr1h	equ	0xFE2
  7473                           fsr1l	equ	0xFE1
  7474                           bsr	equ	0xFE0
  7475                           indf2	equ	0xFDF
  7476                           postinc2	equ	0xFDE
  7477                           postdec2	equ	0xFDD
  7478                           preinc2	equ	0xFDC
  7479                           plusw2	equ	0xFDB
  7480                           fsr2h	equ	0xFDA
  7481                           fsr2l	equ	0xFD9
  7482                           status	equ	0xFD8

Data Sizes:
    Strings     19
    Constant    0
    Data        0
    BSS         103
    Persistent  9
    Stack       0

Auto Spaces:
    Space          Size  Autos    Used
    COMRAM           94     70      86
    BANK0           160      8     104
    BANK1           256      0       0
    BANK2           256      0       0
    BANK3           256      0       0
    BANK4           256      0       0
    BANK5           256      0       0
    BANK6           256      0       0
    BANK7           256      0       0
    BANK8           256      0       0
    BANK9           256      0       0
    BANK10          256      0       0
    BANK11          256      0       0
    BANK12          256      0       0
    BANK13          256      0       0
    BANK14           65      0       0

Pointer List with Targets:

    vfpfcnvrt@ap	PTR PTR void  size(2) Largest target is 2
		 -> printf@ap(COMRAM[2]), 

    ADC_InterruptHandler	PTR FTN()void  size(2) Largest target is 1
		 -> Absolute function(), 

    S2190$source	PTR const unsigned char  size(2) Largest target is 0

    fputc@fp...source	PTR const unsigned char  size(2) Largest target is 0

    S2190$buffer	PTR unsigned char  size(2) Largest target is 0

    fputc@fp...buffer	PTR unsigned char  size(2) Largest target is 0

    fputc@fp	PTR struct _IO_FILE size(2) Largest target is 0
		 -> NULL(NULL[0]), 

    vfprintf@ap	PTR PTR void  size(2) Largest target is 2
		 -> printf@ap(COMRAM[2]), 

    vfprintf@fp	PTR struct _IO_FILE size(2) Largest target is 0
		 -> NULL(NULL[0]), 

    vfprintf@fmt	PTR const unsigned char  size(2) Largest target is 11
		 -> STR_2(CODE[8]), STR_1(CODE[11]), 

    vfprintf@cfmt	PTR unsigned char  size(2) Largest target is 11
		 -> STR_2(CODE[8]), STR_1(CODE[11]), 

    vfpfcnvrt@fp	PTR struct _IO_FILE size(2) Largest target is 0
		 -> NULL(NULL[0]), 

    vfpfcnvrt@fmt	PTR PTR unsigned char  size(2) Largest target is 2
		 -> vfprintf@cfmt(COMRAM[2]), 

    S2225$vp	PTR void  size(2) Largest target is 0

    convarg.vp	PTR void  size(2) Largest target is 0

    printf@fmt	PTR const unsigned char  size(2) Largest target is 11
		 -> STR_2(CODE[8]), STR_1(CODE[11]), 

    printf@ap	PTR void [1] size(2) Largest target is 2
		 -> ?_printf(COMRAM[2]), 

    TMR0_SetInterruptHandler@InterruptHandler	PTR FTN()void  size(2) Largest target is 1
		 -> interruption(), TMR0_DefaultInterruptHandler(), 

    TMR0_InterruptHandler	PTR FTN()void  size(2) Largest target is 1
		 -> interruption(), Absolute function(), TMR0_DefaultInterruptHandler(), 

    EUSART1_SetErrorHandler@interruptHandler	PTR FTN()void  size(2) Largest target is 1
		 -> EUSART1_DefaultErrorHandler(), 

    EUSART1_ErrorHandler	PTR FTN()void  size(2) Largest target is 1
		 -> Absolute function(), EUSART1_DefaultErrorHandler(), 

    EUSART1_SetOverrunErrorHandler@interruptHandler	PTR FTN()void  size(2) Largest target is 1
		 -> EUSART1_DefaultOverrunErrorHandler(), 

    EUSART1_OverrunErrorHandler	PTR FTN()void  size(2) Largest target is 1
		 -> Absolute function(), EUSART1_DefaultOverrunErrorHandler(), 

    EUSART1_SetFramingErrorHandler@interruptHandler	PTR FTN()void  size(2) Largest target is 1
		 -> EUSART1_DefaultFramingErrorHandler(), 

    EUSART1_FramingErrorHandler	PTR FTN()void  size(2) Largest target is 1
		 -> Absolute function(), EUSART1_DefaultFramingErrorHandler(), 

    ECAN_SetWakeUpInterruptHandler@handler	PTR FTN()void  size(2) Largest target is 1
		 -> WakeUpDefaultInterruptHandler(), 

    WakeUpInterruptHandler	PTR FTN()void  size(2) Largest target is 1
		 -> Absolute function(), WakeUpDefaultInterruptHandler(), 

    convertCANid2Reg@passedInSIDH	PTR unsigned char  size(2) Largest target is 1
		 -> CAN_transmit@tempSIDH(COMRAM[1]), 

    convertCANid2Reg@passedInSIDL	PTR unsigned char  size(2) Largest target is 1
		 -> CAN_transmit@tempSIDL(COMRAM[1]), 

    convertCANid2Reg@passedInEIDH	PTR unsigned char  size(2) Largest target is 1
		 -> CAN_transmit@tempEIDH(COMRAM[1]), 

    convertCANid2Reg@passedInEIDL	PTR unsigned char  size(2) Largest target is 1
		 -> CAN_transmit@tempEIDL(COMRAM[1]), 

    CAN_receive@tempCanMsg	PTR struct . size(2) Largest target is 14
		 -> rxMessage(BANK0[14]), 

    CAN_transmit@tempCanMsg	PTR struct . size(2) Largest target is 14
		 -> txMessage(BANK0[14]), 


Critical Paths under _main in COMRAM

    _reception->_CAN_receive
    _CAN_receive->_convertReg2ExtendedCANid
    _printf->_vfprintf
    _vfprintf->_vfpfcnvrt
    _vfpfcnvrt->_fputc
    _fputc->_putch
    _putch->_EUSART1_Write
    _mesure->_temperature
    _temperature->___flmul
    ___flmul->___fldiv
    ___fldiv->___xxtofl
    _controle_seuil->___flsub
    ___flsub->___fladd
    _SYSTEM_Initialize->_ECAN_Initialize
    _TMR0_Initialize->_TMR0_SetInterruptHandler
    _EUSART1_Initialize->_EUSART1_SetErrorHandler
    _EUSART1_Initialize->_EUSART1_SetFramingErrorHandler
    _EUSART1_Initialize->_EUSART1_SetOverrunErrorHandler
    _ECAN_Initialize->_ECAN_SetWakeUpInterruptHandler
    _LCD->_EUSART1_Write
    _CAN_transmit->_convertCANid2Reg

Critical Paths under _INTERRUPT_InterruptManager in COMRAM

    None.

Critical Paths under _main in BANK0

    _mesure->_temperature

Critical Paths under _INTERRUPT_InterruptManager in BANK0

    None.

Critical Paths under _main in BANK1

    None.

Critical Paths under _INTERRUPT_InterruptManager in BANK1

    None.

Critical Paths under _main in BANK2

    None.

Critical Paths under _INTERRUPT_InterruptManager in BANK2

    None.

Critical Paths under _main in BANK3

    None.

Critical Paths under _INTERRUPT_InterruptManager in BANK3

    None.

Critical Paths under _main in BANK4

    None.

Critical Paths under _INTERRUPT_InterruptManager in BANK4

    None.

Critical Paths under _main in BANK5

    None.

Critical Paths under _INTERRUPT_InterruptManager in BANK5

    None.

Critical Paths under _main in BANK6

    None.

Critical Paths under _INTERRUPT_InterruptManager in BANK6

    None.

Critical Paths under _main in BANK7

    None.

Critical Paths under _INTERRUPT_InterruptManager in BANK7

    None.

Critical Paths under _main in BANK8

    None.

Critical Paths under _INTERRUPT_InterruptManager in BANK8

    None.

Critical Paths under _main in BANK9

    None.

Critical Paths under _INTERRUPT_InterruptManager in BANK9

    None.

Critical Paths under _main in BANK10

    None.

Critical Paths under _INTERRUPT_InterruptManager in BANK10

    None.

Critical Paths under _main in BANK11

    None.

Critical Paths under _INTERRUPT_InterruptManager in BANK11

    None.

Critical Paths under _main in BANK12

    None.

Critical Paths under _INTERRUPT_InterruptManager in BANK12

    None.

Critical Paths under _main in BANK13

    None.

Critical Paths under _INTERRUPT_InterruptManager in BANK13

    None.

Critical Paths under _main in BANK14

    None.

Critical Paths under _INTERRUPT_InterruptManager in BANK14

    None.

Call Graph Tables:

 ---------------------------------------------------------------------------------
 (Depth) Function   	        Calls       Base Space   Used Autos Params    Refs
 ---------------------------------------------------------------------------------
 (0) _main                                                 3     3      0   21894
               _CAN_messagesInBuffer
                       _CAN_transmit
                                _LCD
                  _SYSTEM_Initialize
                    _TMR0_Initialize
           _TMR0_SetInterruptHandler
                     _controle_seuil
                             _mesure
                             _printf
                          _reception
 ---------------------------------------------------------------------------------
 (1) _reception                                            2     2      0    1746
                        _CAN_receive
 ---------------------------------------------------------------------------------
 (2) _CAN_receive                                          3     1      2    1744
                                             21 COMRAM     2     0      2
           _convertReg2ExtendedCANid
           _convertReg2StandardCANid
 ---------------------------------------------------------------------------------
 (3) _convertReg2StandardCANid                            15    11      4     266
                                              2 COMRAM    15    11      4
 ---------------------------------------------------------------------------------
 (3) _convertReg2ExtendedCANid                            19    15      4     821
                                              2 COMRAM    19    15      4
 ---------------------------------------------------------------------------------
 (1) _printf                                               6     4      2    1519
                                             27 COMRAM     4     2      2
                           _vfprintf
 ---------------------------------------------------------------------------------
 (2) _vfprintf                                             8     2      6    1315
                                             19 COMRAM     8     2      6
                          _vfpfcnvrt
 ---------------------------------------------------------------------------------
 (3) _vfpfcnvrt                                           22    16      6     968
                                             13 COMRAM     6     0      6
                              _fputc
 ---------------------------------------------------------------------------------
 (4) _fputc                                                9     5      4     608
                                              4 COMRAM     9     5      4
                              _putch
 ---------------------------------------------------------------------------------
 (5) _putch                                                1     1      0      44
                                              3 COMRAM     1     1      0
                      _EUSART1_Write
 ---------------------------------------------------------------------------------
 (1) _mesure                                               0     0      0    9669
                  _ADC_GetConversion
                            ___fltol
                             ___wmul
                        _temperature
 ---------------------------------------------------------------------------------
 (2) _temperature                                         12     8      4    8803
                                             66 COMRAM     4     0      4
                                              0 BANK0      8     8      0
                            ___fladd
                            ___fldiv
                            ___flmul
                           ___xxtofl
 ---------------------------------------------------------------------------------
 (3) ___xxtofl                                            14    10      4     566
                                              2 COMRAM    14    10      4
 ---------------------------------------------------------------------------------
 (3) ___flmul                                             25    17      8    2513
                                             41 COMRAM    25    17      8
                            ___fldiv (ARG)
                           ___xxtofl (ARG)
 ---------------------------------------------------------------------------------
 (3) ___fldiv                                             25    17      8    2003
                                             16 COMRAM    25    17      8
                           ___xxtofl (ARG)
 ---------------------------------------------------------------------------------
 (2) ___wmul                                               6     2      4     463
                                              2 COMRAM     6     2      4
 ---------------------------------------------------------------------------------
 (2) ___fltol                                             10     6      4     381
                                              2 COMRAM    10     6      4
 ---------------------------------------------------------------------------------
 (2) _ADC_GetConversion                                    5     3      2      22
                                              2 COMRAM     5     3      2
 ---------------------------------------------------------------------------------
 (1) _controle_seuil                                       3     3      0    4626
                             ___flge
                            ___flsub
 ---------------------------------------------------------------------------------
 (2) ___flsub                                              8     0      8    3827
                                             18 COMRAM     8     0      8
                            ___fladd
 ---------------------------------------------------------------------------------
 (3) ___fladd                                             16     8      8    3442
                                              2 COMRAM    16     8      8
 ---------------------------------------------------------------------------------
 (2) ___flge                                              12     4      8     790
                                              2 COMRAM    12     4      8
 ---------------------------------------------------------------------------------
 (1) _SYSTEM_Initialize                                    0     0      0     566
                     _ADC_Initialize
                    _ECAN_Initialize
                   _ECCP1_Initialize
                 _EUSART1_Initialize
               _INTERRUPT_Initialize
              _OSCILLATOR_Initialize
             _PIN_MANAGER_Initialize
                    _TMR0_Initialize
 ---------------------------------------------------------------------------------
 (1) _TMR0_Initialize                                      0     0      0     174
           _TMR0_SetInterruptHandler
 ---------------------------------------------------------------------------------
 (1) _TMR0_SetInterruptHandler                             2     0      2     174
                                              2 COMRAM     2     0      2
 ---------------------------------------------------------------------------------
 (2) _PIN_MANAGER_Initialize                               0     0      0       0
 ---------------------------------------------------------------------------------
 (2) _OSCILLATOR_Initialize                                0     0      0       0
 ---------------------------------------------------------------------------------
 (2) _INTERRUPT_Initialize                                 0     0      0       0
 ---------------------------------------------------------------------------------
 (2) _EUSART1_Initialize                                   0     0      0     294
            _EUSART1_SetErrorHandler
     _EUSART1_SetFramingErrorHandler
     _EUSART1_SetOverrunErrorHandler
 ---------------------------------------------------------------------------------
 (3) _EUSART1_SetOverrunErrorHandler                       2     0      2      98
                                              2 COMRAM     2     0      2
 ---------------------------------------------------------------------------------
 (3) _EUSART1_SetFramingErrorHandler                       2     0      2      98
                                              2 COMRAM     2     0      2
 ---------------------------------------------------------------------------------
 (3) _EUSART1_SetErrorHandler                              2     0      2      98
                                              2 COMRAM     2     0      2
 ---------------------------------------------------------------------------------
 (2) _ECCP1_Initialize                                     0     0      0       0
 ---------------------------------------------------------------------------------
 (2) _ECAN_Initialize                                      1     1      0      98
                                              4 COMRAM     1     1      0
     _ECAN_SetWakeUpInterruptHandler
 ---------------------------------------------------------------------------------
 (3) _ECAN_SetWakeUpInterruptHandler                       2     0      2      98
                                              2 COMRAM     2     0      2
 ---------------------------------------------------------------------------------
 (2) _ADC_Initialize                                       0     0      0       0
 ---------------------------------------------------------------------------------
 (1) _LCD                                                  0     0      0      22
                      _EUSART1_Write
 ---------------------------------------------------------------------------------
 (6) _EUSART1_Write                                        1     1      0      22
                                              2 COMRAM     1     1      0
 ---------------------------------------------------------------------------------
 (1) _CAN_transmit                                         7     5      2    3364
                                             20 COMRAM     6     4      2
                   _convertCANid2Reg
 ---------------------------------------------------------------------------------
 (2) _convertCANid2Reg                                    18     5     13    1928
                                              2 COMRAM    18     5     13
 ---------------------------------------------------------------------------------
 (1) _CAN_messagesInBuffer                                 1     1      0      25
                                              2 COMRAM     1     1      0
 ---------------------------------------------------------------------------------
 Estimated maximum stack depth 6
 ---------------------------------------------------------------------------------
 (Depth) Function   	        Calls       Base Space   Used Autos Params    Refs
 ---------------------------------------------------------------------------------
 (7) _INTERRUPT_InterruptManager                           2     2      0       0
                                              0 COMRAM     2     2      0
                      _ECAN_WAKI_ISR
                           _TMR0_ISR
 ---------------------------------------------------------------------------------
 (8) _TMR0_ISR                                             0     0      0       0
                      _TMR0_CallBack
 ---------------------------------------------------------------------------------
 (9) _TMR0_CallBack                                        0     0      0       0
                   Absolute function *
       _TMR0_DefaultInterruptHandler *
                       _interruption *
 ---------------------------------------------------------------------------------
 (10) _interruption                                        0     0      0       0
 ---------------------------------------------------------------------------------
 (10) _TMR0_DefaultInterruptHandler                        0     0      0       0
 ---------------------------------------------------------------------------------
 (8) _ECAN_WAKI_ISR                                        0     0      0       0
                   Absolute function *
      _WakeUpDefaultInterruptHandler *
 ---------------------------------------------------------------------------------
 (9) _WakeUpDefaultInterruptHandler                        0     0      0       0
 ---------------------------------------------------------------------------------
 (10) Absolute function(Fake)                              0     0      0       0
 ---------------------------------------------------------------------------------
 Estimated maximum stack depth 10
 ---------------------------------------------------------------------------------

 Call Graph Graphs:

 _main (ROOT)
   _CAN_messagesInBuffer
   _CAN_transmit
     _convertCANid2Reg
   _LCD
     _EUSART1_Write
   _SYSTEM_Initialize
     _ADC_Initialize
     _ECAN_Initialize
       _ECAN_SetWakeUpInterruptHandler
     _ECCP1_Initialize
     _EUSART1_Initialize
       _EUSART1_SetErrorHandler
       _EUSART1_SetFramingErrorHandler
       _EUSART1_SetOverrunErrorHandler
     _INTERRUPT_Initialize
     _OSCILLATOR_Initialize
     _PIN_MANAGER_Initialize
     _TMR0_Initialize
       _TMR0_SetInterruptHandler
   _TMR0_Initialize
   _TMR0_SetInterruptHandler
   _controle_seuil
     ___flge
     ___flsub
       ___fladd
   _mesure
     _ADC_GetConversion
     ___fltol
     ___wmul
     _temperature
       ___fladd
       ___fldiv
         ___xxtofl (ARG)
       ___flmul
         ___fldiv (ARG)
         ___xxtofl (ARG)
       ___xxtofl
   _printf
     _vfprintf
       _vfpfcnvrt
         _fputc
           _putch
             _EUSART1_Write
   _reception
     _CAN_receive
       _convertReg2ExtendedCANid
       _convertReg2StandardCANid

 _INTERRUPT_InterruptManager (ROOT)
   _ECAN_WAKI_ISR
     Absolute function(Fake) *
     _WakeUpDefaultInterruptHandler *
   _TMR0_ISR
     _TMR0_CallBack
       Absolute function(Fake) *
       _TMR0_DefaultInterruptHandler *
       _interruption *

 Address spaces:
Name               Size   Autos  Total    Cost      Usage
BIGRAM             E40      0       0      57        0.0%
EEDATA             400      0       0       0        0.0%
BITBANK13          100      0       0      54        0.0%
BANK13             100      0       0      23        0.0%
BITBANK12          100      0       0      21        0.0%
BANK12             100      0       0      22        0.0%
BITBANK11          100      0       0      53        0.0%
BANK11             100      0       0      20        0.0%
BITBANK10          100      0       0      52        0.0%
BANK10             100      0       0      19        0.0%
BITBANK9           100      0       0      51        0.0%
BANK9              100      0       0      18        0.0%
BITBANK8           100      0       0      50        0.0%
BANK8              100      0       0      17        0.0%
BITBANK7           100      0       0      49        0.0%
BANK7              100      0       0      16        0.0%
BITBANK6           100      0       0      48        0.0%
BANK6              100      0       0      15        0.0%
BITBANK5           100      0       0      47        0.0%
BANK5              100      0       0      14        0.0%
BITBANK4           100      0       0      12        0.0%
BANK4              100      0       0      13        0.0%
BITBANK3           100      0       0      10        0.0%
BANK3              100      0       0      11        0.0%
BITBANK2           100      0       0       8        0.0%
BANK2              100      0       0       9        0.0%
BITBANK1           100      0       0       6        0.0%
BANK1              100      0       0       7        0.0%
BITBANK0            A0      0       0       4        0.0%
BANK0               A0      8      68       5       65.0%
BITBIGSFRlllllh     9A      0       0      44        0.0%
BITCOMRAM           5E      0       0       0        0.0%
COMRAM              5E     46      56       1       91.5%
BITBANK14           41      0       0      55        0.0%
BANK14              41      0       0      56        0.0%
BITBIGSFRlhhhhl     1D      0       0      40        0.0%
BITBIGSFRhhhhlh     19      0       0      25        0.0%
BITBIGSFRhhhhh       D      0       0      24        0.0%
BITBIGSFRhhhlhh      B      0       0      28        0.0%
BITBIGSFRhhhllh      B      0       0      36        0.0%
BITBIGSFRhhhlhh      B      0       0      30        0.0%
BITBIGSFRhhhlhl      8      0       0      32        0.0%
BITBIGSFRhhhllh      6      0       0      35        0.0%
BITBIGSFRhhhllh      5      0       0      34        0.0%
BITBIGSFRhhhlll      5      0       0      37        0.0%
BITBIGSFRhhhlhh      3      0       0      31        0.0%
BITBIGSFRhhl         3      0       0      38        0.0%
BITBIGSFRhhhlhh      2      0       0      29        0.0%
BITBIGSFRlhhhhl      2      0       0      39        0.0%
BITBIGSFRhhhlhl      2      0       0      33        0.0%
BITBIGSFRlhhllh      2      0       0      43        0.0%
BITBIGSFRlhhlhh      2      0       0      42        0.0%
BITBIGSFRlhhhhl      2      0       0      41        0.0%
BITBIGSFRllllll      2      0       0      45        0.0%
BITBIGSFRhhhlhh      1      0       0      27        0.0%
BITBIGSFRhhhhll      1      0       0      26        0.0%
BIGSFR               0      0       0     200        0.0%
BITSFR_2             0      0       0     200        0.0%
SFR_2                0      0       0     200        0.0%
BITSFR_1             0      0       0     200        0.0%
SFR_1                0      0       0     200        0.0%
BITSFR               0      0       0     200        0.0%
SFR                  0      0       0     200        0.0%
STACK                0      0       0       2        0.0%
NULL                 0      0       0       0        0.0%
ABS                  0      0      BE      46        0.0%
DATA                 0      0      BE       3        0.0%
CODE                 0      0       0       0        0.0%


Microchip Technology PIC18 Macro Assembler V2.40 build 20220703182018 
Symbol Table                                                                                   Thu Sep 29 10:24:10 2022

                                     ___fldiv@aexp 0029                                       ___fldiv@bexp 0028  
                                     ___fldiv@sign 0021                                ___wmul@multiplicand 0005  
                                  _timer0ReloadVal 0056                                                l301 3272  
                                              l401 3204                                                l410 3240  
                                              l331 31A8                                                l260 1FB2  
                                              l404 3216                                                l246 2BB6  
                                              l422 325E                                                l334 3228  
                                              l270 21FC                                                l255 1DAE  
                                              l263 20D6                                                l256 1FB2  
                                              l257 1EB0                                                l425 3254  
                                              l505 31CA                                                l290 27C0  
                                              l275 3114                                                l428 3268  
                                              l453 30EA                                                l533 324A  
                                              l293 2ECA                                                l471 327C  
                                              l711 28CE                                                l377 2FFC  
                                              l705 2894                                                l298 2524  
                                              l570 3036                                                l555 3200  
                                              l715 28D2                                                l582 3236  
                                              l718 3186                                                l567 3016  
                                              l655 2580                                                l667 267C  
                                              l676 30C0                                                l692 2C8C  
                                              l684 2F22                                                l695 2D3C  
                                              l689 2F2A                                                l699 285A  
                                              l983 2A96                                                l988 2ADC  
                                              _LCD 3096              ECAN_SetWakeUpInterruptHandler@handler 0003  
                                              tosl 000FFD                                                wreg 000FE8  
                                       _TXSTA1bits 000FAC                                       ___flmul@aexp 0037  
                                     ___flmul@bexp 003C                                       ___flmul@sign 0036  
                                     ___flmul@temp 0041                                       ___flmul@prod 003D  
                       ??_convertReg2StandardCANid 0007                                               ?_LCD 0001  
                                     ___fltol@exp1 000C                                    _uT_consigne_ADC 0094  
                                             l1015 29D8                                               l1300 1C98  
                                             l1302 1AF8                                               l1311 1B3E  
                                  _uT_consigne_CAN 004D                                               l1313 1BB6  
                                             l1305 1ABC                                               l1314 1BA4  
                                             l1332 159A                                               l1341 1808  
                                             l1246 1204                                               l1342 17F6  
                                             l1422 2E52                                               l1263 131E  
                                             l1255 14D4                                               l1247 11F2  
                                             l1272 13EE                                               l1248 11B8  
                                             l1336 18FE                                               l1440 2DD2  
                                             l1273 13DC                                               l4002 13FE  
                                             l4010 1454                                               l1339 1790  
                                             l3300 2B9C                                               l4020 14A6  
                                             l4012 1464                                               l4004 140A  
                                             l4100 1A80                                               l1380 22EC  
                                             l1428 2F78                                               l1349 18C0  
                                             l1373 2254                                               l3310 23D0  
                                             l3302 2BA0                                               l4030 14C4  
                                             l4022 14AC                                               l4014 1474  
                                             l4006 1418                                               l4110 1AC6  
                                             l4102 1A88                                               l3320 2478  
                                             l3312 23FE                                               l3304 23B2  
                                             l4024 14AE                                               l4016 1494  
                                             l4008 1452                                               l1288 2FBE  
                                             l4120 1B1E                                               l4112 1AE4  
                                             l4104 1A98                                               l4040 191C  
                                             l4200 1574                                               l1376 23B0  
                                             l3400 21E4                                               l3330 24E2  
                                             l3322 247E                                               l3314 2438  
                                             l3306 23B2                                               l3410 30C2  
                                             l4026 14B4                                               l4018 1498  
                                             l4130 1B5C                                               l4122 1B24  
                                             l4114 1AE6                                               l4106 1AAC  
                                             l4042 192C                                               l4050 1956  
                                             l4034 1900                                               l4202 1584  
                                             l3402 21F4                                               l1387 2348  
                                             l3332 2514                                               l3324 248C  
                                             l3316 243E                                               l3308 23C4  
                                             l3412 30E8                                               l3420 31AA  
                                             l4028 14C2                                               l4140 1BC6  
                                             l4132 1B60                                               l4124 1B2E  
                                             l4116 1AF6                                               l4108 1ABA  
                                             l4060 1982                                               l4052 1966  
                                             l4044 193C                                               l4036 190C  
                                             l4220 1606                                               l4212 15CE  
                                             l4204 158A                                               l2700 2D8A  
                                             l1396 3160                                               l3340 1FB4  
                                             l3326 24BA                                               l3318 2470  
                                             l3430 2FC0                                               l3414 3218  
                                             l3422 31B6                                               l3510 293E  
                                             l3502 28FE                                               l4150 1C28  
                                             l4142 1BD2                                               l4134 1B6E  
                                             l4126 1B3C                                               l4118 1B08  
                                             l4062 1992                                               l4070 19BC  
                                             l4054 196C                                               l4046 194C  
                                             l4038 191A                                               l4230 1650  
                                             l4222 161E                                               l4214 15DA  
                                             l4206 15AA                                               l4310 227A  
                                             l4302 2200                                               l2702 2DC0  
                                             l3270 2DD4                                               l2710 269A  
                                             l3350 201A                                               l3342 1FC2  
                                             l3328 24CA                                               l3600 1E3A  
                                             l3416 322A                                               l3432 2FD4  
                                             l3408 327A                                               l3424 31B8  
                                             l3520 296E                                               l3512 294C  
                                             l3504 2928                                               l4160 1C86  
                                             l4152 1C3E                                               l4144 1BE0  
                                             l4136 1B9C                                               l4128 1B4E  
                                             l4080 19FE                                               l4072 19CC  
                                             l4064 19A2                                               l4056 1972  
                                             l4048 194E                                               l4240 16A6  
                                             l4232 1660                                               l4224 162A  
                                             l4216 15E4                                               l4208 15BA  
                                             l4320 22D4                                               l4304 2210  
                                             l3272 2DF8                                               l2720 271C  
                                             l2712 26A0                                               l3360 2080  
                                             l3352 2040                                               l3344 1FD0  
                                             l4400 2530                                               l3610 1E8A  
                                             l3602 1E4A                                               l3418 31EC  
                                             l2706 326A                                               l3290 2AE2  
                                             l3434 2FE0                                               l3426 31BA  
                                             l3450 3024                                               l3530 2998  
                                             l3522 2978                                               l3506 292A  
                                             l4162 1C8C                                               l4154 1C58  
                                             l4146 1C0A                                               l4074 19E2  
                                             l4066 19B2                                               l4058 1980  
                                             l4250 174A                                               l4242 16C2  
                                             l4234 166C                                               l4226 1636  
                                             l4218 15FA                                               l4330 2338  
                                             l4322 22D6                                               l4314 228E  
                                             l4306 221E                                               l3274 2E06  
                                             l3282 2E2A                                               l2722 2752  
                                             l2714 26A8                                               l3370 20D0  
                                             l3362 2090                                               l3354 2050  
                                             l3346 1FDC                                               l3338 1FB4  
                                             l4410 254C                                               l4402 253E  
                                             l3620 1F0A                                               l3612 1E9A  
                                             l3604 1E5A                                               l3292 2AF6  
                                             l3436 2FEC                                               l3428 31C6  
                                             l3444 3000                                               l3532 29A8  
                                             l3508 293A                                               l4164 1C8E  
                                             l4156 1C74                                               l4148 1C0E  
                                             l4092 1A36                                               l4076 19F2  
                                             l4084 1A12                                               l4068 19B4  
                                             l4260 17A0                                               l4252 1758  
                                             l4244 16CE                                               l4236 167C  
                                             l4228 1644                                               l4180 1502  
                                             l4172 14D6                                               l4340 2390  
                                             l4332 2356                                               l4324 22E2  
                                             l4316 2296                                               l4308 2264  
                                             l3276 2E14                                               l3540 2F2C  
                                             l2724 276A                                               l2716 26D2  
                                             l2708 268A                                               l2740 2EBA  
                                             l2732 2E56                                               l3380 2132  
                                             l3372 20D2                                               l3364 20A0  
                                             l3356 2060                                               l3348 200E  
                                             l4420 2568                                               l4412 2550  
                                             l4404 2542                                               l3630 1F2C  
                                             l3622 1F0E                                               l3614 1EAA  
                                             l3606 1E6A                                               l3550 1C9A  
                                             l3294 2B8C                                               l3438 2FF8  
                                             l2750 3242                                               l3446 3012  
                                             l3534 29B8                                               l3518 2964  
                                             l3462 3162                                               l4158 1C78  
                                             l4094 1A50                                               l4086 1A22  
                                             l4078 19FA                                               l4262 17AE  
                                             l4254 1776                                               l4246 16EA  
                                             l4238 1696                                               l4190 153E  
                                             l4182 1512                                               l4174 14E2  
                                             l4342 239E                                               l4334 2358  
                                             l4326 231E                                               l4318 22A2  
                                             l4350 2CF8                                               l3278 2E18  
                                             l3542 2F38                                               l2726 27A0  
                                             l2718 26EA                                               l2734 2E56  
                                             l3390 2194                                               l3382 213E  
                                             l3374 20E6                                               l3366 20B0  
                                             l3358 2070                                               l3710 2F0C  
                                             l3702 2ECC                                               l4430 25A8  
                                             l4422 2582                                               l4414 2554  
                                             l4406 2542                                               l3640 1F7C  
                                             l3632 1F3C                                               l3624 1F12  
                                             l3608 1E7A                                               l3560 1D0E  
                                             l3552 1CAA                                               l3296 2B98  
                                             l3288 2ADE                                               l2744 3256  
                                             l3480 2A46                                               l3448 3014  
                                             l3536 29C8                                               l3528 298C  
                                             l3464 317E                                               l4096 1A60  
                                             l4088 1A22                                               l4272 1818  
                                             l4280 1860                                               l4264 17B2  
                                             l4256 1780                                               l4248 1714  
                                             l4192 1544                                               l4184 1522  
                                             l4176 14F0                                               l4344 23A0  
                                             l4336 235C                                               l4328 232A  
                                             l4352 2D2C                                               l3544 2F54  
                                             l2728 27B0                                               l2736 2E80  
                                             l3392 21A4                                               l3384 2164  
                                             l3376 20F4                                               l3368 20C0  
                                             l3712 2F24                                               l3704 2ED8  
                                             l4440 25F2                                               l4432 25AC  
                                             l4424 2582                                               l4416 2560  
                                             l4408 2548                                               l3642 1F8C  
                                             l3634 1F4C                                               l3626 1F16  
                                             l3618 1EBE                                               l3570 1D48  
                                             l3562 1D12                                               l3554 1CBA  
                                             l3298 2B9A                                               l2746 324C  
                                             l3490 2AD4                                               l3482 2A56  
                                             l3474 29DA                                               l4098 1A70  
                                             l4290 18D4                                               l4282 187A  
                                             l4274 1824                                               l4266 17C0  
                                             l4258 178E                                               l4194 1552  
                                             l4186 1528                                               l4178 14F2  
                                             l4338 2380                                               l4370 2C60  
                                             l4362 2BB8                                               l2690 323A  
                                             l3546 2F70                                               l2738 2EAA  
                                             l3394 21B4                                               l3386 2174  
                                             l3378 2100                                               l3714 2F24  
                                             l3706 2EE8                                               l4450 2638  
                                             l4442 25FA                                               l4434 25C4  
                                             l4426 2588                                               l4418 2564  
                                             l3660 3110                                               l3652 30EC  
                                             l3644 1F9C                                               l3636 1F5C  
                                             l3628 1F1A                                               l3580 1D98  
                                             l3572 1D58                                               l3564 1D16  
                                             l3556 1D06                                               l2748 3260  
                                             l3492 2ADA                                               l3484 2A64  
                                             l3476 2A08                                               l3900 1142  
                                             l4356 2F7A                                               l4380 285C  
                                             l4292 18E2                                               l4284 188E  
                                             l4276 1832                                               l4268 17EE  
                                             l4196 1554                                               l4188 1538  
                                             l4348 2C8E                                               l4372 2C68  
                                             l4364 2BD4                                               l2692 2D3E  
                                             l3396 21C4                                               l3388 2184  
                                             l3716 2F2A                                               l3708 2EF4  
                                             l4460 267E                                               l4452 2644  
                                             l4444 2606                                               l4436 25C8  
                                             l4428 2594                                               l3662 3112  
                                             l3654 30F0                                               l3646 1FAC  
                                             l3638 1F6C                                               l3590 1E0C  
                                             l3582 1DA8                                               l3574 1D68  
                                             l3566 1D28                                               l3558 1D0A  
                                             l2686 3204                                               l3670 3188  
                                             l3486 2A76                                               l3478 2A18  
                                             l3902 1146                                               l3910 1156  
                                             l4358 2F8A                                               l4390 289C  
                                             l4382 285C                                               l4294 18E4  
                                             l4286 18A8                                               l4278 185C  
                                             l4198 1564                                               l4374 2C84  
                                             l4366 2BF0                                               l2694 2D50  
                                             l3398 21D4                                               l4462 267E  
                                             l4454 2658                                               l4446 261A  
                                             l4438 25DC                                               l3656 30FE  
                                             l3592 1E10                                               l3584 1DAA  
                                             l3576 1D78                                               l3568 1D38  
                                             l2688 3212                                               l3680 319C  
                                             l3672 318C                                               l3488 2A84  
                                             l3920 11C6                                               l3912 115A  
                                             l3904 114A                                               l3840 1042  
                                             l3832 1016                                               l4392 28D0  
                                             l4384 2862                                               l4376 27C2  
                                             l3496 28D4                                               l4288 18C4  
                                             l4296 18EA                                               l4368 2C44  
                                             l2696 2D62                                               l4456 265C  
                                             l4448 2630                                               l3658 3100  
                                             l3594 1E14                                               l3586 1DBC  
                                             l3578 1D88                                               l3682 31A0  
                                             l3674 3190                                               l3930 11F0  
                                             l3922 11D2                                               l3914 1184  
                                             l3906 114E                                               l3850 107C  
                                             l3842 1052                                               l3834 1022  
                                             l4394 28D0                                               l4386 2896  
                                             l4378 2828                                               l3498 28EA  
                                             l4298 18EE                                               l2698 2D6C  
                                             l4458 2664                                               l3596 1E18  
                                             l3588 1E08                                               l3684 31A4  
                                             l3676 3194                                               l3940 1246  
                                             l3932 1212                                               l3924 11D6  
                                             l3916 11A0                                               l3908 1152  
                                             l3860 10AA                                               l3852 1082  
                                             l3844 1062                                               l3836 1030  
                                             l4388 2896                                               l4396 2526  
                                             l3598 1E2A                                               l3694 3096  
                                             l3678 3198                                               l3950 1280  
                                             l3942 1254                                               l3934 1222  
                                             l3926 11E4                                               l3918 11B0  
                                             l3870 10DE                                               l3862 10AC  
                                             l3854 1094                                               l3846 1064  
                                             l3838 1032                                               l4398 252E  
                                             l3960 12EC                                               l3952 1282  
                                             l3944 1262                                               l3928 11E6  
                                             l3880 111A                                               l3864 10BC  
                                             l3872 10E6                                               l3856 1096  
                                             l3848 106C                                               l3696 313C  
                                             l3970 1344                                               l3962 12EE  
                                             l3954 128C                                               l3946 126E  
                                             l3938 1236                                               l3890 112E  
                                             l3882 111E                                               l3874 10F6  
                                             l3866 10CC                                               l3858 109C  
                                             l3698 3144                                               l3980 1372  
                                             l3964 12FE                                               l3948 1272  
                                             l3956 1292                                               l3892 1132  
                                             l3884 1122                                               l3876 1108  
                                             l3868 10DC                                               l3982 1380  
                                             l3974 1358                                               l3990 139E  
                                             l3958 12B8                                               l3966 130E  
                                             l3894 1136                                               l3886 1126  
                                             l3878 1116                                               l3984 1388  
                                             l3976 1362                                               l3968 1334  
                                             l3992 13AC                                               l3896 113A  
                                             l3888 112A                                               l3994 13B0  
                                             l3986 138C                                               l3978 1370  
                                             l3898 113E                                               l3996 13BE  
                                             l3988 139C                                               l3998 13D4  
                                             STR_1 1001                                               STR_2 100C  
                                             u3100 1094                                               u3101 1090  
                                             _LATA 000F89                                               u3110 10AA  
                                             _LATB 000F8A                                               u3111 10A6  
                                             _LATC 000F8B                                               u3200 11E4  
                                             u3120 10BC                                               u4000 2894  
                                             u1600 2D62                                               u3201 11E0  
                                             u3121 10B8                                               u4001 2890  
                                             u1601 2D5E                                               u3210 1204  
                                             u3130 10CC                                               u4010 28CE  
                                             u1610 2D8A                                               u3211 1200  
                                             u3131 10C8                                               u4011 28CA  
                                             u1611 2D86                                               u3300 1344  
                                             u3220 1212                                               u3140 1108  
                                             u1620 2DC0                                               u4020 2580  
                                             u3301 1340                                               u3221 120E  
                                             u3141 1104                                               u1621 2DBC  
                                             u4021 257C                                               u3310 1370  
                                             u3230 1222                                               u3150 1116  
                                             u3070 1030                                               u4030 25A8  
                                             u3311 136C                                               u3231 121E  
                                             u3151 1112                                               u3071 102C  
                                             u4031 25A4                                               u3400 1452  
                                             u3320 1380                                               u3240 1254  
                                             u3160 1184                                               u3080 1042  
                                             u4040 25C4                                               u3401 144E  
                                             u3321 137C                                               u3241 1250  
                                             u3161 1180                                               u3081 103E  
                                             u4041 25C0                                               u3410 1464  
                                             u3330 139C                                               u3250 1262  
                                             u3170 119C                                               u3090 1052  
                                             u4050 25DC                                               u3411 1460  
                                             u3331 1398                                               u3251 125E  
                                             u3171 1196                                               u3091 104E  
                                             u1635 26FC                                               u4051 25D8  
                                             u1580 3212                                               u2700 2A46  
                                             u3420 1474                                               u3340 13AC  
                                             u3260 1280                                               u3180 119E  
                                             u3500 1992                                               u2620 1FC2  
                                             u4060 261A                                               u2605 2450  
                                             u1581 320E                                               u2701 2A42  
                                             u3421 1470                                               u3341 13A8  
                                             u3261 127C                                               u3501 198E  
                                             u1645 2E88                                               u2621 1FBE  
                                             u4061 2616                                               u2710 2A64  
                                             u3430 1494                                               u3350 13BE  
                                             u3270 12B8                                               u3190 11C6  
                                             u3510 19A2                                               u1590 2D50  
                                             u2630 1FD0                                               u4070 2658  
                                             u2615 24F4                                               u2711 2A60  
                                             u3431 1490                                               u3351 13BA  
                                             u3271 12B4                                               u3191 11C2  
                                             u3511 199E                                               u1591 2D4C  
                                             u2631 1FCC                                               u4071 2654  
                                             u2720 2A84                                               u3440 14A6  
                                             u3360 13D4                                               u3280 12FE  
                                             u2800 29B8                                               u3600 1B5C  
                                             u3520 19E2                                               u2560 2DF8  
                                             u2640 20E6                                               u4080 267C  
                                             u2721 2A80                                               u3441 14A2  
                                             u3361 13D0                                               u3281 12FA  
                                             u2801 29B4                                               u3601 1B58  
                                             u3521 19DE                                               u2561 2DF4  
                                             u2641 20E2                                               u4081 2678  
                                             u2570 2AF6                                               u2730 2AD4  
                                             u3450 14C2                                               u3370 13EA  
                                             u3290 1334                                               u3610 1B6E  
                                             u3530 1A22                                               u2810 2F70  
                                             u2650 20F4                                               u2571 2AF2  
                                             u2731 2AD0                                               u3451 14BE  
                                             u3371 13E6                                               u3291 1330  
                                             u3611 1B6A                                               u3531 1A1E  
                                             u2811 2F6C                                               u2651 20F0  
                                             u2820 1CBA                                               u2580 2BB6  
                                             u3380 13FE                                               u2740 28EA  
                                             u3620 1B9C                                               u3540 1A98  
                                             u3460 191A                                               u3700 1502  
                                             u2900 2F22                                               u2821 1CB6  
                                             u2581 2BB2                                               u3381 13FA  
                                             u2741 28E6                                               u3621 1B98  
                                             u3541 1A94                                               u3461 1916  
                                             u3701 14FE                                               u2901 2F1E  
                                             u2590 23C4                                               u2830 1DBC  
                                             u3390 1418                                               u2750 291E  
                                             u3630 1BB2                                               u3550 1ABA  
                                             u3470 192C                                               u3710 1512  
                                             u2591 23C0                                               u2831 1DB8  
                                             u3391 1414                                               u3631 1BAE  
                                             u3551 1AB6                                               u3471 1928  
                                             u3711 150E                                               u2840 1EBE  
                                             u2680 3024                                               u2760 294C  
                                             u3640 1BC6                                               u3560 1AE4  
                                             u3480 193C                                               u3800 17C0  
                                             u3720 1552                                               u2841 1EBA  
                                             u2681 3020                                               u2761 2948  
                                             u3641 1BC2                                               u3561 1AE0  
                                             u3481 1938                                               u3801 17BC  
                                             u3721 154E                                               u2850 30FE  
                                             u2690 2A08                                               u2770 2960  
                                             u3650 1BE0                                               u3570 1B08  
                                             u3490 1980                                               u3810 17EE  
                                             u3730 1564                                               u2851 30FA  
                                             u2691 2A04                                               u2771 295C  
                                             u2755 2914                                               u3651 1BDC  
                                             u3571 1B04                                               u3491 197C  
                                             u3811 17EA                                               u3731 1560  
                                             u2860 3110                                               u2780 2988  
                                             u3660 1C28                                               u3580 1B1E  
                                             u3820 1804                                               u3740 1574  
                                             u3900 227A                                               u2861 310C  
                                             u2781 2984                                               u3661 1C24  
                                             u3581 1B1A                                               u3821 1800  
                                             u3741 1570                                               u3901 2276  
                                             u2790 29A8                                               u3670 1C58  
                                             u3590 1B3C                                               u3830 1818  
                                             u3750 15AA                                               u3910 22D0  
                                             u2791 29A4                                               u3671 1C54  
                                             u3591 1B38                                               u3831 1814  
                                             u3751 15A6                                               u3911 22CC  
                                             u3680 1C86                                               u3840 1832  
                                             u3760 15BA                                               u3920 231A  
                                             u3681 1C82                                               u3841 182E  
                                             u3761 15B6                                               u3921 2316  
                                             u3850 187A                                               u3770 1734  
                                             u3690 14F0                                               u3930 2338  
                                             u2890 2F0C                                               u3851 1876  
                                             u3691 14EC                                               u3931 2334  
                                             u2891 2F08                                               u3860 18A8  
                                             u3780 178E                                               u3940 2348  
                                             u3861 18A4                                               u3781 178A  
                                             u3941 2344                                               u3870 18E2  
                                             u3790 17AE                                               u3950 2356  
                                             u3871 18DE                                               u3791 17AA  
                                             u3775 172A                                               u3951 2352  
                                             u3960 2390                                               u3880 2210  
                                             u3961 238C                                               u3881 220C  
                                             u3970 239E                                               u3890 221E  
                                             u3971 239A                                               u3891 221A  
                                             u3980 2828                                               u3981 2824  
                                             u3990 285A                                               u3991 2856  
                                             _WPUB 000F5B                                      _EUSART1_Write 3202  
                                             _dbuf 0060                                               _main 2526  
                     convertCANid2Reg@passedInEIDH 0008                       convertCANid2Reg@passedInEIDL 000A  
                                             _prec 0092                                               fsr1h 000FE2  
                                             fsr2h 000FDA                                               indf2 000FDF  
                                             fsr1l 000FE1                                               fsr2l 000FD9  
                                             btemp 0057                       convertCANid2Reg@passedInSIDH 000C  
                     convertCANid2Reg@passedInSIDL 000E                                               prodh 000FF4  
                                             prodl 000FF3                                               start 0074  
                                  ___fldiv@new_exp 0022                                       ___param_bank 000000  
                                            ??_LCD 0004                            __end_of_TMR0_Initialize 31CC  
                   ??_TMR0_DefaultInterruptHandler 0001                      __end_of_OSCILLATOR_Initialize 322A  
                                    ___fltol@sign1 000B                                    __end_of___fladd 14D6  
                                            ?_main 0001                                    __end_of___fldiv 1C9A  
                                  __end_of___flmul 1900                                    __end_of___flsub 2FC0  
                                  __end_of___fltol 29DA                                              _T0CON 000FD5  
                                            i2l304 31EA                                              i2l237 3280  
                                            i2l530 3066                                              i2l526 3094  
                                            i2l536 327E                                              i2l481 0068  
                                            i2l482 0068                                              i2l476 0036  
                                            i2l679 3278                                       vfpfcnvrt@fmt 0010  
                                            _TMR0H 000FD7                                              _TMR0L 000FD6  
                                            _TRISA 000F92                                              _TRISB 000F93  
                                            _TRISC 000F94                          ?_TMR0_SetInterruptHandler 0003  
                            CAN_receive@tempCanMsg 0016                                   __end_of_TMR0_ISR 3096  
                             __end_of_CAN_transmit 1FB4                                              _flags 0053  
                                            _fputc 2D3E                                              _width 0090  
                                            _putch 3238                                     ?_EUSART1_Write 0001  
                                            pclath 000FFA                                              pclatu 000FFB  
                                            tablat 000FF5                                              ttemp5 0058  
                                            ttemp6 005B                                              ttemp7 005F  
              convertReg2ExtendedCANid@ConvertedID 0012                                              status 000FD8  
                                            wtemp8 0058                               CAN_transmit@tempEIDH 0017  
                             CAN_transmit@tempEIDL 0018                               CAN_transmit@tempSIDH 0019  
                             CAN_transmit@tempSIDL 001A                 _EUSART1_DefaultFramingErrorHandler 000000  
                                  __initialization 3116                         __end_of_EUSART1_Initialize 2FFE  
                                     __end_of_main 2688                        ?_INTERRUPT_InterruptManager 0001  
                                           ??_main 0047                                      __activetblptr 000002  
                  ??_WakeUpDefaultInterruptHandler 0001                                  ??_ECAN_Initialize 0005  
                                           _ADCON0 000FC2                                             _ADCON1 000FC1  
                                           _ADCON2 000FC0                                             _CANCON 000F6F  
                                           ?_fputc 0005                                             _ADRESH 000FC4  
                                           _ADRESL 000FC3                                             _CCPR1H 000FBD  
                                           _CCPR1L 000FBC                                             _ANCON0 000F5D  
                                           _ANCON1 000F5C                                             _CIOCON 000F70  
                                           ?_putch 0001                                             i2l3440 3038  
                                           i2l3442 304C                                             i2l2752 3274  
                                           i2l3760 0052                                             i2l3752 0012  
                                           i2l3666 31CC                                             i2l3690 3088  
                                           i2l3762 0060                                             i2l3754 0020  
                                           i2l3668 31E8                                             i2l3692 308C  
                                           i2l3756 002E                                             i2l3686 3068  
                                           i2l3758 0044                                             i2l3688 306E  
                                           _RCREG1 000FAE                                             _RCSTA1 000FAB  
                                           _OSCCON 000FD3                                             _RXB0D0 000F66  
                                           _RXB0D1 000F67                                             _RXB0D2 000F68  
                                           _RXB0D3 000F69                                             _RXB1D0 000F36  
                                           _RXB0D4 000F6A                                             _RXB1D1 000F37  
                                           _RXB0D5 000F6B                                             _RXB1D2 000F38  
                                           _RXB0D6 000F6C                                             _RXB1D3 000F39  
                                           _RXB0D7 000F6D                                             _RXB1D4 000F3A  
                                           _RXB1D5 000F3B                                             _RXB1D6 000F3C  
                                           _RXB1D7 000F3D                                             _SPBRG1 000FAF  
                                           _TXB0D0 000F26                                             _TXB0D1 000F27  
                                           _TXB0D2 000F28                                             _TXB0D3 000F29  
                                           _TXB1D0 000F16                                             _TXB0D4 000F2A  
                                           _TXB1D1 000F17                                             _TXB0D5 000F2B  
                                           _TXB1D2 000F18                                             _TXB0D6 000F2C  
                                           _TXB1D3 000F19                                             _TXB0D7 000F2D  
                                           _TXB2D0 000F06                                             _TXB1D4 000F1A  
                                           _TXB2D1 000F07                                             _TXB1D5 000F1B  
                                           _TXB2D2 000F08                                             _TXB1D6 000F1C  
                                           _TXB2D3 000F09                                             _TXB1D7 000F1D  
                                           _TXB2D4 000F0A                                             _TXB2D5 000F0B  
                                           _TXB2D6 000F0C                                             _TXB2D7 000F0D  
                                           _TXREG1 000FAD                                   __end_of___xxtofl 23B2  
                                           _TXSTA1 000FAC                                    fp__interruption 0000  
                                     vfprintf@cfmt 001A                                             ___flge 29DA  
                                        ??___fladd 000B                                             ___wmul 3162  
                                        ??___fldiv 0019                                          ??___flmul 0032  
                                        ??___flsub 001B                                          ??___fltol 0007  
                         ?_EUSART1_SetErrorHandler 0003                                   ?_TMR0_Initialize 0001  
                                           clear_0 311C                                             clear_1 3128  
                                           _itemps 004B                                             _mesure 2BB8  
                                           isa$std 000001                                             _printf 313C  
                                   _controle_seuil 27C2                   ??_EUSART1_SetOverrunErrorHandler 0005  
                  ?_EUSART1_SetOverrunErrorHandler 0003                                             _statue 0054  
                                     ?_temperature 0043                                             fputc@c 0005  
                                     __mediumconst 0000                   __end_of_convertReg2StandardCANid 2ECC  
                                           tblptrh 000FF7                                             tblptrl 000FF6  
                                           tblptru 000FF8                           ADC_GetConversion@channel 0007  
                            __end_of_TMR0_CallBack 3068                                   __end_of_vfprintf 2F7A  
                                  ??_EUSART1_Write 0003           TMR0_SetInterruptHandler@InterruptHandler 0003  
                                ?_ECCP1_Initialize 0001                                         ___flge@ff1 0003  
                                       ___flge@ff2 0007                                       ___xxtofl@arg 000D  
                                     ___xxtofl@exp 000C                                  _SYSTEM_Initialize 3188  
                                     ___xxtofl@val 0003                                 ??_ECCP1_Initialize 0003  
                                       __accesstop 0060                            __end_of__initialization 312E  
                               ?_SYSTEM_Initialize 0001                           _convertReg2ExtendedCANid 2688  
                                    ___rparam_used 000001                                         ___fltol@f1 0003  
                                   __pcstackCOMRAM 0001                                ??_SYSTEM_Initialize 0006  
                                    ?_interruption 0001                                          ?_TMR0_ISR 0001  
                                    __end_of_fputc 2DD4                             __end_of_controle_seuil 28D4  
                                    __end_of_putch 3242                              TMR0_ISR@CountCallBack 0051  
                                    _ECAN_WAKI_ISR 31CC              convertReg2StandardCANid@tempRXBn_SIDH 0009  
            convertReg2StandardCANid@tempRXBn_SIDL 0003                                            ??_fputc 0009  
                        __end_of_SYSTEM_Initialize 31AA                                 temperature@uibrute 0043  
                                          ??_putch 0004                                         __pbssBANK0 0060  
            __end_of_WakeUpDefaultInterruptHandler 3282                      _WakeUpDefaultInterruptHandler 3280  
                     __end_of_CAN_messagesInBuffer 3116                                         __pnvCOMRAM 0056  
                  __end_of_EUSART1_SetErrorHandler 326A                                     ??_interruption 0001  
                                          ?___flge 0003                   __end_of_TMR0_SetInterruptHandler 324C  
                                     _CAN_transmit 1C9A                                            ?___wmul 0003  
                                       ??_TMR0_ISR 0001                                    ?_controle_seuil 0001  
                                          _CCP1CON 000FBB                                            _ECANCON 000F72  
                                          ?_mesure 0001                                            _CANSTAT 000F6E  
                 ??_ECAN_SetWakeUpInterruptHandler 0005                    ?_ECAN_SetWakeUpInterruptHandler 0003  
                                          ?_printf 001C                                            _BRGCON1 000E43  
                                          _BRGCON2 000E44                                            _BRGCON3 000E45  
           __end_of_EUSART1_SetFramingErrorHandler 3260                     _EUSART1_SetFramingErrorHandler 3256  
                                        ?___xxtofl 0003                                            _REFOCON 000F9A  
                                          _OSCCON2 000FD2                                     ?_ECAN_WAKI_ISR 0001  
                                          _RXB0DLC 000F65                                            _RXB1DLC 000F35  
                                          _OSCTUNE 000F9B                                            _SPBRGH1 000F7D  
                                          _TXB0DLC 000F25                                            _TXB1DLC 000F15  
                                          _TXB2DLC 000F05                               _ADC_InterruptHandler 0098  
                                          __Hparam 0000                                            __Lparam 0000  
                        ?_convertReg2StandardCANid 0003                                            ___fladd 1016  
                                          ___fldiv 1900                                         _fvariation 0047  
                                          ___flmul 14D6                                            ___flsub 2F7A  
                                          ___fltol 28D4                                    _ECAN_Initialize 2ADE  
                                        ?_vfprintf 0014                                       __psmallconst 1000  
                                          __pcinit 3116                                            __ramtop 1000  
                                          __ptext0 2526                                            __ptext1 2ECC  
                                          __ptext2 1FB4                                            __ptext3 2E54  
                                          __ptext4 2688                                            __ptext5 313C  
                                          __ptext6 2F2C                                            __ptext7 2DD4  
                                          __ptext8 2D3E                                            __ptext9 3238  
                                        _T0CONbits 000FD5                                    _uT_vehicule_ADC 0096  
                                  _uT_vehicule_CAN 004F                              _OSCILLATOR_Initialize 3218  
                                       ??___xxtofl 0007                                 _EUSART1_Initialize 2FC0  
                                 _convertCANid2Reg 23B2                           ??_PIN_MANAGER_Initialize 0003  
                                __end_of_reception 2F2C                               end_of_initialization 312E  
                           _WakeUpInterruptHandler 009A                                ?_EUSART1_Initialize 0001  
                                          fputc@fp 0007                                      __Lmediumconst 0000  
                      _EUSART1_OverrunErrorHandler 00BC                                      ??_CAN_receive 0018  
                 fp__WakeUpDefaultInterruptHandler 0000                     ?_WakeUpDefaultInterruptHandler 0001  
                                       _udemarrage 0080                                  __end_of_vfpfcnvrt 2E54  
                                          postdec2 000FDD                                            postinc0 000FEE  
                                          postinc1 000FE6                                            postinc2 000FDE  
                                       ??_vfprintf 001A                               ??_EUSART1_Initialize 0005  
                         _TMR0_SetInterruptHandler 3242                               _CAN_messagesInBuffer 30EC  
                                  ??_ECAN_WAKI_ISR 0001                                        ___fladd@grs 0012  
                                    ___xxtofl@sign 000B                                        _fT_consigne 0088  
                           CAN_transmit@tempCanMsg 0015                                        ___fldiv@grs 0024  
                                      ___fldiv@rem 001D                         ??_convertReg2ExtendedCANid 0007  
                             __end_of_interruption 327A                                EUSART1_Write@txData 0003  
                          temperature@ftemperature 00C0                                        ___flmul@grs 0038  
                                      _fT_vehicule 008C                            __end_of_ECAN_Initialize 2BB8  
                     __end_of_INTERRUPT_Initialize 327E                                __end_of_CAN_receive 21FE  
                                   __end_of___flge 2ADE                                        vfpfcnvrt@ap 0012  
                                      vfpfcnvrt@fp 000E                                     __end_of___wmul 3188  
                                   _ADC_Initialize 31EC                              ?_CAN_messagesInBuffer 0001  
                           ?_OSCILLATOR_Initialize 0001                                     __end_of_mesure 2C8E  
                                   __end_of_printf 3162                                start_initialization 3116  
                                      __end_of_LCD 30C2                                        putch@txData 0004  
                              temperature@fcelsius 00C4                              __end_of_EUSART1_Write 3218  
              convertReg2StandardCANid@returnValue 000A                                   ??_controle_seuil 001B  
                                      vfprintf@fmt 0016                                           ??___flge 000B  
                                         ??___wmul 0007                             __end_of_ADC_Initialize 3202  
                                         ??_mesure 0047                                           ??_printf 001E  
                                        ___fladd@a 0007                                          ___fladd@b 0003  
                                        ___fldiv@a 0015                                          ___fldiv@b 0011  
                                        ___flmul@a 002E                                          ___flmul@b 002A  
                                      __pbssCOMRAM 0047                                          ___flsub@a 0017  
                                        ___flsub@b 0013                                      __pcstackBANK0 00C0  
           __end_of_ECAN_SetWakeUpInterruptHandler 3274                     _ECAN_SetWakeUpInterruptHandler 326A  
                 ??_EUSART1_SetFramingErrorHandler 0005                    ?_EUSART1_SetFramingErrorHandler 0003  
                            _TMR0_InterruptHandler 00B8                                          __pnvBANK0 00B8  
                                      _CAN_receive 1FB4                                   ?_ECAN_Initialize 0001  
                           _PIN_MANAGER_Initialize 30C2                           __end_of_convertCANid2Reg 2526  
                                        __pintcode 0008                                           ?___fladd 0003  
                                         ?___fldiv 0011                                           ?___flmul 002A  
                                         ?___flsub 0013                                           ?___fltol 0003  
                                  ?_ADC_Initialize 0001                             ??_CAN_messagesInBuffer 0003  
                     ??_INTERRUPT_InterruptManager 0001                                        __smallconst 1000  
                                         _BAUDCON1 000FA7                                        _COMSTATbits 000F71  
               _EUSART1_DefaultOverrunErrorHandler 000000                               _EUSART1_ErrorHandler 00BA  
                 __end_of_convertReg2ExtendedCANid 27C2                            _EUSART1_SetErrorHandler 3260  
                   convertCANid2Reg@tempPassedInID 0003                                      _TMR0_CallBack 3038  
                             _INTERRUPT_Initialize 327A                                  ??_TMR0_Initialize 0005  
                                        _reception 2ECC                                     ___wmul@product 0007  
          EUSART1_SetErrorHandler@interruptHandler 0003                                           _LATBbits 000F8A  
                                         _PIE5bits 000F76                         ??_TMR0_SetInterruptHandler 0005  
                                         _PIR1bits 000F9E                                           i2u266_40 304C  
                                         i2u266_41 3048                                           i2u267_48 3052  
                                         i2u267_49 3066                                           i2u295_40 0020  
                                         i2u295_41 001C                                           i2u287_48 31D2  
                                         i2u288_40 3088                                           i2u296_40 002E  
                                         i2u287_49 31E8                                           i2u288_41 3084  
                                         i2u296_41 002A                                           i2u297_40 0044  
                                         i2u297_41 0040                                           _PIR5bits 000F77  
                                         i2u298_40 0052                                           i2u298_41 004E  
                                         i2u299_40 0060                                           i2u299_41 005C  
                                        _rxMessage 009C                                           _RXB0EIDH 000F63  
                                         _RXB0EIDL 000F64                                           _RXB1EIDH 000F33  
                                         _RXB1EIDL 000F34                                           _RCONbits 000FD0  
                                         _RXB0SIDH 000F61                                           _RXB0SIDL 000F62  
                                 _ECCP1_Initialize 322A                                           _RXF0EIDH 000EE2  
                                         _RXB1SIDH 000F31                                           _RXF0EIDL 000EE3  
                                         _RXB1SIDL 000F32                                           _RXF1EIDH 000EE6  
                                         _RXF1EIDL 000EE7                                           _RXF2EIDH 000EEA  
                                         _RXF2EIDL 000EEB                                           _RXF3EIDH 000EEE  
                                         _RXF3EIDL 000EEF                                           _RXF4EIDH 000EF2  
                                         _RXF4EIDL 000EF3                                           _RXF5EIDH 000EF6  
                                         _RXF5EIDL 000EF7                                           _RXF0SIDH 000EE0  
                                         _RXF0SIDL 000EE1                                           _RXF1SIDH 000EE4  
                                         _TXB0EIDH 000F23                                           _TXB0EIDL 000F24  
                                         _RXF1SIDL 000EE5                                           _RXF2SIDH 000EE8  
                                         _TXB1EIDH 000F13                                           _TXB1EIDL 000F14  
                                         _RXF2SIDL 000EE9                                           _RXF3SIDH 000EEC  
                                         _TXB2EIDH 000F03                                           _TXB2EIDL 000F04  
                                         _RXF3SIDL 000EED                                           _RXF4SIDH 000EF0  
                                         _RXF4SIDL 000EF1                                           _TMR0_ISR 3068  
                                         _RXF5SIDH 000EF4                                           _RXF5SIDL 000EF5  
                                         _RXM0EIDH 000EFA                                           _RXM0EIDL 000EFB  
                                     _interruption 3274                                           _RXM1EIDH 000EFE  
                                         _TXB0SIDH 000F21                                           _RXM1EIDL 000EFF  
                                         _TXB0SIDL 000F22                                           _TXB1SIDH 000F11  
                                         _TXB1SIDL 000F12                                           _TXB2SIDH 000F01  
                                         _TXB2SIDL 000F02                                          _txMessage 00AA  
                                         _RXM0SIDH 000EF8                                           _RXM0SIDL 000EF9  
                                         _RXM1SIDH 000EFC                                           _RXM1SIDL 000EFD  
                                        _vfpfcnvrt 2DD4                                         _ADCON0bits 000FC2  
                                    ??_temperature 0047                                  ___wmul@multiplier 0003  
                                   ?_TMR0_CallBack 0001                                        _INTCON2bits 000FF1  
                            ?_INTERRUPT_Initialize 0001                                         ?_reception 0001  
                         _convertReg2StandardCANid 2E54              convertReg2ExtendedCANid@tempRXBn_EIDH 000B  
            convertReg2ExtendedCANid@tempRXBn_EIDL 0003              convertReg2ExtendedCANid@tempRXBn_SIDH 0004  
            convertReg2ExtendedCANid@tempRXBn_SIDL 0005                                           __Hrparam 0000  
                                       vfprintf@ap 0018                                           __Lrparam 0000  
                                       vfprintf@fp 0014                                  _ADC_GetConversion 2FFE  
                        convertCANid2Reg@canIdType 0007                            ??_OSCILLATOR_Initialize 0003  
                               ?_ADC_GetConversion 0003                                         ?_vfpfcnvrt 000E  
convertReg2ExtendedCANid@CAN_standardLo_ID_hi3bits 0011                          ??_EUSART1_SetErrorHandler 0005  
                      _EUSART1_DefaultErrorHandler 000000                                ??_ADC_GetConversion 0005  
convertReg2ExtendedCANid@CAN_standardLo_ID_lo2bits 0010                                           ___xxtofl 21FE  
                          convertCANid2Reg@wipSIDL 0014                              __end_of_ECAN_WAKI_ISR 31EC  
                                         __ptext10 2BB8                                           __ptext11 2C8E  
                                         __ptext20 1016                                           __ptext12 21FE  
                                         __ptext21 29DA                                           __ptext13 14D6  
                                         __ptext30 3256                                           __ptext22 3188  
                                         __ptext14 1900                                           __ptext31 3260  
                                         __ptext23 31AA                                           __ptext15 3162  
                                         __ptext40 30EC                                           __ptext32 322A  
                                         __ptext24 3242                                           __ptext16 28D4  
                                         __ptext33 2ADE                                           __ptext25 30C2  
                                         __ptext17 2FFE                                           __ptext42 3068  
                                         __ptext34 326A                                           __ptext26 3218  
                                         __ptext18 27C2                                           __ptext43 3038  
                                         __ptext35 31EC                                           __ptext27 327A  
                                         __ptext19 2F7A                                           __ptext44 327E  
                                         __ptext36 3096                                           __ptext28 2FC0  
                                         __ptext45 3274                                           __ptext37 3202  
                                         __ptext29 324C                                           __ptext46 31CC  
                                         __ptext38 1C9A                                           __ptext47 3280  
                                         __ptext39 23B2                                           __ptext48 0000  
                              __end_of_temperature 2D3E                convertReg2StandardCANid@ConvertedID 000E  
             __end_of_TMR0_DefaultInterruptHandler 3280                       _TMR0_DefaultInterruptHandler 327E  
              convertReg2ExtendedCANid@returnValue 000C                          __end_of_ADC_GetConversion 3038  
   EUSART1_SetOverrunErrorHandler@interruptHandler 0003                                           isa$xinst 000000  
                        ?_convertReg2ExtendedCANid 0003                                      ?_CAN_transmit 0015  
                                         int$flags 0057                                           _vfprintf 2F2C  
               __end_of_INTERRUPT_InterruptManager 0074                         _INTERRUPT_InterruptManager 0008  
                                        printf@fmt 001C                        _EUSART1_FramingErrorHandler 00BE  
                                      _RXB0CONbits 000F60                                        _RXB1CONbits 000F30  
                                       _INTCONbits 000FF2                                    ??_TMR0_CallBack 0001  
                           ??_INTERRUPT_Initialize 0003                                           intlevel2 0000  
                                      ??_reception 0018                            ?_PIN_MANAGER_Initialize 0001  
           __end_of_EUSART1_SetOverrunErrorHandler 3256                     _EUSART1_SetOverrunErrorHandler 324C  
                                      _TXB0CONbits 000F20                                         _RCSTA1bits 000FAB  
                                     ?_CAN_receive 0016                                        _TXB1CONbits 000F10  
                                      _TXB2CONbits 000F00                                   ??_ADC_Initialize 0003  
                  fp__TMR0_DefaultInterruptHandler 0000                      ?_TMR0_DefaultInterruptHandler 0001  
                                   ??_CAN_transmit 0017                                  ?_convertCANid2Reg 0003  
                                         printf@ap 001E     EUSART1_SetFramingErrorHandler@interruptHandler 0003  
                               ??_convertCANid2Reg 0010                                        ??_vfpfcnvrt 0014  
                               _eusart1RxLastError 0055                                        _temperature 2C8E  
                                  _TMR0_Initialize 31AA                           __end_of_ECCP1_Initialize 3238  
                 CAN_messagesInBuffer@messageCount 0003                                      ___fladd@signs 000F  
                   __end_of_PIN_MANAGER_Initialize 30EC                                       ___fladd@aexp 0010  
                                     ___fladd@bexp 0011  
